EXPORTS 
	?$TSS0@?1??Instance@TextureManager@Tucano@@SAAEAV23@XZ@4HA 	 DATA
	??_R0?AV<lambda_0eb331034ec64f284d3276d5eb9bc498>@@@8 	 DATA
	??_R0?AV<lambda_1d192c76f25f01443164c3008efd2f7a>@@@8 	 DATA
	??_R0?AV<lambda_20810bc6c307e6c094ca4ad02a7e2c1b>@@@8 	 DATA
	??_R0?AV<lambda_297a8ab7031fb168e0f42b0ceacfb411>@@@8 	 DATA
	??_R0?AV<lambda_3a3d10b6c3efd1a8679460d8f1128bfe>@@@8 	 DATA
	??_R0?AV<lambda_42565b2b1ff40c7ec619f6b0eefb855d>@@@8 	 DATA
	??_R0?AV<lambda_59114e1161731b809247c9c49615e8bc>@@@8 	 DATA
	??_R0?AV<lambda_7817004a68f0dccb72be0e8c40851883>@@@8 	 DATA
	??_R0?AV<lambda_b660b692aa17cad6c64c8293c384ce89>@@@8 	 DATA
	??_R0?AV<lambda_ce9ec88a1648543eec0dbc746d8a6173>@@@8 	 DATA
	??_R0?AV<lambda_ef956bcedf99c3666c1c91f23b99b48b>@@@8 	 DATA
	??_R0?AV?$_Func_base@X$$V@std@@@8 	 DATA
	??_R0?AV?$_Func_base@XM@std@@@8 	 DATA
	??_R0?AV?$_Iosb@H@std@@@8 	 DATA
	??_R0?AV?$_Ref_count_resource@PEAIV<lambda_0eb331034ec64f284d3276d5eb9bc498>@@@std@@@8 	 DATA
	??_R0?AV?$_Ref_count_resource@PEAIV<lambda_1d192c76f25f01443164c3008efd2f7a>@@@std@@@8 	 DATA
	??_R0?AV?$_Ref_count_resource@PEAIV<lambda_20810bc6c307e6c094ca4ad02a7e2c1b>@@@std@@@8 	 DATA
	??_R0?AV?$_Ref_count_resource@PEAIV<lambda_297a8ab7031fb168e0f42b0ceacfb411>@@@std@@@8 	 DATA
	??_R0?AV?$_Ref_count_resource@PEAIV<lambda_3a3d10b6c3efd1a8679460d8f1128bfe>@@@std@@@8 	 DATA
	??_R0?AV?$_Ref_count_resource@PEAIV<lambda_42565b2b1ff40c7ec619f6b0eefb855d>@@@std@@@8 	 DATA
	??_R0?AV?$_Ref_count_resource@PEAIV<lambda_59114e1161731b809247c9c49615e8bc>@@@std@@@8 	 DATA
	??_R0?AV?$_Ref_count_resource@PEAIV<lambda_7817004a68f0dccb72be0e8c40851883>@@@std@@@8 	 DATA
	??_R0?AV?$_Ref_count_resource@PEAIV<lambda_b660b692aa17cad6c64c8293c384ce89>@@@std@@@8 	 DATA
	??_R0?AV?$_Ref_count_resource@PEAIV<lambda_ce9ec88a1648543eec0dbc746d8a6173>@@@std@@@8 	 DATA
	??_R0?AV?$_Ref_count_resource@PEAIV<lambda_ef956bcedf99c3666c1c91f23b99b48b>@@@std@@@8 	 DATA
	??_R0?AV?$basic_filebuf@DU?$char_traits@D@std@@@std@@@8 	 DATA
	??_R0?AV?$basic_ifstream@DU?$char_traits@D@std@@@std@@@8 	 DATA
	??_R0?AV?$basic_ios@DU?$char_traits@D@std@@@std@@@8 	 DATA
	??_R0?AV?$basic_istream@DU?$char_traits@D@std@@@std@@@8 	 DATA
	??_R0?AV?$basic_streambuf@DU?$char_traits@D@std@@@std@@@8 	 DATA
	??_R0?AVArrow@Shapes@Tucano@@@8 	 DATA
	??_R0?AVButton@GUI@Tucano@@@8 	 DATA
	??_R0?AVCamera@Tucano@@@8 	 DATA
	??_R0?AVDirectionalTrackball@Tucano@@@8 	 DATA
	??_R0?AVEffect@Tucano@@@8 	 DATA
	??_R0?AVElement@GUI@Tucano@@@8 	 DATA
	??_R0?AVGroupBox@GUI@Tucano@@@8 	 DATA
	??_R0?AVGui@tucanow@@@8 	 DATA
	??_R0?AVLabel@GUI@Tucano@@@8 	 DATA
	??_R0?AVMesh@Tucano@@@8 	 DATA
	??_R0?AVModel@Tucano@@@8 	 DATA
	??_R0?AVPhong@Effects@Tucano@@@8 	 DATA
	??_R0?AVQuad@Shapes@Tucano@@@8 	 DATA
	??_R0?AVScene@tucanow@@@8 	 DATA
	??_R0?AVSelectButton@GUI@Tucano@@@8 	 DATA
	??_R0?AVSlider@GUI@Tucano@@@8 	 DATA
	??_R0?AVTrackball@Tucano@@@8 	 DATA
	??_R0?AVWireframe@Effects@Tucano@@@8 	 DATA
	??_R0?AV_Ref_count_base@std@@@8 	 DATA
	??_R0?AVbad_cast@std@@@8 	 DATA
	??_R0?AVexception@std@@@8 	 DATA
	??_R0?AVios_base@std@@@8 	 DATA
	??_R0?AVlogic_error@std@@@8 	 DATA
	?_OptionsStorage@?1??__local_stdio_printf_options@@9@4_KA 	 DATA
	?_OptionsStorage@?1??__local_stdio_scanf_options@@9@4_KA 	 DATA
	?_Psave@?$_Facetptr@V?$codecvt@DDU_Mbstatet@@@std@@@std@@2PEBVfacet@locale@2@EB 	 DATA
	?_Psave@?$_Facetptr@V?$ctype@D@std@@@std@@2PEBVfacet@locale@2@EB 	 DATA
	?_Stinit@?1??_Init@?$basic_filebuf@DU?$char_traits@D@std@@@std@@IEAAXPEAU_iobuf@@W4_Initfl@23@@Z@4U_Mbstatet@@A 	 DATA
	?_instance@?1??Instance@TextureManager@Tucano@@SAAEAV23@XZ@4V23@A 	 DATA
	??$?0$$V@?$_Compressed_pair@V?$allocator@D@std@@V?$_String_val@U?$_Simple_types@D@std@@@2@$00@std@@QEAA@U_Zero_then_variadic_args_t@1@@Z
	??$?0$$V@?$_Compressed_pair@V?$allocator@H@std@@V?$_Vector_val@U?$_Simple_types@H@std@@@2@$00@std@@QEAA@U_Zero_then_variadic_args_t@1@@Z
	??$?0$$V@?$_Compressed_pair@V?$allocator@I@std@@V?$_Vector_val@U?$_Simple_types@I@std@@@2@$00@std@@QEAA@U_Zero_then_variadic_args_t@1@@Z
	??$?0$$V@?$_Compressed_pair@V?$allocator@M@std@@V?$_Vector_val@U?$_Simple_types@M@std@@@2@$00@std@@QEAA@U_Zero_then_variadic_args_t@1@@Z
	??$?0$$V@?$_Compressed_pair@V?$allocator@PEAVElement@GUI@Tucano@@@std@@V?$_Vector_val@U?$_Simple_types@PEAVElement@GUI@Tucano@@@std@@@2@$00@std@@QEAA@U_Zero_then_variadic_args_t@1@@Z
	??$?0$$V@?$_Compressed_pair@V?$allocator@PEAVShader@Tucano@@@std@@V?$_Vector_val@U?$_Simple_types@PEAVShader@Tucano@@@std@@@2@$00@std@@QEAA@U_Zero_then_variadic_args_t@1@@Z
	??$?0$$V@?$_Compressed_pair@V?$allocator@V?$Matrix@M$01$00$0A@$01$00@Eigen@@@std@@V?$_Vector_val@U?$_Simple_types@V?$Matrix@M$01$00$0A@$01$00@Eigen@@@std@@@2@$00@std@@QEAA@U_Zero_then_variadic_args_t@1@@Z
	??$?0$$V@?$_Compressed_pair@V?$allocator@V?$Matrix@M$02$00$0A@$02$00@Eigen@@@std@@V?$_Vector_val@U?$_Simple_types@V?$Matrix@M$02$00$0A@$02$00@Eigen@@@std@@@2@$00@std@@QEAA@U_Zero_then_variadic_args_t@1@@Z
	??$?0$$V@?$_Compressed_pair@V?$allocator@V?$Matrix@M$03$00$0A@$03$00@Eigen@@@std@@V?$_Vector_val@U?$_Simple_types@V?$Matrix@M$03$00$0A@$03$00@Eigen@@@std@@@2@$00@std@@QEAA@U_Zero_then_variadic_args_t@1@@Z
	??$?0$$V@?$_Compressed_pair@V?$allocator@VVertexAttribute@Tucano@@@std@@V?$_Vector_val@U?$_Simple_types@VVertexAttribute@Tucano@@@std@@@2@$00@std@@QEAA@U_Zero_then_variadic_args_t@1@@Z
	??$?0AEAPEAUGuiImpl@tucanow@@@?$_Compressed_pair@U?$default_delete@UGuiImpl@tucanow@@@std@@PEAUGuiImpl@tucanow@@$00@std@@QEAA@U_Zero_then_variadic_args_t@1@AEAPEAUGuiImpl@tucanow@@@Z
	??$?0AEAPEAUSceneImpl@tucanow@@@?$_Compressed_pair@U?$default_delete@USceneImpl@tucanow@@@std@@PEAUSceneImpl@tucanow@@$00@std@@QEAA@U_Zero_then_variadic_args_t@1@AEAPEAUSceneImpl@tucanow@@@Z
	??$?0AEAPEAV_Facet_base@std@@@?$_Compressed_pair@U?$default_delete@V_Facet_base@std@@@std@@PEAV_Facet_base@2@$00@std@@QEAA@U_Zero_then_variadic_args_t@1@AEAPEAV_Facet_base@1@@Z
	??$?0AEBV?$allocator@D@std@@$$V@?$_Compressed_pair@V?$allocator@D@std@@V?$_String_val@U?$_Simple_types@D@std@@@2@$00@std@@QEAA@U_One_then_variadic_args_t@1@AEBV?$allocator@D@1@@Z
	??$?0AEBV?$allocator@D@std@@X@?$_String_alloc@U?$_String_base_types@DV?$allocator@D@std@@@std@@@std@@QEAA@AEBV?$allocator@D@1@@Z
	??$?0AEBV?$allocator@M@std@@$$V@?$_Compressed_pair@V?$allocator@M@std@@V?$_Vector_val@U?$_Simple_types@M@std@@@2@$00@std@@QEAA@U_One_then_variadic_args_t@1@AEBV?$allocator@M@1@@Z
	??$?0AEBV?$allocator@M@std@@X@?$_Vector_alloc@U?$_Vec_base_types@MV?$allocator@M@std@@@std@@@std@@QEAA@AEBV?$allocator@M@1@@Z
	??$?0D@?$allocator@U_Container_proxy@std@@@std@@QEAA@AEBV?$allocator@D@1@@Z
	??$?0H@?$allocator@U_Container_proxy@std@@@std@@QEAA@AEBV?$allocator@H@1@@Z
	??$?0HH@?$Matrix@H$01$00$0A@$01$00@Eigen@@QEAA@AEBH0@Z
	??$?0I@?$allocator@U_Container_proxy@std@@@std@@QEAA@AEBV?$allocator@I@1@@Z
	??$?0IV<lambda_0eb331034ec64f284d3276d5eb9bc498>@@$0A@@?$shared_ptr@I@std@@QEAA@PEAIV<lambda_0eb331034ec64f284d3276d5eb9bc498>@@@Z
	??$?0IV<lambda_1d192c76f25f01443164c3008efd2f7a>@@$0A@@?$shared_ptr@I@std@@QEAA@PEAIV<lambda_1d192c76f25f01443164c3008efd2f7a>@@@Z
	??$?0IV<lambda_20810bc6c307e6c094ca4ad02a7e2c1b>@@$0A@@?$shared_ptr@I@std@@QEAA@PEAIV<lambda_20810bc6c307e6c094ca4ad02a7e2c1b>@@@Z
	??$?0IV<lambda_297a8ab7031fb168e0f42b0ceacfb411>@@$0A@@?$shared_ptr@I@std@@QEAA@PEAIV<lambda_297a8ab7031fb168e0f42b0ceacfb411>@@@Z
	??$?0IV<lambda_3a3d10b6c3efd1a8679460d8f1128bfe>@@$0A@@?$shared_ptr@I@std@@QEAA@PEAIV<lambda_3a3d10b6c3efd1a8679460d8f1128bfe>@@@Z
	??$?0IV<lambda_42565b2b1ff40c7ec619f6b0eefb855d>@@$0A@@?$shared_ptr@I@std@@QEAA@PEAIV<lambda_42565b2b1ff40c7ec619f6b0eefb855d>@@@Z
	??$?0IV<lambda_59114e1161731b809247c9c49615e8bc>@@$0A@@?$shared_ptr@I@std@@QEAA@PEAIV<lambda_59114e1161731b809247c9c49615e8bc>@@@Z
	??$?0IV<lambda_7817004a68f0dccb72be0e8c40851883>@@$0A@@?$shared_ptr@I@std@@QEAA@PEAIV<lambda_7817004a68f0dccb72be0e8c40851883>@@@Z
	??$?0IV<lambda_b660b692aa17cad6c64c8293c384ce89>@@$0A@@?$shared_ptr@I@std@@QEAA@PEAIV<lambda_b660b692aa17cad6c64c8293c384ce89>@@@Z
	??$?0IV<lambda_ce9ec88a1648543eec0dbc746d8a6173>@@$0A@@?$shared_ptr@I@std@@QEAA@PEAIV<lambda_ce9ec88a1648543eec0dbc746d8a6173>@@@Z
	??$?0IV<lambda_ef956bcedf99c3666c1c91f23b99b48b>@@$0A@@?$shared_ptr@I@std@@QEAA@PEAIV<lambda_ef956bcedf99c3666c1c91f23b99b48b>@@@Z
	??$?0M@?$allocator@U_Container_proxy@std@@@std@@QEAA@AEBV?$allocator@M@1@@Z
	??$?0MM@?$Matrix@M$01$00$0A@$01$00@Eigen@@QEAA@AEBM0@Z
	??$?0NN@?$Matrix@M$01$00$0A@$01$00@Eigen@@QEAA@AEBN0@Z
	??$?0PEAUGuiImpl@tucanow@@@?$_Unique_ptr_base@UGuiImpl@tucanow@@U?$default_delete@UGuiImpl@tucanow@@@std@@@std@@QEAA@PEAUGuiImpl@tucanow@@@Z
	??$?0PEAUSceneImpl@tucanow@@@?$_Unique_ptr_base@USceneImpl@tucanow@@U?$default_delete@USceneImpl@tucanow@@@std@@@std@@QEAA@PEAUSceneImpl@tucanow@@@Z
	??$?0PEAUSceneImpl@tucanow@@U?$default_delete@USceneImpl@tucanow@@@std@@@?$_Unique_ptr_base@USceneImpl@tucanow@@U?$default_delete@USceneImpl@tucanow@@@std@@@std@@QEAA@PEAUSceneImpl@tucanow@@$$QEAU?$default_delete@USceneImpl@tucanow@@@1@@Z
	??$?0PEAVElement@GUI@Tucano@@@?$allocator@U_Container_proxy@std@@@std@@QEAA@AEBV?$allocator@PEAVElement@GUI@Tucano@@@1@@Z
	??$?0PEAVShader@Tucano@@@?$allocator@U_Container_proxy@std@@@std@@QEAA@AEBV?$allocator@PEAVShader@Tucano@@@1@@Z
	??$?0PEAV_Facet_base@std@@@?$_Unique_ptr_base@V_Facet_base@std@@U?$default_delete@V_Facet_base@std@@@2@@std@@QEAA@PEAV_Facet_base@1@@Z
	??$?0U?$default_delete@UGuiImpl@tucanow@@@std@@$0A@@?$unique_ptr@UGuiImpl@tucanow@@U?$default_delete@UGuiImpl@tucanow@@@std@@@std@@QEAA@PEAUGuiImpl@tucanow@@@Z
	??$?0U?$default_delete@USceneImpl@tucanow@@@std@@$0A@@?$unique_ptr@USceneImpl@tucanow@@U?$default_delete@USceneImpl@tucanow@@@std@@@std@@QEAA@XZ
	??$?0U?$default_delete@USceneImpl@tucanow@@@std@@AEAPEAUSceneImpl@tucanow@@@?$_Compressed_pair@U?$default_delete@USceneImpl@tucanow@@@std@@PEAUSceneImpl@tucanow@@$00@std@@QEAA@U_One_then_variadic_args_t@1@$$QEAU?$default_delete@USceneImpl@tucanow@@@1@AEAPEAUSceneImpl@tucanow@@@Z
	??$?0U?$default_delete@V_Facet_base@std@@@std@@$0A@@?$unique_ptr@V_Facet_base@std@@U?$default_delete@V_Facet_base@std@@@2@@std@@QEAA@PEAV_Facet_base@1@@Z
	??$?0U?$integral_constant@_N$00@std@@@_Unused_parameter@std@@QEAA@$$QEAU?$integral_constant@_N$00@1@@Z
	??$?0V<lambda_0eb331034ec64f284d3276d5eb9bc498>@@AEAPEAI@?$_Compressed_pair@V<lambda_0eb331034ec64f284d3276d5eb9bc498>@@PEAI$00@std@@QEAA@U_One_then_variadic_args_t@1@$$QEAV<lambda_0eb331034ec64f284d3276d5eb9bc498>@@AEAPEAI@Z
	??$?0V<lambda_1d192c76f25f01443164c3008efd2f7a>@@AEAPEAI@?$_Compressed_pair@V<lambda_1d192c76f25f01443164c3008efd2f7a>@@PEAI$00@std@@QEAA@U_One_then_variadic_args_t@1@$$QEAV<lambda_1d192c76f25f01443164c3008efd2f7a>@@AEAPEAI@Z
	??$?0V<lambda_20810bc6c307e6c094ca4ad02a7e2c1b>@@AEAPEAI@?$_Compressed_pair@V<lambda_20810bc6c307e6c094ca4ad02a7e2c1b>@@PEAI$00@std@@QEAA@U_One_then_variadic_args_t@1@$$QEAV<lambda_20810bc6c307e6c094ca4ad02a7e2c1b>@@AEAPEAI@Z
	??$?0V<lambda_297a8ab7031fb168e0f42b0ceacfb411>@@AEAPEAI@?$_Compressed_pair@V<lambda_297a8ab7031fb168e0f42b0ceacfb411>@@PEAI$00@std@@QEAA@U_One_then_variadic_args_t@1@$$QEAV<lambda_297a8ab7031fb168e0f42b0ceacfb411>@@AEAPEAI@Z
	??$?0V<lambda_3a3d10b6c3efd1a8679460d8f1128bfe>@@AEAPEAI@?$_Compressed_pair@V<lambda_3a3d10b6c3efd1a8679460d8f1128bfe>@@PEAI$00@std@@QEAA@U_One_then_variadic_args_t@1@$$QEAV<lambda_3a3d10b6c3efd1a8679460d8f1128bfe>@@AEAPEAI@Z
	??$?0V<lambda_42565b2b1ff40c7ec619f6b0eefb855d>@@AEAPEAI@?$_Compressed_pair@V<lambda_42565b2b1ff40c7ec619f6b0eefb855d>@@PEAI$00@std@@QEAA@U_One_then_variadic_args_t@1@$$QEAV<lambda_42565b2b1ff40c7ec619f6b0eefb855d>@@AEAPEAI@Z
	??$?0V<lambda_59114e1161731b809247c9c49615e8bc>@@AEAPEAI@?$_Compressed_pair@V<lambda_59114e1161731b809247c9c49615e8bc>@@PEAI$00@std@@QEAA@U_One_then_variadic_args_t@1@$$QEAV<lambda_59114e1161731b809247c9c49615e8bc>@@AEAPEAI@Z
	??$?0V<lambda_7817004a68f0dccb72be0e8c40851883>@@AEAPEAI@?$_Compressed_pair@V<lambda_7817004a68f0dccb72be0e8c40851883>@@PEAI$00@std@@QEAA@U_One_then_variadic_args_t@1@$$QEAV<lambda_7817004a68f0dccb72be0e8c40851883>@@AEAPEAI@Z
	??$?0V<lambda_b660b692aa17cad6c64c8293c384ce89>@@AEAPEAI@?$_Compressed_pair@V<lambda_b660b692aa17cad6c64c8293c384ce89>@@PEAI$00@std@@QEAA@U_One_then_variadic_args_t@1@$$QEAV<lambda_b660b692aa17cad6c64c8293c384ce89>@@AEAPEAI@Z
	??$?0V<lambda_ce9ec88a1648543eec0dbc746d8a6173>@@AEAPEAI@?$_Compressed_pair@V<lambda_ce9ec88a1648543eec0dbc746d8a6173>@@PEAI$00@std@@QEAA@U_One_then_variadic_args_t@1@$$QEAV<lambda_ce9ec88a1648543eec0dbc746d8a6173>@@AEAPEAI@Z
	??$?0V<lambda_ef956bcedf99c3666c1c91f23b99b48b>@@AEAPEAI@?$_Compressed_pair@V<lambda_ef956bcedf99c3666c1c91f23b99b48b>@@PEAI$00@std@@QEAA@U_One_then_variadic_args_t@1@$$QEAV<lambda_ef956bcedf99c3666c1c91f23b99b48b>@@AEAPEAI@Z
	??$?0V?$Block@$$CBV?$CwiseNullaryOp@U?$scalar_identity_op@M@internal@Eigen@@V?$Matrix@M$02$02$0A@$02$02@3@@Eigen@@$02$00$0A@@Eigen@@@?$AngleAxis@M@Eigen@@QEAA@AEBMAEBV?$MatrixBase@V?$Block@$$CBV?$CwiseNullaryOp@U?$scalar_identity_op@M@internal@Eigen@@V?$Matrix@M$02$02$0A@$02$02@3@@Eigen@@$02$00$0A@@Eigen@@@1@@Z
	??$?0V?$CwiseBinaryOp@U?$scalar_difference_op@MM@internal@Eigen@@$$CBV?$Matrix@M$01$00$0A@$01$00@3@$$CBV43@@Eigen@@@?$Matrix@M$01$00$0A@$01$00@Eigen@@QEAA@AEBU?$EigenBase@V?$CwiseBinaryOp@U?$scalar_difference_op@MM@internal@Eigen@@$$CBV?$Matrix@M$01$00$0A@$01$00@3@$$CBV43@@Eigen@@@1@@Z
	??$?0V?$CwiseBinaryOp@U?$scalar_difference_op@MM@internal@Eigen@@$$CBV?$Matrix@M$01$00$0A@$01$00@3@$$CBV43@@Eigen@@@?$PlainObjectBase@V?$Matrix@M$01$00$0A@$01$00@Eigen@@@Eigen@@IEAA@AEBV?$DenseBase@V?$CwiseBinaryOp@U?$scalar_difference_op@MM@internal@Eigen@@$$CBV?$Matrix@M$01$00$0A@$01$00@3@$$CBV43@@Eigen@@@1@@Z
	??$?0V?$CwiseBinaryOp@U?$scalar_product_op@MM@internal@Eigen@@$$CBV?$CwiseNullaryOp@U?$scalar_constant_op@M@internal@Eigen@@$$CBV?$Matrix@M$02$00$0A@$02$00@3@@3@$$CBV?$Matrix@M$02$00$0A@$02$00@3@@Eigen@@@?$Matrix@M$02$00$0A@$02$00@Eigen@@QEAA@AEBU?$EigenBase@V?$CwiseBinaryOp@U?$scalar_product_op@MM@internal@Eigen@@$$CBV?$CwiseNullaryOp@U?$scalar_constant_op@M@internal@Eigen@@$$CBV?$Matrix@M$02$00$0A@$02$00@3@@3@$$CBV?$Matrix@M$02$00$0A@$02$00@3@@Eigen@@@1@@Z
	??$?0V?$CwiseBinaryOp@U?$scalar_product_op@MM@internal@Eigen@@$$CBV?$CwiseNullaryOp@U?$scalar_constant_op@M@internal@Eigen@@$$CBV?$Matrix@M$02$00$0A@$02$00@3@@3@$$CBV?$Matrix@M$02$00$0A@$02$00@3@@Eigen@@@?$PlainObjectBase@V?$Matrix@M$02$00$0A@$02$00@Eigen@@@Eigen@@IEAA@AEBV?$DenseBase@V?$CwiseBinaryOp@U?$scalar_product_op@MM@internal@Eigen@@$$CBV?$CwiseNullaryOp@U?$scalar_constant_op@M@internal@Eigen@@$$CBV?$Matrix@M$02$00$0A@$02$00@3@@3@$$CBV?$Matrix@M$02$00$0A@$02$00@3@@Eigen@@@1@@Z
	??$?0V?$CwiseBinaryOp@U?$scalar_product_op@MM@internal@Eigen@@$$CBV?$Matrix@M$02$00$0A@$02$00@3@$$CBV?$CwiseNullaryOp@U?$scalar_constant_op@M@internal@Eigen@@$$CBV?$Matrix@M$02$00$0A@$02$00@3@@3@@Eigen@@@?$Matrix@M$02$00$0A@$02$00@Eigen@@QEAA@AEBU?$EigenBase@V?$CwiseBinaryOp@U?$scalar_product_op@MM@internal@Eigen@@$$CBV?$Matrix@M$02$00$0A@$02$00@3@$$CBV?$CwiseNullaryOp@U?$scalar_constant_op@M@internal@Eigen@@$$CBV?$Matrix@M$02$00$0A@$02$00@3@@3@@Eigen@@@1@@Z
	??$?0V?$CwiseBinaryOp@U?$scalar_product_op@MM@internal@Eigen@@$$CBV?$Matrix@M$02$00$0A@$02$00@3@$$CBV?$CwiseNullaryOp@U?$scalar_constant_op@M@internal@Eigen@@$$CBV?$Matrix@M$02$00$0A@$02$00@3@@3@@Eigen@@@?$PlainObjectBase@V?$Matrix@M$02$00$0A@$02$00@Eigen@@@Eigen@@IEAA@AEBV?$DenseBase@V?$CwiseBinaryOp@U?$scalar_product_op@MM@internal@Eigen@@$$CBV?$Matrix@M$02$00$0A@$02$00@3@$$CBV?$CwiseNullaryOp@U?$scalar_constant_op@M@internal@Eigen@@$$CBV?$Matrix@M$02$00$0A@$02$00@3@@3@@Eigen@@@1@@Z
	??$?0V?$CwiseBinaryOp@U?$scalar_quotient_op@MM@internal@Eigen@@$$CBV?$Matrix@M$03$00$0A@$03$00@3@$$CBV?$CwiseNullaryOp@U?$scalar_constant_op@M@internal@Eigen@@$$CBV?$Matrix@M$03$00$0A@$03$00@3@@3@@Eigen@@@?$Quaternion@M$0A@@Eigen@@QEAA@AEBV?$MatrixBase@V?$CwiseBinaryOp@U?$scalar_quotient_op@MM@internal@Eigen@@$$CBV?$Matrix@M$03$00$0A@$03$00@3@$$CBV?$CwiseNullaryOp@U?$scalar_constant_op@M@internal@Eigen@@$$CBV?$Matrix@M$03$00$0A@$03$00@3@@3@@Eigen@@@1@@Z
	??$?0V?$CwiseBinaryOp@U?$scalar_sum_op@MM@internal@Eigen@@$$CBV?$CwiseBinaryOp@U?$scalar_sum_op@MM@internal@Eigen@@$$CBV?$Matrix@M$02$00$0A@$02$00@3@$$CBV?$CwiseBinaryOp@U?$scalar_product_op@MM@internal@Eigen@@$$CBV?$CwiseNullaryOp@U?$scalar_constant_op@M@internal@Eigen@@$$CBV?$Matrix@M$02$00$0A@$02$00@3@@3@$$CBV?$Matrix@M$02$00$0A@$02$00@3@@3@@3@$$CBV?$Matrix@M$02$00$0A@$02$00@3@@Eigen@@@?$Matrix@M$02$00$0A@$02$00@Eigen@@QEAA@AEBU?$EigenBase@V?$CwiseBinaryOp@U?$scalar_sum_op@MM@internal@Eigen@@$$CBV?$CwiseBinaryOp@U?$scalar_sum_op@MM@internal@Eigen@@$$CBV?$Matrix@M$02$00$0A@$02$00@3@$$CBV?$CwiseBinaryOp@U?$scalar_product_op@MM@internal@Eigen@@$$CBV?$CwiseNullaryOp@U?$scalar_constant_op@M@internal@Eigen@@$$CBV?$Matrix@M$02$00$0A@$02$00@3@@3@$$CBV?$Matrix@M$02$00$0A@$02$00@3@@3@@3@$$CBV?$Matrix@M$02$00$0A@$02$00@3@@Eigen@@@1@@Z
	??$?0V?$CwiseBinaryOp@U?$scalar_sum_op@MM@internal@Eigen@@$$CBV?$CwiseBinaryOp@U?$scalar_sum_op@MM@internal@Eigen@@$$CBV?$Matrix@M$02$00$0A@$02$00@3@$$CBV?$CwiseBinaryOp@U?$scalar_product_op@MM@internal@Eigen@@$$CBV?$CwiseNullaryOp@U?$scalar_constant_op@M@internal@Eigen@@$$CBV?$Matrix@M$02$00$0A@$02$00@3@@3@$$CBV?$Matrix@M$02$00$0A@$02$00@3@@3@@3@$$CBV?$Matrix@M$02$00$0A@$02$00@3@@Eigen@@@?$PlainObjectBase@V?$Matrix@M$02$00$0A@$02$00@Eigen@@@Eigen@@IEAA@AEBV?$DenseBase@V?$CwiseBinaryOp@U?$scalar_sum_op@MM@internal@Eigen@@$$CBV?$CwiseBinaryOp@U?$scalar_sum_op@MM@internal@Eigen@@$$CBV?$Matrix@M$02$00$0A@$02$00@3@$$CBV?$CwiseBinaryOp@U?$scalar_product_op@MM@internal@Eigen@@$$CBV?$CwiseNullaryOp@U?$scalar_constant_op@M@internal@Eigen@@$$CBV?$Matrix@M$02$00$0A@$02$00@3@@3@$$CBV?$Matrix@M$02$00$0A@$02$00@3@@3@@3@$$CBV?$Matrix@M$02$00$0A@$02$00@3@@Eigen@@@1@@Z
	??$?0V?$CwiseNullaryOp@U?$scalar_constant_op@H@internal@Eigen@@V?$Matrix@H$01$00$0A@$01$00@3@@Eigen@@@?$Matrix@H$01$00$0A@$01$00@Eigen@@QEAA@AEBU?$EigenBase@V?$CwiseNullaryOp@U?$scalar_constant_op@H@internal@Eigen@@V?$Matrix@H$01$00$0A@$01$00@3@@Eigen@@@1@@Z
	??$?0V?$CwiseNullaryOp@U?$scalar_constant_op@H@internal@Eigen@@V?$Matrix@H$01$00$0A@$01$00@3@@Eigen@@@?$PlainObjectBase@V?$Matrix@H$01$00$0A@$01$00@Eigen@@@Eigen@@IEAA@AEBV?$DenseBase@V?$CwiseNullaryOp@U?$scalar_constant_op@H@internal@Eigen@@V?$Matrix@H$01$00$0A@$01$00@3@@Eigen@@@1@@Z
	??$?0V?$CwiseNullaryOp@U?$scalar_constant_op@M@internal@Eigen@@V?$Matrix@M$02$00$0A@$02$00@3@@Eigen@@@?$Matrix@M$02$00$0A@$02$00@Eigen@@QEAA@AEBU?$EigenBase@V?$CwiseNullaryOp@U?$scalar_constant_op@M@internal@Eigen@@V?$Matrix@M$02$00$0A@$02$00@3@@Eigen@@@1@@Z
	??$?0V?$CwiseNullaryOp@U?$scalar_constant_op@M@internal@Eigen@@V?$Matrix@M$02$00$0A@$02$00@3@@Eigen@@@?$PlainObjectBase@V?$Matrix@M$02$00$0A@$02$00@Eigen@@@Eigen@@IEAA@AEBV?$DenseBase@V?$CwiseNullaryOp@U?$scalar_constant_op@M@internal@Eigen@@V?$Matrix@M$02$00$0A@$02$00@3@@Eigen@@@1@@Z
	??$?0V?$CwiseNullaryOp@U?$scalar_constant_op@M@internal@Eigen@@V?$Matrix@M$03$00$0A@$03$00@3@@Eigen@@@?$Quaternion@M$0A@@Eigen@@QEAA@AEBV?$MatrixBase@V?$CwiseNullaryOp@U?$scalar_constant_op@M@internal@Eigen@@V?$Matrix@M$03$00$0A@$03$00@3@@Eigen@@@1@@Z
	??$?0V?$CwiseNullaryOp@U?$scalar_constant_op@M@internal@Eigen@@V?$Matrix@M$03$03$0A@$03$03@3@@Eigen@@@?$Matrix@M$03$03$0A@$03$03@Eigen@@QEAA@AEBU?$EigenBase@V?$CwiseNullaryOp@U?$scalar_constant_op@M@internal@Eigen@@V?$Matrix@M$03$03$0A@$03$03@3@@Eigen@@@1@@Z
	??$?0V?$CwiseNullaryOp@U?$scalar_constant_op@M@internal@Eigen@@V?$Matrix@M$03$03$0A@$03$03@3@@Eigen@@@?$PlainObjectBase@V?$Matrix@M$03$03$0A@$03$03@Eigen@@@Eigen@@IEAA@AEBV?$DenseBase@V?$CwiseNullaryOp@U?$scalar_constant_op@M@internal@Eigen@@V?$Matrix@M$03$03$0A@$03$03@3@@Eigen@@@1@@Z
	??$?0V?$CwiseNullaryOp@U?$scalar_identity_op@M@internal@Eigen@@V?$Matrix@M$03$03$0A@$03$03@3@@Eigen@@@?$Matrix@M$03$03$0A@$03$03@Eigen@@QEAA@AEBU?$EigenBase@V?$CwiseNullaryOp@U?$scalar_identity_op@M@internal@Eigen@@V?$Matrix@M$03$03$0A@$03$03@3@@Eigen@@@1@@Z
	??$?0V?$CwiseNullaryOp@U?$scalar_identity_op@M@internal@Eigen@@V?$Matrix@M$03$03$0A@$03$03@3@@Eigen@@@?$PlainObjectBase@V?$Matrix@M$03$03$0A@$03$03@Eigen@@@Eigen@@IEAA@AEBV?$DenseBase@V?$CwiseNullaryOp@U?$scalar_identity_op@M@internal@Eigen@@V?$Matrix@M$03$03$0A@$03$03@3@@Eigen@@@1@@Z
	??$?0V?$CwiseNullaryOp@U?$scalar_identity_op@M@internal@Eigen@@V?$Matrix@M$03$03$0A@$03$03@3@@Eigen@@@?$Transform@M$02$01$0A@@Eigen@@QEAA@AEBU?$EigenBase@V?$CwiseNullaryOp@U?$scalar_identity_op@M@internal@Eigen@@V?$Matrix@M$03$03$0A@$03$03@3@@Eigen@@@1@@Z
	??$?0V?$Matrix@M$01$00$0A@$01$00@Eigen@@@?$allocator@U_Container_proxy@std@@@std@@QEAA@AEBV?$allocator@V?$Matrix@M$01$00$0A@$01$00@Eigen@@@1@@Z
	??$?0V?$Matrix@M$02$00$0A@$02$00@Eigen@@@?$AngleAxis@M@Eigen@@QEAA@AEBMAEBV?$MatrixBase@V?$Matrix@M$02$00$0A@$02$00@Eigen@@@1@@Z
	??$?0V?$Matrix@M$02$00$0A@$02$00@Eigen@@@?$allocator@U_Container_proxy@std@@@std@@QEAA@AEBV?$allocator@V?$Matrix@M$02$00$0A@$02$00@Eigen@@@1@@Z
	??$?0V?$Matrix@M$03$00$0A@$03$00@Eigen@@@?$allocator@U_Container_proxy@std@@@std@@QEAA@AEBV?$allocator@V?$Matrix@M$03$00$0A@$03$00@Eigen@@@1@@Z
	??$?0V?$MatrixBase@V?$Block@$$CBV?$CwiseNullaryOp@U?$scalar_identity_op@M@internal@Eigen@@V?$Matrix@M$02$02$0A@$02$02@3@@Eigen@@$02$00$0A@@Eigen@@@Eigen@@@?$Matrix@M$02$00$0A@$02$00@Eigen@@QEAA@AEBV?$MatrixBase@V?$Block@$$CBV?$CwiseNullaryOp@U?$scalar_identity_op@M@internal@Eigen@@V?$Matrix@M$02$02$0A@$02$02@3@@Eigen@@$02$00$0A@@Eigen@@@1@@Z
	??$?0V?$MatrixBase@V?$Matrix@M$02$00$0A@$02$00@Eigen@@@Eigen@@@?$Matrix@M$02$00$0A@$02$00@Eigen@@QEAA@AEBV?$MatrixBase@V?$Matrix@M$02$00$0A@$02$00@Eigen@@@1@@Z
	??$?0V?$Product@V?$Block@$$CBV?$Matrix@M$03$03$0A@$03$03@Eigen@@$02$02$0A@@Eigen@@V12@$0A@@Eigen@@@?$Matrix@M$02$02$0A@$02$02@Eigen@@QEAA@AEBV?$Product@V?$Block@$$CBV?$Matrix@M$03$03$0A@$03$03@Eigen@@$02$02$0A@@Eigen@@V12@$0A@@1@@Z
	??$?0V?$Product@V?$Block@V?$Matrix@M$03$03$0A@$03$03@Eigen@@$02$02$0A@@Eigen@@V?$CwiseUnaryOp@U?$scalar_opposite_op@M@internal@Eigen@@$$CBV?$Matrix@M$02$00$0A@$02$00@3@@2@$0A@@Eigen@@@?$Matrix@M$02$00$0A@$02$00@Eigen@@QEAA@AEBV?$Product@V?$Block@V?$Matrix@M$03$03$0A@$03$03@Eigen@@$02$02$0A@@Eigen@@V?$CwiseUnaryOp@U?$scalar_opposite_op@M@internal@Eigen@@$$CBV?$Matrix@M$02$00$0A@$02$00@3@@2@$0A@@1@@Z
	??$?0V?$Product@V?$Block@V?$Matrix@M$03$03$0A@$03$03@Eigen@@$02$02$0A@@Eigen@@V?$Matrix@M$02$00$0A@$02$00@2@$0A@@Eigen@@@?$Matrix@M$02$00$0A@$02$00@Eigen@@QEAA@AEBV?$Product@V?$Block@V?$Matrix@M$03$03$0A@$03$03@Eigen@@$02$02$0A@@Eigen@@V?$Matrix@M$02$00$0A@$02$00@2@$0A@@1@@Z
	??$?0V?$Product@V?$Block@V?$Matrix@M$03$03$0A@$03$03@Eigen@@$02$02$0A@@Eigen@@V?$Matrix@M$02$02$0A@$02$02@2@$0A@@Eigen@@@?$Matrix@M$02$02$0A@$02$02@Eigen@@QEAA@AEBV?$Product@V?$Block@V?$Matrix@M$03$03$0A@$03$03@Eigen@@$02$02$0A@@Eigen@@V?$Matrix@M$02$02$0A@$02$02@2@$0A@@1@@Z
	??$?0V?$allocator@D@std@@$$V@?$_Compressed_pair@V?$allocator@D@std@@V?$_String_val@U?$_Simple_types@D@std@@@2@$00@std@@QEAA@U_One_then_variadic_args_t@1@$$QEAV?$allocator@D@1@@Z
	??$?0V?$allocator@D@std@@X@?$_String_alloc@U?$_String_base_types@DV?$allocator@D@std@@@std@@@std@@QEAA@$$QEAV?$allocator@D@1@@Z
	??$?0V?$allocator@I@std@@$$V@?$_Compressed_pair@V?$allocator@I@std@@V?$_Vector_val@U?$_Simple_types@I@std@@@2@$00@std@@QEAA@U_One_then_variadic_args_t@1@$$QEAV?$allocator@I@1@@Z
	??$?0V?$allocator@I@std@@X@?$_Vector_alloc@U?$_Vec_base_types@IV?$allocator@I@std@@@std@@@std@@QEAA@$$QEAV?$allocator@I@1@@Z
	??$?0V?$allocator@V?$Matrix@M$02$00$0A@$02$00@Eigen@@@std@@$$V@?$_Compressed_pair@V?$allocator@V?$Matrix@M$02$00$0A@$02$00@Eigen@@@std@@V?$_Vector_val@U?$_Simple_types@V?$Matrix@M$02$00$0A@$02$00@Eigen@@@std@@@2@$00@std@@QEAA@U_One_then_variadic_args_t@1@$$QEAV?$allocator@V?$Matrix@M$02$00$0A@$02$00@Eigen@@@1@@Z
	??$?0V?$allocator@V?$Matrix@M$02$00$0A@$02$00@Eigen@@@std@@X@?$_Vector_alloc@U?$_Vec_base_types@V?$Matrix@M$02$00$0A@$02$00@Eigen@@V?$allocator@V?$Matrix@M$02$00$0A@$02$00@Eigen@@@std@@@std@@@std@@QEAA@$$QEAV?$allocator@V?$Matrix@M$02$00$0A@$02$00@Eigen@@@1@@Z
	??$?0V?$allocator@V?$Matrix@M$03$00$0A@$03$00@Eigen@@@std@@$$V@?$_Compressed_pair@V?$allocator@V?$Matrix@M$03$00$0A@$03$00@Eigen@@@std@@V?$_Vector_val@U?$_Simple_types@V?$Matrix@M$03$00$0A@$03$00@Eigen@@@std@@@2@$00@std@@QEAA@U_One_then_variadic_args_t@1@$$QEAV?$allocator@V?$Matrix@M$03$00$0A@$03$00@Eigen@@@1@@Z
	??$?0V?$allocator@V?$Matrix@M$03$00$0A@$03$00@Eigen@@@std@@X@?$_Vector_alloc@U?$_Vec_base_types@V?$Matrix@M$03$00$0A@$03$00@Eigen@@V?$allocator@V?$Matrix@M$03$00$0A@$03$00@Eigen@@@std@@@std@@@std@@QEAA@$$QEAV?$allocator@V?$Matrix@M$03$00$0A@$03$00@Eigen@@@1@@Z
	??$?0VVertexAttribute@Tucano@@@?$allocator@U_Container_proxy@std@@@std@@QEAA@AEBV?$allocator@VVertexAttribute@Tucano@@@1@@Z
	??$?0_J_J@?$Matrix@M$02$00$0A@$02$00@Eigen@@QEAA@AEB_J0@Z
	??$?4V?$CwiseBinaryOp@U?$scalar_product_op@MM@internal@Eigen@@$$CBV?$CwiseNullaryOp@U?$scalar_constant_op@M@internal@Eigen@@$$CBV?$Matrix@M$02$00$0A@$02$00@3@@3@$$CBV?$Matrix@M$02$00$0A@$02$00@3@@Eigen@@@?$MatrixBase@V?$Block@V?$Matrix@M$03$00$0A@$03$00@Eigen@@$02$00$0A@@Eigen@@@Eigen@@QEAAAEAV?$Block@V?$Matrix@M$03$00$0A@$03$00@Eigen@@$02$00$0A@@1@AEBV?$DenseBase@V?$CwiseBinaryOp@U?$scalar_product_op@MM@internal@Eigen@@$$CBV?$CwiseNullaryOp@U?$scalar_constant_op@M@internal@Eigen@@$$CBV?$Matrix@M$02$00$0A@$02$00@3@@3@$$CBV?$Matrix@M$02$00$0A@$02$00@3@@Eigen@@@1@@Z
	??$?4V?$CwiseBinaryOp@U?$scalar_quotient_op@MM@internal@Eigen@@$$CBV?$Matrix@M$02$00$0A@$02$00@3@$$CBV?$CwiseNullaryOp@U?$scalar_constant_op@M@internal@Eigen@@$$CBV?$Matrix@M$02$00$0A@$02$00@3@@3@@Eigen@@@?$Matrix@M$02$00$0A@$02$00@Eigen@@QEAAAEAV01@AEBV?$DenseBase@V?$CwiseBinaryOp@U?$scalar_quotient_op@MM@internal@Eigen@@$$CBV?$Matrix@M$02$00$0A@$02$00@3@$$CBV?$CwiseNullaryOp@U?$scalar_constant_op@M@internal@Eigen@@$$CBV?$Matrix@M$02$00$0A@$02$00@3@@3@@Eigen@@@1@@Z
	??$?4V?$CwiseBinaryOp@U?$scalar_quotient_op@MM@internal@Eigen@@$$CBV?$Matrix@M$03$00$0A@$03$00@3@$$CBV?$CwiseNullaryOp@U?$scalar_constant_op@M@internal@Eigen@@$$CBV?$Matrix@M$03$00$0A@$03$00@3@@3@@Eigen@@@?$Matrix@M$03$00$0A@$03$00@Eigen@@QEAAAEAV01@AEBV?$DenseBase@V?$CwiseBinaryOp@U?$scalar_quotient_op@MM@internal@Eigen@@$$CBV?$Matrix@M$03$00$0A@$03$00@3@$$CBV?$CwiseNullaryOp@U?$scalar_constant_op@M@internal@Eigen@@$$CBV?$Matrix@M$03$00$0A@$03$00@3@@3@@Eigen@@@1@@Z
	??$?4V?$CwiseBinaryOp@U?$scalar_quotient_op@MM@internal@Eigen@@$$CBV?$Matrix@M$03$00$0A@$03$00@3@$$CBV?$CwiseNullaryOp@U?$scalar_constant_op@M@internal@Eigen@@$$CBV?$Matrix@M$03$00$0A@$03$00@3@@3@@Eigen@@@?$QuaternionBase@V?$Quaternion@M$0A@@Eigen@@@Eigen@@QEAAAEAV?$Quaternion@M$0A@@1@AEBV?$MatrixBase@V?$CwiseBinaryOp@U?$scalar_quotient_op@MM@internal@Eigen@@$$CBV?$Matrix@M$03$00$0A@$03$00@3@$$CBV?$CwiseNullaryOp@U?$scalar_constant_op@M@internal@Eigen@@$$CBV?$Matrix@M$03$00$0A@$03$00@3@@3@@Eigen@@@1@@Z
	??$?4V?$CwiseBinaryOp@U?$scalar_sum_op@MM@internal@Eigen@@$$CBV?$ArrayWrapper@$$CBV?$CwiseBinaryOp@U?$scalar_product_op@MM@internal@Eigen@@$$CBV?$Matrix@M$02$00$0A@$02$00@3@$$CBV43@@Eigen@@@3@$$CBV?$CwiseNullaryOp@U?$scalar_constant_op@M@internal@Eigen@@$$CBV?$Array@M$02$00$0A@$02$00@3@@3@@Eigen@@@?$MatrixBase@V?$Diagonal@V?$Matrix@M$02$02$0A@$02$02@Eigen@@$0A@@Eigen@@@Eigen@@QEAAAEAV?$Diagonal@V?$Matrix@M$02$02$0A@$02$02@Eigen@@$0A@@1@AEBV?$DenseBase@V?$CwiseBinaryOp@U?$scalar_sum_op@MM@internal@Eigen@@$$CBV?$ArrayWrapper@$$CBV?$CwiseBinaryOp@U?$scalar_product_op@MM@internal@Eigen@@$$CBV?$Matrix@M$02$00$0A@$02$00@3@$$CBV43@@Eigen@@@3@$$CBV?$CwiseNullaryOp@U?$scalar_constant_op@M@internal@Eigen@@$$CBV?$Array@M$02$00$0A@$02$00@3@@3@@Eigen@@@1@@Z
	??$?4V?$CwiseBinaryOp@U?$scalar_sum_op@MM@internal@Eigen@@$$CBV?$Matrix@M$02$00$0A@$02$00@3@$$CBV43@@Eigen@@@?$Matrix@M$02$00$0A@$02$00@Eigen@@QEAAAEAV01@AEBV?$DenseBase@V?$CwiseBinaryOp@U?$scalar_sum_op@MM@internal@Eigen@@$$CBV?$Matrix@M$02$00$0A@$02$00@3@$$CBV43@@Eigen@@@1@@Z
	??$?4V?$CwiseBinaryOp@U?$scalar_sum_op@MM@internal@Eigen@@$$CBV?$Product@V?$Block@$$CBV?$Matrix@M$03$03$0A@$03$03@Eigen@@$02$02$0A@@Eigen@@V?$Block@$$CBV?$Matrix@M$03$03$0A@$03$03@Eigen@@$02$00$00@2@$0A@@3@$$CBV?$Block@$$CBV?$Matrix@M$03$03$0A@$03$03@Eigen@@$02$00$00@3@@Eigen@@@?$MatrixBase@V?$Block@V?$Matrix@M$03$03$0A@$03$03@Eigen@@$02$00$00@Eigen@@@Eigen@@QEAAAEAV?$Block@V?$Matrix@M$03$03$0A@$03$03@Eigen@@$02$00$00@1@AEBV?$DenseBase@V?$CwiseBinaryOp@U?$scalar_sum_op@MM@internal@Eigen@@$$CBV?$Product@V?$Block@$$CBV?$Matrix@M$03$03$0A@$03$03@Eigen@@$02$02$0A@@Eigen@@V?$Block@$$CBV?$Matrix@M$03$03$0A@$03$03@Eigen@@$02$00$00@2@$0A@@3@$$CBV?$Block@$$CBV?$Matrix@M$03$03$0A@$03$03@Eigen@@$02$00$00@3@@Eigen@@@1@@Z
	??$?4V?$CwiseNullaryOp@U?$scalar_constant_op@M@internal@Eigen@@V?$Matrix@M$00$02$00$00$02@3@@Eigen@@@?$MatrixBase@V?$Block@V?$Matrix@M$03$03$0A@$03$03@Eigen@@$00$02$0A@@Eigen@@@Eigen@@QEAAAEAV?$Block@V?$Matrix@M$03$03$0A@$03$03@Eigen@@$00$02$0A@@1@AEBV?$DenseBase@V?$CwiseNullaryOp@U?$scalar_constant_op@M@internal@Eigen@@V?$Matrix@M$00$02$00$00$02@3@@Eigen@@@1@@Z
	??$?4V?$CwiseNullaryOp@U?$scalar_constant_op@M@internal@Eigen@@V?$Matrix@M$02$00$0A@$02$00@3@@Eigen@@@?$Matrix@M$02$00$0A@$02$00@Eigen@@QEAAAEAV01@AEBV?$DenseBase@V?$CwiseNullaryOp@U?$scalar_constant_op@M@internal@Eigen@@V?$Matrix@M$02$00$0A@$02$00@3@@Eigen@@@1@@Z
	??$?4V?$CwiseNullaryOp@U?$scalar_constant_op@M@internal@Eigen@@V?$Matrix@M$03$00$0A@$03$00@3@@Eigen@@@?$Matrix@M$03$00$0A@$03$00@Eigen@@QEAAAEAV01@AEBV?$DenseBase@V?$CwiseNullaryOp@U?$scalar_constant_op@M@internal@Eigen@@V?$Matrix@M$03$00$0A@$03$00@3@@Eigen@@@1@@Z
	??$?4V?$CwiseNullaryOp@U?$scalar_constant_op@M@internal@Eigen@@V?$Matrix@M$03$00$0A@$03$00@3@@Eigen@@@?$QuaternionBase@V?$Quaternion@M$0A@@Eigen@@@Eigen@@QEAAAEAV?$Quaternion@M$0A@@1@AEBV?$MatrixBase@V?$CwiseNullaryOp@U?$scalar_constant_op@M@internal@Eigen@@V?$Matrix@M$03$00$0A@$03$00@3@@Eigen@@@1@@Z
	??$?4V?$CwiseNullaryOp@U?$scalar_identity_op@M@internal@Eigen@@V?$Matrix@M$03$03$0A@$03$03@3@@Eigen@@@?$Matrix@M$03$03$0A@$03$03@Eigen@@QEAAAEAV01@AEBV?$DenseBase@V?$CwiseNullaryOp@U?$scalar_identity_op@M@internal@Eigen@@V?$Matrix@M$03$03$0A@$03$03@3@@Eigen@@@1@@Z
	??$?4V?$Product@V?$Block@$$CBV?$Matrix@M$03$03$0A@$03$03@Eigen@@$02$02$0A@@Eigen@@V12@$0A@@Eigen@@@?$MatrixBase@V?$Block@V?$Matrix@M$03$03$0A@$03$03@Eigen@@$02$02$0A@@Eigen@@@Eigen@@QEAAAEAV?$Block@V?$Matrix@M$03$03$0A@$03$03@Eigen@@$02$02$0A@@1@AEBV?$DenseBase@V?$Product@V?$Block@$$CBV?$Matrix@M$03$03$0A@$03$03@Eigen@@$02$02$0A@@Eigen@@V12@$0A@@Eigen@@@1@@Z
	??$?4V?$Product@V?$Block@V?$Matrix@M$03$03$0A@$03$03@Eigen@@$02$02$0A@@Eigen@@V?$DiagonalWrapper@$$CBV?$Matrix@M$02$00$0A@$02$00@Eigen@@@2@$00@Eigen@@@?$NoAlias@V?$Block@V?$Matrix@M$03$03$0A@$03$03@Eigen@@$02$02$0A@@Eigen@@VMatrixBase@2@@Eigen@@QEAAAEAV?$Block@V?$Matrix@M$03$03$0A@$03$03@Eigen@@$02$02$0A@@1@AEBV?$MatrixBase@V?$Product@V?$Block@V?$Matrix@M$03$03$0A@$03$03@Eigen@@$02$02$0A@@Eigen@@V?$DiagonalWrapper@$$CBV?$Matrix@M$02$00$0A@$02$00@Eigen@@@2@$00@Eigen@@@1@@Z
	??$?4V?$Product@V?$Block@V?$Matrix@M$03$03$0A@$03$03@Eigen@@$02$02$0A@@Eigen@@V?$Matrix@M$02$02$0A@$02$02@2@$0A@@Eigen@@@?$MatrixBase@V?$Block@V?$Matrix@M$03$03$0A@$03$03@Eigen@@$02$02$0A@@Eigen@@@Eigen@@QEAAAEAV?$Block@V?$Matrix@M$03$03$0A@$03$03@Eigen@@$02$02$0A@@1@AEBV?$DenseBase@V?$Product@V?$Block@V?$Matrix@M$03$03$0A@$03$03@Eigen@@$02$02$0A@@Eigen@@V?$Matrix@M$02$02$0A@$02$02@2@$0A@@Eigen@@@1@@Z
	??$?5DU?$char_traits@D@std@@V?$allocator@D@1@@std@@YAAEAV?$basic_istream@DU?$char_traits@D@std@@@0@$$QEAV10@AEAV?$basic_string@DU?$char_traits@D@std@@V?$allocator@D@2@@0@@Z
	??$?5DU?$char_traits@D@std@@V?$allocator@D@1@@std@@YAAEAV?$basic_istream@DU?$char_traits@D@std@@@0@AEAV10@AEAV?$basic_string@DU?$char_traits@D@std@@V?$allocator@D@2@@0@@Z
	??$?6DU?$char_traits@D@std@@V?$allocator@D@1@@std@@YAAEAV?$basic_ostream@DU?$char_traits@D@std@@@0@AEAV10@AEBV?$basic_string@DU?$char_traits@D@std@@V?$allocator@D@2@@0@@Z
	??$?6U?$char_traits@D@std@@@std@@YAAEAV?$basic_ostream@DU?$char_traits@D@std@@@0@AEAV10@PEBD@Z
	??$?6U?$char_traits@D@std@@@std@@YAAEAV?$basic_ostream@DU?$char_traits@D@std@@@0@AEAV10@PEBE@Z
	??$?8I@std@@YA_NAEBV?$shared_ptr@I@0@$$T@Z
	??$?9DD@std@@YA_NAEBV?$allocator@D@0@0@Z
	??$?9I@std@@YA_NAEBV?$shared_ptr@I@0@$$T@Z
	??$?9V?$Block@V?$Matrix@M$02$00$0A@$02$00@Eigen@@$0?0$00$0A@@Eigen@@@?$MatrixBase@V?$Matrix@M$01$00$0A@$01$00@Eigen@@@Eigen@@QEBA_NAEBV?$MatrixBase@V?$Block@V?$Matrix@M$02$00$0A@$02$00@Eigen@@$0?0$00$0A@@Eigen@@@1@@Z
	??$?9V?$CwiseNullaryOp@U?$scalar_identity_op@M@internal@Eigen@@V?$Matrix@M$03$03$0A@$03$03@3@@Eigen@@@?$MatrixBase@V?$Matrix@M$03$03$0A@$03$03@Eigen@@@Eigen@@QEBA_NAEBV?$MatrixBase@V?$CwiseNullaryOp@U?$scalar_identity_op@M@internal@Eigen@@V?$Matrix@M$03$03$0A@$03$03@3@@Eigen@@@1@@Z
	??$?DI$0A@@?$shared_ptr@I@std@@QEBAAEAIXZ
	??$?DM@?$MatrixBase@V?$Matrix@M$02$00$0A@$02$00@Eigen@@@Eigen@@QEBA?BV?$CwiseBinaryOp@U?$scalar_product_op@MM@internal@Eigen@@$$CBV?$Matrix@M$02$00$0A@$02$00@3@$$CBV?$CwiseNullaryOp@U?$scalar_constant_op@M@internal@Eigen@@$$CBV?$Matrix@M$02$00$0A@$02$00@3@@3@@1@AEBM@Z
	??$?DM@Eigen@@YA?BV?$CwiseBinaryOp@U?$scalar_product_op@MM@internal@Eigen@@$$CBV?$CwiseNullaryOp@U?$scalar_constant_op@M@internal@Eigen@@$$CBV?$Matrix@M$02$00$0A@$02$00@3@@3@$$CBV?$Matrix@M$02$00$0A@$02$00@3@@0@AEBMAEBV?$MatrixBase@V?$Matrix@M$02$00$0A@$02$00@Eigen@@@0@@Z
	??$?DV?$AngleAxis@M@Eigen@@@?$Transform@M$02$01$0A@@Eigen@@QEBA?AV01@AEBV?$RotationBase@V?$AngleAxis@M@Eigen@@$02@1@@Z
	??$?DV?$Block@$$CBV?$Matrix@M$03$03$0A@$03$03@Eigen@@$02$00$00@Eigen@@@?$MatrixBase@V?$Block@$$CBV?$Matrix@M$03$03$0A@$03$03@Eigen@@$02$02$0A@@Eigen@@@Eigen@@QEBA?BV?$Product@V?$Block@$$CBV?$Matrix@M$03$03$0A@$03$03@Eigen@@$02$02$0A@@Eigen@@V?$Block@$$CBV?$Matrix@M$03$03$0A@$03$03@Eigen@@$02$00$00@2@$0A@@1@AEBV?$MatrixBase@V?$Block@$$CBV?$Matrix@M$03$03$0A@$03$03@Eigen@@$02$00$00@Eigen@@@1@@Z
	??$?DV?$Block@$$CBV?$Matrix@M$03$03$0A@$03$03@Eigen@@$02$02$0A@@Eigen@@@?$MatrixBase@V?$Block@$$CBV?$Matrix@M$03$03$0A@$03$03@Eigen@@$02$02$0A@@Eigen@@@Eigen@@QEBA?BV?$Product@V?$Block@$$CBV?$Matrix@M$03$03$0A@$03$03@Eigen@@$02$02$0A@@Eigen@@V12@$0A@@1@AEBV01@@Z
	??$?DV?$CwiseUnaryOp@U?$scalar_opposite_op@M@internal@Eigen@@$$CBV?$Matrix@M$02$00$0A@$02$00@3@@Eigen@@@?$MatrixBase@V?$Block@V?$Matrix@M$03$03$0A@$03$03@Eigen@@$02$02$0A@@Eigen@@@Eigen@@QEBA?BV?$Product@V?$Block@V?$Matrix@M$03$03$0A@$03$03@Eigen@@$02$02$0A@@Eigen@@V?$CwiseUnaryOp@U?$scalar_opposite_op@M@internal@Eigen@@$$CBV?$Matrix@M$02$00$0A@$02$00@3@@2@$0A@@1@AEBV?$MatrixBase@V?$CwiseUnaryOp@U?$scalar_opposite_op@M@internal@Eigen@@$$CBV?$Matrix@M$02$00$0A@$02$00@3@@Eigen@@@1@@Z
	??$?DV?$DiagonalWrapper@$$CBV?$Matrix@M$02$00$0A@$02$00@Eigen@@@Eigen@@@?$MatrixBase@V?$Block@V?$Matrix@M$03$03$0A@$03$03@Eigen@@$02$02$0A@@Eigen@@@Eigen@@QEBA?BV?$Product@V?$Block@V?$Matrix@M$03$03$0A@$03$03@Eigen@@$02$02$0A@@Eigen@@V?$DiagonalWrapper@$$CBV?$Matrix@M$02$00$0A@$02$00@Eigen@@@2@$00@1@AEBV?$DiagonalBase@V?$DiagonalWrapper@$$CBV?$Matrix@M$02$00$0A@$02$00@Eigen@@@Eigen@@@1@@Z
	??$?DV?$Matrix@M$02$00$0A@$02$00@Eigen@@@?$MatrixBase@V?$Block@V?$Matrix@M$03$03$0A@$03$03@Eigen@@$02$02$0A@@Eigen@@@Eigen@@QEBA?BV?$Product@V?$Block@V?$Matrix@M$03$03$0A@$03$03@Eigen@@$02$02$0A@@Eigen@@V?$Matrix@M$02$00$0A@$02$00@2@$0A@@1@AEBV?$MatrixBase@V?$Matrix@M$02$00$0A@$02$00@Eigen@@@1@@Z
	??$?DV?$Matrix@M$02$00$0A@$02$00@Eigen@@@?$RotationBase@V?$Quaternion@M$0A@@Eigen@@$02@Eigen@@QEBA?AV?$Matrix@M$02$00$0A@$02$00@1@AEBU?$EigenBase@V?$Matrix@M$02$00$0A@$02$00@Eigen@@@1@@Z
	??$?DV?$Matrix@M$02$02$0A@$02$02@Eigen@@@?$MatrixBase@V?$Block@V?$Matrix@M$03$03$0A@$03$03@Eigen@@$02$02$0A@@Eigen@@@Eigen@@QEBA?BV?$Product@V?$Block@V?$Matrix@M$03$03$0A@$03$03@Eigen@@$02$02$0A@@Eigen@@V?$Matrix@M$02$02$0A@$02$02@2@$0A@@1@AEBV?$MatrixBase@V?$Matrix@M$02$02$0A@$02$02@Eigen@@@1@@Z
	??$?DV?$Quaternion@M$0A@@Eigen@@@?$QuaternionBase@V?$Quaternion@M$0A@@Eigen@@@Eigen@@QEBA?AV?$Quaternion@M$0A@@1@AEBV01@@Z
	??$?GV?$Matrix@M$01$00$0A@$01$00@Eigen@@@?$MatrixBase@V?$Matrix@M$01$00$0A@$01$00@Eigen@@@Eigen@@QEBA?BV?$CwiseBinaryOp@U?$scalar_difference_op@MM@internal@Eigen@@$$CBV?$Matrix@M$01$00$0A@$01$00@3@$$CBV43@@1@AEBV01@@Z
	??$?GV?$Matrix@M$02$00$0A@$02$00@Eigen@@@?$MatrixBase@V?$Matrix@M$02$00$0A@$02$00@Eigen@@@Eigen@@QEBA?BV?$CwiseBinaryOp@U?$scalar_difference_op@MM@internal@Eigen@@$$CBV?$Matrix@M$02$00$0A@$02$00@3@$$CBV43@@1@AEBV01@@Z
	??$?H$00@?$BaseExpr@V?$SymbolExpr@Usymbolic_last_tag@internal@Eigen@@@symbolic@Eigen@@@symbolic@Eigen@@QEBA?AV?$AddExpr@V?$SymbolExpr@Usymbolic_last_tag@internal@Eigen@@@symbolic@Eigen@@V?$ValueExpr@V?$FixedInt@$00@internal@Eigen@@@23@@12@V?$FixedInt@$00@internal@2@@Z
	??$?HDU?$char_traits@D@std@@V?$allocator@D@1@@std@@YA?AV?$basic_string@DU?$char_traits@D@std@@V?$allocator@D@2@@0@$$QEAV10@AEBV10@@Z
	??$?HDU?$char_traits@D@std@@V?$allocator@D@1@@std@@YA?AV?$basic_string@DU?$char_traits@D@std@@V?$allocator@D@2@@0@$$QEAV10@QEBD@Z
	??$?HDU?$char_traits@D@std@@V?$allocator@D@1@@std@@YA?AV?$basic_string@DU?$char_traits@D@std@@V?$allocator@D@2@@0@AEBV10@0@Z
	??$?HDU?$char_traits@D@std@@V?$allocator@D@1@@std@@YA?AV?$basic_string@DU?$char_traits@D@std@@V?$allocator@D@2@@0@AEBV10@QEBD@Z
	??$?HDU?$char_traits@D@std@@V?$allocator@D@1@@std@@YA?AV?$basic_string@DU?$char_traits@D@std@@V?$allocator@D@2@@0@QEBDAEBV10@@Z
	??$?HM@?$ArrayBase@V?$ArrayWrapper@$$CBV?$CwiseBinaryOp@U?$scalar_product_op@MM@internal@Eigen@@$$CBV?$Matrix@M$02$00$0A@$02$00@3@$$CBV43@@Eigen@@@Eigen@@@Eigen@@QEBA?BV?$CwiseBinaryOp@U?$scalar_sum_op@MM@internal@Eigen@@$$CBV?$ArrayWrapper@$$CBV?$CwiseBinaryOp@U?$scalar_product_op@MM@internal@Eigen@@$$CBV?$Matrix@M$02$00$0A@$02$00@3@$$CBV43@@Eigen@@@3@$$CBV?$CwiseNullaryOp@U?$scalar_constant_op@M@internal@Eigen@@$$CBV?$Array@M$02$00$0A@$02$00@3@@3@@1@AEBM@Z
	??$?HV?$Block@$$CBV?$Matrix@M$03$03$0A@$03$03@Eigen@@$02$00$00@Eigen@@@?$MatrixBase@V?$Product@V?$Block@$$CBV?$Matrix@M$03$03$0A@$03$03@Eigen@@$02$02$0A@@Eigen@@V?$Block@$$CBV?$Matrix@M$03$03$0A@$03$03@Eigen@@$02$00$00@2@$0A@@Eigen@@@Eigen@@QEBA?BV?$CwiseBinaryOp@U?$scalar_sum_op@MM@internal@Eigen@@$$CBV?$Product@V?$Block@$$CBV?$Matrix@M$03$03$0A@$03$03@Eigen@@$02$02$0A@@Eigen@@V?$Block@$$CBV?$Matrix@M$03$03$0A@$03$03@Eigen@@$02$00$00@2@$0A@@3@$$CBV?$Block@$$CBV?$Matrix@M$03$03$0A@$03$03@Eigen@@$02$00$00@3@@1@AEBV?$MatrixBase@V?$Block@$$CBV?$Matrix@M$03$03$0A@$03$03@Eigen@@$02$00$00@Eigen@@@1@@Z
	??$?HV?$CwiseBinaryOp@U?$scalar_product_op@MM@internal@Eigen@@$$CBV?$CwiseNullaryOp@U?$scalar_constant_op@M@internal@Eigen@@$$CBV?$Matrix@M$02$00$0A@$02$00@3@@3@$$CBV?$Matrix@M$02$00$0A@$02$00@3@@Eigen@@@?$MatrixBase@V?$Matrix@M$02$00$0A@$02$00@Eigen@@@Eigen@@QEBA?BV?$CwiseBinaryOp@U?$scalar_sum_op@MM@internal@Eigen@@$$CBV?$Matrix@M$02$00$0A@$02$00@3@$$CBV?$CwiseBinaryOp@U?$scalar_product_op@MM@internal@Eigen@@$$CBV?$CwiseNullaryOp@U?$scalar_constant_op@M@internal@Eigen@@$$CBV?$Matrix@M$02$00$0A@$02$00@3@@3@$$CBV?$Matrix@M$02$00$0A@$02$00@3@@3@@1@AEBV?$MatrixBase@V?$CwiseBinaryOp@U?$scalar_product_op@MM@internal@Eigen@@$$CBV?$CwiseNullaryOp@U?$scalar_constant_op@M@internal@Eigen@@$$CBV?$Matrix@M$02$00$0A@$02$00@3@@3@$$CBV?$Matrix@M$02$00$0A@$02$00@3@@Eigen@@@1@@Z
	??$?HV?$Matrix@M$02$00$0A@$02$00@Eigen@@@?$MatrixBase@V?$CwiseBinaryOp@U?$scalar_sum_op@MM@internal@Eigen@@$$CBV?$Matrix@M$02$00$0A@$02$00@3@$$CBV?$CwiseBinaryOp@U?$scalar_product_op@MM@internal@Eigen@@$$CBV?$CwiseNullaryOp@U?$scalar_constant_op@M@internal@Eigen@@$$CBV?$Matrix@M$02$00$0A@$02$00@3@@3@$$CBV?$Matrix@M$02$00$0A@$02$00@3@@3@@Eigen@@@Eigen@@QEBA?BV?$CwiseBinaryOp@U?$scalar_sum_op@MM@internal@Eigen@@$$CBV?$CwiseBinaryOp@U?$scalar_sum_op@MM@internal@Eigen@@$$CBV?$Matrix@M$02$00$0A@$02$00@3@$$CBV?$CwiseBinaryOp@U?$scalar_product_op@MM@internal@Eigen@@$$CBV?$CwiseNullaryOp@U?$scalar_constant_op@M@internal@Eigen@@$$CBV?$Matrix@M$02$00$0A@$02$00@3@@3@$$CBV?$Matrix@M$02$00$0A@$02$00@3@@3@@3@$$CBV?$Matrix@M$02$00$0A@$02$00@3@@1@AEBV?$MatrixBase@V?$Matrix@M$02$00$0A@$02$00@Eigen@@@1@@Z
	??$?HV?$Matrix@M$02$00$0A@$02$00@Eigen@@@?$MatrixBase@V?$Matrix@M$02$00$0A@$02$00@Eigen@@@Eigen@@QEBA?BV?$CwiseBinaryOp@U?$scalar_sum_op@MM@internal@Eigen@@$$CBV?$Matrix@M$02$00$0A@$02$00@3@$$CBV43@@1@AEBV01@@Z
	??$?KI@?$MatrixBase@V?$Matrix@M$02$00$0A@$02$00@Eigen@@@Eigen@@QEBA?BV?$CwiseBinaryOp@U?$scalar_quotient_op@MM@internal@Eigen@@$$CBV?$Matrix@M$02$00$0A@$02$00@3@$$CBV?$CwiseNullaryOp@U?$scalar_constant_op@M@internal@Eigen@@$$CBV?$Matrix@M$02$00$0A@$02$00@3@@3@@1@AEBI@Z
	??$?KM@?$MatrixBase@V?$Matrix@M$03$00$0A@$03$00@Eigen@@@Eigen@@QEBA?BV?$CwiseBinaryOp@U?$scalar_quotient_op@MM@internal@Eigen@@$$CBV?$Matrix@M$03$00$0A@$03$00@3@$$CBV?$CwiseNullaryOp@U?$scalar_constant_op@M@internal@Eigen@@$$CBV?$Matrix@M$03$00$0A@$03$00@3@@3@@1@AEBM@Z
	??$?R_J@?$nullary_wrapper@HU?$scalar_constant_op@H@internal@Eigen@@$00$0A@$0A@@internal@Eigen@@QEBAHAEBU?$scalar_constant_op@H@12@_J1@Z
	??$?R_J@?$nullary_wrapper@MU?$scalar_constant_op@M@internal@Eigen@@$00$0A@$0A@@internal@Eigen@@QEBAMAEBU?$scalar_constant_op@M@12@_J1@Z
	??$?R_J@?$nullary_wrapper@MU?$scalar_identity_op@M@internal@Eigen@@$0A@$0A@$00@internal@Eigen@@QEBAMAEBU?$scalar_identity_op@M@12@_J1@Z
	??$?R_J@?$scalar_identity_op@M@internal@Eigen@@QEBA?BM_J0@Z
	??$?XV?$Matrix@M$02$02$0A@$02$02@Eigen@@@?$MatrixBase@V?$Block@V?$Matrix@M$03$03$0A@$03$03@Eigen@@$02$02$0A@@Eigen@@@Eigen@@QEAAAEAV?$Block@V?$Matrix@M$03$03$0A@$03$03@Eigen@@$02$02$0A@@1@AEBU?$EigenBase@V?$Matrix@M$02$02$0A@$02$02@Eigen@@@1@@Z
	??$?YV?$Matrix@M$02$00$0A@$02$00@Eigen@@@?$MatrixBase@V?$Matrix@M$02$00$0A@$02$00@Eigen@@@Eigen@@QEAAAEAV?$Matrix@M$02$00$0A@$02$00@1@AEBV01@@Z
	??$?YV?$Product@V?$Block@V?$Matrix@M$03$03$0A@$03$03@Eigen@@$02$02$0A@@Eigen@@V?$CwiseUnaryOp@U?$scalar_opposite_op@M@internal@Eigen@@$$CBV?$Matrix@M$02$00$0A@$02$00@3@@2@$0A@@Eigen@@@?$MatrixBase@V?$Block@V?$Matrix@M$03$03$0A@$03$03@Eigen@@$02$00$0A@@Eigen@@@Eigen@@QEAAAEAV?$Block@V?$Matrix@M$03$03$0A@$03$03@Eigen@@$02$00$0A@@1@AEBV?$MatrixBase@V?$Product@V?$Block@V?$Matrix@M$03$03$0A@$03$03@Eigen@@$02$02$0A@@Eigen@@V?$CwiseUnaryOp@U?$scalar_opposite_op@M@internal@Eigen@@$$CBV?$Matrix@M$02$00$0A@$02$00@3@@2@$0A@@Eigen@@@1@@Z
	??$?YV?$Product@V?$Block@V?$Matrix@M$03$03$0A@$03$03@Eigen@@$02$02$0A@@Eigen@@V?$Matrix@M$02$00$0A@$02$00@2@$0A@@Eigen@@@?$MatrixBase@V?$Block@V?$Matrix@M$03$03$0A@$03$03@Eigen@@$02$00$0A@@Eigen@@@Eigen@@QEAAAEAV?$Block@V?$Matrix@M$03$03$0A@$03$03@Eigen@@$02$00$0A@@1@AEBV?$MatrixBase@V?$Product@V?$Block@V?$Matrix@M$03$03$0A@$03$03@Eigen@@$02$02$0A@@Eigen@@V?$Matrix@M$02$00$0A@$02$00@2@$0A@@Eigen@@@1@@Z
	??$NullaryExpr@U?$scalar_constant_op@H@internal@Eigen@@@?$DenseBase@V?$Matrix@H$01$00$0A@$01$00@Eigen@@@Eigen@@SA?BV?$CwiseNullaryOp@U?$scalar_constant_op@H@internal@Eigen@@V?$Matrix@H$01$00$0A@$01$00@3@@1@_J0AEBU?$scalar_constant_op@H@internal@1@@Z
	??$NullaryExpr@U?$scalar_constant_op@M@internal@Eigen@@@?$DenseBase@V?$Block@V?$Matrix@M$03$03$0A@$03$03@Eigen@@$00$02$0A@@Eigen@@@Eigen@@SA?BV?$CwiseNullaryOp@U?$scalar_constant_op@M@internal@Eigen@@V?$Matrix@M$00$02$00$00$02@3@@1@_J0AEBU?$scalar_constant_op@M@internal@1@@Z
	??$NullaryExpr@U?$scalar_constant_op@M@internal@Eigen@@@?$DenseBase@V?$Matrix@M$02$00$0A@$02$00@Eigen@@@Eigen@@SA?BV?$CwiseNullaryOp@U?$scalar_constant_op@M@internal@Eigen@@V?$Matrix@M$02$00$0A@$02$00@3@@1@_J0AEBU?$scalar_constant_op@M@internal@1@@Z
	??$NullaryExpr@U?$scalar_constant_op@M@internal@Eigen@@@?$DenseBase@V?$Matrix@M$02$02$0A@$02$02@Eigen@@@Eigen@@SA?BV?$CwiseNullaryOp@U?$scalar_constant_op@M@internal@Eigen@@V?$Matrix@M$02$02$0A@$02$02@3@@1@_J0AEBU?$scalar_constant_op@M@internal@1@@Z
	??$NullaryExpr@U?$scalar_constant_op@M@internal@Eigen@@@?$DenseBase@V?$Matrix@M$03$00$0A@$03$00@Eigen@@@Eigen@@SA?BV?$CwiseNullaryOp@U?$scalar_constant_op@M@internal@Eigen@@V?$Matrix@M$03$00$0A@$03$00@3@@1@_J0AEBU?$scalar_constant_op@M@internal@1@@Z
	??$NullaryExpr@U?$scalar_constant_op@M@internal@Eigen@@@?$DenseBase@V?$Matrix@M$03$03$0A@$03$03@Eigen@@@Eigen@@SA?BV?$CwiseNullaryOp@U?$scalar_constant_op@M@internal@Eigen@@V?$Matrix@M$03$03$0A@$03$03@3@@1@_J0AEBU?$scalar_constant_op@M@internal@1@@Z
	??$NullaryExpr@U?$scalar_identity_op@M@internal@Eigen@@@?$DenseBase@V?$Matrix@M$02$02$0A@$02$02@Eigen@@@Eigen@@SA?BV?$CwiseNullaryOp@U?$scalar_identity_op@M@internal@Eigen@@V?$Matrix@M$02$02$0A@$02$02@3@@1@_J0AEBU?$scalar_identity_op@M@internal@1@@Z
	??$NullaryExpr@U?$scalar_identity_op@M@internal@Eigen@@@?$DenseBase@V?$Matrix@M$03$03$0A@$03$03@Eigen@@@Eigen@@SA?BV?$CwiseNullaryOp@U?$scalar_identity_op@M@internal@Eigen@@V?$Matrix@M$03$03$0A@$03$03@3@@1@_J0AEBU?$scalar_identity_op@M@internal@1@@Z
	??$_Adl_verify_range1@PEAVVertexAttribute@Tucano@@PEAV12@@std@@YAXAEBQEAVVertexAttribute@Tucano@@0U?$integral_constant@_N$00@0@@Z
	??$_Adl_verify_range@PEAVVertexAttribute@Tucano@@PEAV12@@std@@YAXAEBQEAVVertexAttribute@Tucano@@0@Z
	??$_Advance1@PEAVVertexAttribute@Tucano@@_J@std@@YAXAEAPEAVVertexAttribute@Tucano@@_JUrandom_access_iterator_tag@0@@Z
	??$_Allocate@$0BA@U_Default_allocate_traits@std@@$0A@@std@@YAPEAX_K@Z
	??$_Allocate_manually_vector_aligned@U_Default_allocate_traits@std@@@std@@YAPEAX_K@Z
	??$_Assign_range@PEAVVertexAttribute@Tucano@@@?$vector@VVertexAttribute@Tucano@@V?$allocator@VVertexAttribute@Tucano@@@std@@@std@@AEAAXPEAVVertexAttribute@Tucano@@0Uforward_iterator_tag@1@@Z
	??$_Convert_size@_K@std@@YA_K_K@Z
	??$_Copy_construct_from@I@?$_Ptr_base@I@std@@IEAAXAEBV?$shared_ptr@I@1@@Z
	??$_Copy_memmove@PEAHPEAH@std@@YAPEAHPEAH00@Z
	??$_Copy_memmove@PEAIPEAI@std@@YAPEAIPEAI00@Z
	??$_Copy_memmove@PEAMPEAM@std@@YAPEAMPEAM00@Z
	??$_Copy_memmove@PEAPEAVElement@GUI@Tucano@@PEAPEAV123@@std@@YAPEAPEAVElement@GUI@Tucano@@PEAPEAV123@00@Z
	??$_Copy_memmove@PEAPEAVShader@Tucano@@PEAPEAV12@@std@@YAPEAPEAVShader@Tucano@@PEAPEAV12@00@Z
	??$_Copy_unchecked1@PEAVVertexAttribute@Tucano@@PEAV12@@std@@YAPEAVVertexAttribute@Tucano@@PEAV12@00U_General_ptr_iterator_tag@0@@Z
	??$_Copy_unchecked@PEAVVertexAttribute@Tucano@@PEAV12@@std@@YAPEAVVertexAttribute@Tucano@@PEAV12@00@Z
	??$_Deallocate@$07$0A@@std@@YAXPEAX_K@Z
	??$_Deallocate@$0BA@$0A@@std@@YAXPEAX_K@Z
	??$_Deallocate_plain@V?$allocator@U_Container_proxy@std@@@std@@$0A@@std@@YAXAEAV?$allocator@U_Container_proxy@std@@@0@QEAU_Container_proxy@0@@Z
	??$_Destroy_range1@V?$allocator@H@std@@@std@@YAXPEAH0AEAV?$allocator@H@0@U?$integral_constant@_N$00@0@@Z
	??$_Destroy_range1@V?$allocator@I@std@@@std@@YAXPEAI0AEAV?$allocator@I@0@U?$integral_constant@_N$00@0@@Z
	??$_Destroy_range1@V?$allocator@M@std@@@std@@YAXPEAM0AEAV?$allocator@M@0@U?$integral_constant@_N$00@0@@Z
	??$_Destroy_range1@V?$allocator@PEAVElement@GUI@Tucano@@@std@@@std@@YAXPEAPEAVElement@GUI@Tucano@@0AEAV?$allocator@PEAVElement@GUI@Tucano@@@0@U?$integral_constant@_N$00@0@@Z
	??$_Destroy_range1@V?$allocator@PEAVShader@Tucano@@@std@@@std@@YAXPEAPEAVShader@Tucano@@0AEAV?$allocator@PEAVShader@Tucano@@@0@U?$integral_constant@_N$00@0@@Z
	??$_Destroy_range1@V?$allocator@V?$Matrix@M$01$00$0A@$01$00@Eigen@@@std@@@std@@YAXPEAV?$Matrix@M$01$00$0A@$01$00@Eigen@@0AEAV?$allocator@V?$Matrix@M$01$00$0A@$01$00@Eigen@@@0@U?$integral_constant@_N$00@0@@Z
	??$_Destroy_range1@V?$allocator@V?$Matrix@M$02$00$0A@$02$00@Eigen@@@std@@@std@@YAXPEAV?$Matrix@M$02$00$0A@$02$00@Eigen@@0AEAV?$allocator@V?$Matrix@M$02$00$0A@$02$00@Eigen@@@0@U?$integral_constant@_N$00@0@@Z
	??$_Destroy_range1@V?$allocator@V?$Matrix@M$03$00$0A@$03$00@Eigen@@@std@@@std@@YAXPEAV?$Matrix@M$03$00$0A@$03$00@Eigen@@0AEAV?$allocator@V?$Matrix@M$03$00$0A@$03$00@Eigen@@@0@U?$integral_constant@_N$00@0@@Z
	??$_Destroy_range1@V?$allocator@VVertexAttribute@Tucano@@@std@@@std@@YAXPEAVVertexAttribute@Tucano@@0AEAV?$allocator@VVertexAttribute@Tucano@@@0@U?$integral_constant@_N$0A@@0@@Z
	??$_Destroy_range@V?$allocator@H@std@@@std@@YAXPEAH0AEAV?$allocator@H@0@@Z
	??$_Destroy_range@V?$allocator@I@std@@@std@@YAXPEAI0AEAV?$allocator@I@0@@Z
	??$_Destroy_range@V?$allocator@M@std@@@std@@YAXPEAM0AEAV?$allocator@M@0@@Z
	??$_Destroy_range@V?$allocator@PEAVElement@GUI@Tucano@@@std@@@std@@YAXPEAPEAVElement@GUI@Tucano@@0AEAV?$allocator@PEAVElement@GUI@Tucano@@@0@@Z
	??$_Destroy_range@V?$allocator@PEAVShader@Tucano@@@std@@@std@@YAXPEAPEAVShader@Tucano@@0AEAV?$allocator@PEAVShader@Tucano@@@0@@Z
	??$_Destroy_range@V?$allocator@V?$Matrix@M$01$00$0A@$01$00@Eigen@@@std@@@std@@YAXPEAV?$Matrix@M$01$00$0A@$01$00@Eigen@@0AEAV?$allocator@V?$Matrix@M$01$00$0A@$01$00@Eigen@@@0@@Z
	??$_Destroy_range@V?$allocator@V?$Matrix@M$02$00$0A@$02$00@Eigen@@@std@@@std@@YAXPEAV?$Matrix@M$02$00$0A@$02$00@Eigen@@0AEAV?$allocator@V?$Matrix@M$02$00$0A@$02$00@Eigen@@@0@@Z
	??$_Destroy_range@V?$allocator@V?$Matrix@M$03$00$0A@$03$00@Eigen@@@std@@@std@@YAXPEAV?$Matrix@M$03$00$0A@$03$00@Eigen@@0AEAV?$allocator@V?$Matrix@M$03$00$0A@$03$00@Eigen@@@0@@Z
	??$_Destroy_range@V?$allocator@VVertexAttribute@Tucano@@@std@@@std@@YAXPEAVVertexAttribute@Tucano@@0AEAV?$allocator@VVertexAttribute@Tucano@@@0@@Z
	??$_Distance1@PEAVVertexAttribute@Tucano@@@std@@YA_JPEAVVertexAttribute@Tucano@@0Urandom_access_iterator_tag@0@@Z
	??$_Emplace_back@AEAV?$Matrix@M$02$00$0A@$02$00@Eigen@@@?$_Uninitialized_backout_al@PEAV?$Matrix@M$02$00$0A@$02$00@Eigen@@V?$allocator@V?$Matrix@M$02$00$0A@$02$00@Eigen@@@std@@@std@@QEAAXAEAV?$Matrix@M$02$00$0A@$02$00@Eigen@@@Z
	??$_Emplace_back@AEAV?$Matrix@M$03$00$0A@$03$00@Eigen@@@?$_Uninitialized_backout_al@PEAV?$Matrix@M$03$00$0A@$03$00@Eigen@@V?$allocator@V?$Matrix@M$03$00$0A@$03$00@Eigen@@@std@@@std@@QEAAXAEAV?$Matrix@M$03$00$0A@$03$00@Eigen@@@Z
	??$_Emplace_back@AEAVVertexAttribute@Tucano@@@?$_Uninitialized_backout_al@PEAVVertexAttribute@Tucano@@V?$allocator@VVertexAttribute@Tucano@@@std@@@std@@QEAAXAEAVVertexAttribute@Tucano@@@Z
	??$_Emplace_back@V?$Matrix@M$01$00$0A@$01$00@Eigen@@@?$_Uninitialized_backout_al@PEAV?$Matrix@M$01$00$0A@$01$00@Eigen@@V?$allocator@V?$Matrix@M$01$00$0A@$01$00@Eigen@@@std@@@std@@QEAAX$$QEAV?$Matrix@M$01$00$0A@$01$00@Eigen@@@Z
	??$_Emplace_back@V?$Matrix@M$02$00$0A@$02$00@Eigen@@@?$_Uninitialized_backout_al@PEAV?$Matrix@M$02$00$0A@$02$00@Eigen@@V?$allocator@V?$Matrix@M$02$00$0A@$02$00@Eigen@@@std@@@std@@QEAAX$$QEAV?$Matrix@M$02$00$0A@$02$00@Eigen@@@Z
	??$_Emplace_back@V?$Matrix@M$03$00$0A@$03$00@Eigen@@@?$_Uninitialized_backout_al@PEAV?$Matrix@M$03$00$0A@$03$00@Eigen@@V?$allocator@V?$Matrix@M$03$00$0A@$03$00@Eigen@@@std@@@std@@QEAAX$$QEAV?$Matrix@M$03$00$0A@$03$00@Eigen@@@Z
	??$_Emplace_back@VVertexAttribute@Tucano@@@?$_Uninitialized_backout_al@PEAVVertexAttribute@Tucano@@V?$allocator@VVertexAttribute@Tucano@@@std@@@std@@QEAAX$$QEAVVertexAttribute@Tucano@@@Z
	??$_Emplace_back_with_unused_capacity@AEBI@?$vector@IV?$allocator@I@std@@@std@@AEAAXAEBI@Z
	??$_Emplace_back_with_unused_capacity@AEBM@?$vector@MV?$allocator@M@std@@@std@@AEAAXAEBM@Z
	??$_Emplace_back_with_unused_capacity@AEBQEAVElement@GUI@Tucano@@@?$vector@PEAVElement@GUI@Tucano@@V?$allocator@PEAVElement@GUI@Tucano@@@std@@@std@@AEAAXAEBQEAVElement@GUI@Tucano@@@Z
	??$_Emplace_back_with_unused_capacity@AEBQEAVShader@Tucano@@@?$vector@PEAVShader@Tucano@@V?$allocator@PEAVShader@Tucano@@@std@@@std@@AEAAXAEBQEAVShader@Tucano@@@Z
	??$_Emplace_back_with_unused_capacity@AEBV?$Matrix@M$01$00$0A@$01$00@Eigen@@@?$vector@V?$Matrix@M$01$00$0A@$01$00@Eigen@@V?$allocator@V?$Matrix@M$01$00$0A@$01$00@Eigen@@@std@@@std@@AEAAXAEBV?$Matrix@M$01$00$0A@$01$00@Eigen@@@Z
	??$_Emplace_back_with_unused_capacity@AEBV?$Matrix@M$02$00$0A@$02$00@Eigen@@@?$vector@V?$Matrix@M$02$00$0A@$02$00@Eigen@@V?$allocator@V?$Matrix@M$02$00$0A@$02$00@Eigen@@@std@@@std@@AEAAXAEBV?$Matrix@M$02$00$0A@$02$00@Eigen@@@Z
	??$_Emplace_back_with_unused_capacity@AEBV?$Matrix@M$03$00$0A@$03$00@Eigen@@@?$vector@V?$Matrix@M$03$00$0A@$03$00@Eigen@@V?$allocator@V?$Matrix@M$03$00$0A@$03$00@Eigen@@@std@@@std@@AEAAXAEBV?$Matrix@M$03$00$0A@$03$00@Eigen@@@Z
	??$_Emplace_back_with_unused_capacity@AEBVVertexAttribute@Tucano@@@?$vector@VVertexAttribute@Tucano@@V?$allocator@VVertexAttribute@Tucano@@@std@@@std@@AEAAXAEBVVertexAttribute@Tucano@@@Z
	??$_Emplace_back_with_unused_capacity@H@?$vector@HV?$allocator@H@std@@@std@@AEAAX$$QEAH@Z
	??$_Emplace_back_with_unused_capacity@I@?$vector@IV?$allocator@I@std@@@std@@AEAAX$$QEAI@Z
	??$_Emplace_back_with_unused_capacity@M@?$vector@MV?$allocator@M@std@@@std@@AEAAX$$QEAM@Z
	??$_Emplace_back_with_unused_capacity@PEAVShader@Tucano@@@?$vector@PEAVShader@Tucano@@V?$allocator@PEAVShader@Tucano@@@std@@@std@@AEAAX$$QEAPEAVShader@Tucano@@@Z
	??$_Emplace_back_with_unused_capacity@V?$Matrix@M$01$00$0A@$01$00@Eigen@@@?$vector@V?$Matrix@M$01$00$0A@$01$00@Eigen@@V?$allocator@V?$Matrix@M$01$00$0A@$01$00@Eigen@@@std@@@std@@AEAAX$$QEAV?$Matrix@M$01$00$0A@$01$00@Eigen@@@Z
	??$_Emplace_back_with_unused_capacity@V?$Matrix@M$02$00$0A@$02$00@Eigen@@@?$vector@V?$Matrix@M$02$00$0A@$02$00@Eigen@@V?$allocator@V?$Matrix@M$02$00$0A@$02$00@Eigen@@@std@@@std@@AEAAX$$QEAV?$Matrix@M$02$00$0A@$02$00@Eigen@@@Z
	??$_Emplace_back_with_unused_capacity@V?$Matrix@M$03$00$0A@$03$00@Eigen@@@?$vector@V?$Matrix@M$03$00$0A@$03$00@Eigen@@V?$allocator@V?$Matrix@M$03$00$0A@$03$00@Eigen@@@std@@@std@@AEAAX$$QEAV?$Matrix@M$03$00$0A@$03$00@Eigen@@@Z
	??$_Emplace_reallocate@AEBI@?$vector@IV?$allocator@I@std@@@std@@QEAAPEAIQEAIAEBI@Z
	??$_Emplace_reallocate@AEBM@?$vector@MV?$allocator@M@std@@@std@@QEAAPEAMQEAMAEBM@Z
	??$_Emplace_reallocate@AEBQEAVElement@GUI@Tucano@@@?$vector@PEAVElement@GUI@Tucano@@V?$allocator@PEAVElement@GUI@Tucano@@@std@@@std@@QEAAPEAPEAVElement@GUI@Tucano@@QEAPEAV234@AEBQEAV234@@Z
	??$_Emplace_reallocate@AEBQEAVShader@Tucano@@@?$vector@PEAVShader@Tucano@@V?$allocator@PEAVShader@Tucano@@@std@@@std@@QEAAPEAPEAVShader@Tucano@@QEAPEAV23@AEBQEAV23@@Z
	??$_Emplace_reallocate@AEBV?$Matrix@M$01$00$0A@$01$00@Eigen@@@?$vector@V?$Matrix@M$01$00$0A@$01$00@Eigen@@V?$allocator@V?$Matrix@M$01$00$0A@$01$00@Eigen@@@std@@@std@@QEAAPEAV?$Matrix@M$01$00$0A@$01$00@Eigen@@QEAV23@AEBV23@@Z
	??$_Emplace_reallocate@AEBV?$Matrix@M$02$00$0A@$02$00@Eigen@@@?$vector@V?$Matrix@M$02$00$0A@$02$00@Eigen@@V?$allocator@V?$Matrix@M$02$00$0A@$02$00@Eigen@@@std@@@std@@QEAAPEAV?$Matrix@M$02$00$0A@$02$00@Eigen@@QEAV23@AEBV23@@Z
	??$_Emplace_reallocate@AEBV?$Matrix@M$03$00$0A@$03$00@Eigen@@@?$vector@V?$Matrix@M$03$00$0A@$03$00@Eigen@@V?$allocator@V?$Matrix@M$03$00$0A@$03$00@Eigen@@@std@@@std@@QEAAPEAV?$Matrix@M$03$00$0A@$03$00@Eigen@@QEAV23@AEBV23@@Z
	??$_Emplace_reallocate@AEBVVertexAttribute@Tucano@@@?$vector@VVertexAttribute@Tucano@@V?$allocator@VVertexAttribute@Tucano@@@std@@@std@@QEAAPEAVVertexAttribute@Tucano@@QEAV23@AEBV23@@Z
	??$_Emplace_reallocate@H@?$vector@HV?$allocator@H@std@@@std@@QEAAPEAHQEAH$$QEAH@Z
	??$_Emplace_reallocate@I@?$vector@IV?$allocator@I@std@@@std@@QEAAPEAIQEAI$$QEAI@Z
	??$_Emplace_reallocate@M@?$vector@MV?$allocator@M@std@@@std@@QEAAPEAMQEAM$$QEAM@Z
	??$_Emplace_reallocate@PEAVShader@Tucano@@@?$vector@PEAVShader@Tucano@@V?$allocator@PEAVShader@Tucano@@@std@@@std@@QEAAPEAPEAVShader@Tucano@@QEAPEAV23@$$QEAPEAV23@@Z
	??$_Emplace_reallocate@V?$Matrix@M$01$00$0A@$01$00@Eigen@@@?$vector@V?$Matrix@M$01$00$0A@$01$00@Eigen@@V?$allocator@V?$Matrix@M$01$00$0A@$01$00@Eigen@@@std@@@std@@QEAAPEAV?$Matrix@M$01$00$0A@$01$00@Eigen@@QEAV23@$$QEAV23@@Z
	??$_Emplace_reallocate@V?$Matrix@M$02$00$0A@$02$00@Eigen@@@?$vector@V?$Matrix@M$02$00$0A@$02$00@Eigen@@V?$allocator@V?$Matrix@M$02$00$0A@$02$00@Eigen@@@std@@@std@@QEAAPEAV?$Matrix@M$02$00$0A@$02$00@Eigen@@QEAV23@$$QEAV23@@Z
	??$_Emplace_reallocate@V?$Matrix@M$03$00$0A@$03$00@Eigen@@@?$vector@V?$Matrix@M$03$00$0A@$03$00@Eigen@@V?$allocator@V?$Matrix@M$03$00$0A@$03$00@Eigen@@@std@@@std@@QEAAPEAV?$Matrix@M$03$00$0A@$03$00@Eigen@@QEAV23@$$QEAV23@@Z
	??$_Enable_shared_from_this1@II@std@@YAXAEBV?$shared_ptr@I@0@PEAIU?$integral_constant@_N$0A@@0@@Z
	??$_Enable_shared_from_this@II@std@@YAXAEBV?$shared_ptr@I@0@PEAI@Z
	??$_Fgetc@D@std@@YA_NAEADPEAU_iobuf@@@Z
	??$_Fputc@D@std@@YA_NDPEAU_iobuf@@@Z
	??$_Get_size_of_n@$00@std@@YA_K_K@Z
	??$_Get_size_of_n@$03@std@@YA_K_K@Z
	??$_Get_size_of_n@$07@std@@YA_K_K@Z
	??$_Get_size_of_n@$0BA@@std@@YA_K_K@Z
	??$_Get_size_of_n@$0FA@@std@@YA_K_K@Z
	??$_Get_size_of_n@$0M@@std@@YA_K_K@Z
	??$_Get_unwrapped@H@std@@YAPEAHQEAH@Z
	??$_Get_unwrapped@I@std@@YAPEAIQEAI@Z
	??$_Get_unwrapped@M@std@@YAPEAMQEAM@Z
	??$_Get_unwrapped@PEAVElement@GUI@Tucano@@@std@@YAPEAPEAVElement@GUI@Tucano@@QEAPEAV123@@Z
	??$_Get_unwrapped@PEAVShader@Tucano@@@std@@YAPEAPEAVShader@Tucano@@QEAPEAV12@@Z
	??$_Get_unwrapped@V?$Matrix@M$01$00$0A@$01$00@Eigen@@@std@@YAPEAV?$Matrix@M$01$00$0A@$01$00@Eigen@@QEAV12@@Z
	??$_Get_unwrapped@V?$Matrix@M$02$00$0A@$02$00@Eigen@@@std@@YAPEAV?$Matrix@M$02$00$0A@$02$00@Eigen@@QEAV12@@Z
	??$_Get_unwrapped@V?$Matrix@M$03$00$0A@$03$00@Eigen@@@std@@YAPEAV?$Matrix@M$03$00$0A@$03$00@Eigen@@QEAV12@@Z
	??$_Get_unwrapped@VVertexAttribute@Tucano@@@std@@YAPEAVVertexAttribute@Tucano@@QEAV12@@Z
	??$_Get_unwrapped_n@H_J$0A@@std@@YAPEAHQEAH_J@Z
	??$_Get_unwrapped_n@I_J$0A@@std@@YAPEAIQEAI_J@Z
	??$_Get_unwrapped_n@M_J$0A@@std@@YAPEAMQEAM_J@Z
	??$_Get_unwrapped_n@PEAVElement@GUI@Tucano@@_J$0A@@std@@YAPEAPEAVElement@GUI@Tucano@@QEAPEAV123@_J@Z
	??$_Get_unwrapped_n@PEAVShader@Tucano@@_J$0A@@std@@YAPEAPEAVShader@Tucano@@QEAPEAV12@_J@Z
	??$_Get_unwrapped_n@V?$Matrix@M$01$00$0A@$01$00@Eigen@@_J$0A@@std@@YAPEAV?$Matrix@M$01$00$0A@$01$00@Eigen@@QEAV12@_J@Z
	??$_Get_unwrapped_n@V?$Matrix@M$02$00$0A@$02$00@Eigen@@_J$0A@@std@@YAPEAV?$Matrix@M$02$00$0A@$02$00@Eigen@@QEAV12@_J@Z
	??$_Get_unwrapped_n@V?$Matrix@M$03$00$0A@$03$00@Eigen@@_J$0A@@std@@YAPEAV?$Matrix@M$03$00$0A@$03$00@Eigen@@QEAV12@_J@Z
	??$_Get_unwrapped_n@VVertexAttribute@Tucano@@_J$0A@@std@@YAPEAVVertexAttribute@Tucano@@QEAV12@_J@Z
	??$_Idl_distance1@PEAHPEAH@std@@YA_JAEBQEAH0Urandom_access_iterator_tag@0@@Z
	??$_Idl_distance1@PEAIPEAI@std@@YA_JAEBQEAI0Urandom_access_iterator_tag@0@@Z
	??$_Idl_distance1@PEAMPEAM@std@@YA_JAEBQEAM0Urandom_access_iterator_tag@0@@Z
	??$_Idl_distance1@PEAPEAVElement@GUI@Tucano@@PEAPEAV123@@std@@YA_JAEBQEAPEAVElement@GUI@Tucano@@0Urandom_access_iterator_tag@0@@Z
	??$_Idl_distance1@PEAPEAVShader@Tucano@@PEAPEAV12@@std@@YA_JAEBQEAPEAVShader@Tucano@@0Urandom_access_iterator_tag@0@@Z
	??$_Idl_distance1@PEAV?$Matrix@M$01$00$0A@$01$00@Eigen@@PEAV12@@std@@YA_JAEBQEAV?$Matrix@M$01$00$0A@$01$00@Eigen@@0Urandom_access_iterator_tag@0@@Z
	??$_Idl_distance1@PEAV?$Matrix@M$02$00$0A@$02$00@Eigen@@PEAV12@@std@@YA_JAEBQEAV?$Matrix@M$02$00$0A@$02$00@Eigen@@0Urandom_access_iterator_tag@0@@Z
	??$_Idl_distance1@PEAV?$Matrix@M$03$00$0A@$03$00@Eigen@@PEAV12@@std@@YA_JAEBQEAV?$Matrix@M$03$00$0A@$03$00@Eigen@@0Urandom_access_iterator_tag@0@@Z
	??$_Idl_distance1@PEAVVertexAttribute@Tucano@@PEAV12@@std@@YA_JAEBQEAVVertexAttribute@Tucano@@0Urandom_access_iterator_tag@0@@Z
	??$_Idl_distance@PEAHPEAH@std@@YA_JAEBQEAH0@Z
	??$_Idl_distance@PEAIPEAI@std@@YA_JAEBQEAI0@Z
	??$_Idl_distance@PEAMPEAM@std@@YA_JAEBQEAM0@Z
	??$_Idl_distance@PEAPEAVElement@GUI@Tucano@@PEAPEAV123@@std@@YA_JAEBQEAPEAVElement@GUI@Tucano@@0@Z
	??$_Idl_distance@PEAPEAVShader@Tucano@@PEAPEAV12@@std@@YA_JAEBQEAPEAVShader@Tucano@@0@Z
	??$_Idl_distance@PEAV?$Matrix@M$01$00$0A@$01$00@Eigen@@PEAV12@@std@@YA_JAEBQEAV?$Matrix@M$01$00$0A@$01$00@Eigen@@0@Z
	??$_Idl_distance@PEAV?$Matrix@M$02$00$0A@$02$00@Eigen@@PEAV12@@std@@YA_JAEBQEAV?$Matrix@M$02$00$0A@$02$00@Eigen@@0@Z
	??$_Idl_distance@PEAV?$Matrix@M$03$00$0A@$03$00@Eigen@@PEAV12@@std@@YA_JAEBQEAV?$Matrix@M$03$00$0A@$03$00@Eigen@@0@Z
	??$_Idl_distance@PEAVVertexAttribute@Tucano@@PEAV12@@std@@YA_JAEBQEAVVertexAttribute@Tucano@@0@Z
	??$_Insert_string@DU?$char_traits@D@std@@_K@std@@YAAEAV?$basic_ostream@DU?$char_traits@D@std@@@0@AEAV10@QEBD_K@Z
	??$_Max_value@_K@std@@YAAEB_KAEB_K0@Z
	??$_Min_value@_K@std@@YAAEB_KAEB_K0@Z
	??$_Move_construct_from@I@?$_Ptr_base@I@std@@IEAAX$$QEAV01@@Z
	??$_Pocca@V?$allocator@D@std@@@std@@YAXAEAV?$allocator@D@0@AEBV10@@Z
	??$_Pocca@V?$allocator@D@std@@@std@@YAXAEAV?$allocator@D@0@AEBV10@U?$integral_constant@_N$0A@@0@@Z
	??$_Pocca@V?$allocator@VVertexAttribute@Tucano@@@std@@@std@@YAXAEAV?$allocator@VVertexAttribute@Tucano@@@0@AEBV10@@Z
	??$_Pocca@V?$allocator@VVertexAttribute@Tucano@@@std@@@std@@YAXAEAV?$allocator@VVertexAttribute@Tucano@@@0@AEBV10@U?$integral_constant@_N$0A@@0@@Z
	??$_Pocma@V?$allocator@D@std@@@std@@YAXAEAV?$allocator@D@0@0@Z
	??$_Pocma@V?$allocator@D@std@@@std@@YAXAEAV?$allocator@D@0@0U?$integral_constant@_N$00@0@@Z
	??$_Ptr_copy_cat@II@std@@YA?AU_Really_trivial_ptr_iterator_tag@0@AEBQEAI0@Z
	??$_Ptr_copy_cat@V?$Matrix@M$02$00$0A@$02$00@Eigen@@V12@@std@@YA?AU_General_ptr_iterator_tag@0@AEBQEAV?$Matrix@M$02$00$0A@$02$00@Eigen@@0@Z
	??$_Ptr_copy_cat@V?$Matrix@M$03$00$0A@$03$00@Eigen@@V12@@std@@YA?AU_General_ptr_iterator_tag@0@AEBQEAV?$Matrix@M$03$00$0A@$03$00@Eigen@@0@Z
	??$_Ptr_copy_cat@VVertexAttribute@Tucano@@V12@@std@@YA?AU_General_ptr_iterator_tag@0@AEBQEAVVertexAttribute@Tucano@@0@Z
	??$_Ptr_move_cat@HH@std@@YA?AU_Really_trivial_ptr_iterator_tag@0@AEBQEAH0@Z
	??$_Ptr_move_cat@II@std@@YA?AU_Really_trivial_ptr_iterator_tag@0@AEBQEAI0@Z
	??$_Ptr_move_cat@MM@std@@YA?AU_Really_trivial_ptr_iterator_tag@0@AEBQEAM0@Z
	??$_Ptr_move_cat@PEAVElement@GUI@Tucano@@PEAV123@@std@@YA?AU_Really_trivial_ptr_iterator_tag@0@AEBQEAPEAVElement@GUI@Tucano@@0@Z
	??$_Ptr_move_cat@PEAVShader@Tucano@@PEAV12@@std@@YA?AU_Really_trivial_ptr_iterator_tag@0@AEBQEAPEAVShader@Tucano@@0@Z
	??$_Ptr_move_cat@V?$Matrix@M$01$00$0A@$01$00@Eigen@@V12@@std@@YA?AU_General_ptr_iterator_tag@0@AEBQEAV?$Matrix@M$01$00$0A@$01$00@Eigen@@0@Z
	??$_Ptr_move_cat@V?$Matrix@M$02$00$0A@$02$00@Eigen@@V12@@std@@YA?AU_General_ptr_iterator_tag@0@AEBQEAV?$Matrix@M$02$00$0A@$02$00@Eigen@@0@Z
	??$_Ptr_move_cat@V?$Matrix@M$03$00$0A@$03$00@Eigen@@V12@@std@@YA?AU_General_ptr_iterator_tag@0@AEBQEAV?$Matrix@M$03$00$0A@$03$00@Eigen@@0@Z
	??$_Ptr_move_cat@VVertexAttribute@Tucano@@V12@@std@@YA?AU_General_ptr_iterator_tag@0@AEBQEAVVertexAttribute@Tucano@@0@Z
	??$_Reallocate_for@V<lambda_66f57f934f28d61049862f64df852ff0>@@PEBD@?$basic_string@DU?$char_traits@D@std@@V?$allocator@D@2@@std@@QEAAAEAV01@_KV<lambda_66f57f934f28d61049862f64df852ff0>@@PEBD@Z
	??$_Reallocate_grow_by@V<lambda_319d5e083f45f90dcdce5dce53cbb275>@@D@?$basic_string@DU?$char_traits@D@std@@V?$allocator@D@2@@std@@QEAAAEAV01@_KV<lambda_319d5e083f45f90dcdce5dce53cbb275>@@D@Z
	??$_Reallocate_grow_by@V<lambda_65e615be2a453ca0576c979606f46740>@@PEBD_K@?$basic_string@DU?$char_traits@D@std@@V?$allocator@D@2@@std@@QEAAAEAV01@_KV<lambda_65e615be2a453ca0576c979606f46740>@@PEBD_K@Z
	??$_Reallocate_grow_by@V<lambda_9013ee9e23efe4882b67eff5b0ecf103>@@$$V@?$basic_string@DU?$char_traits@D@std@@V?$allocator@D@2@@std@@QEAAAEAV01@_KV<lambda_9013ee9e23efe4882b67eff5b0ecf103>@@@Z
	??$_Refancy@PEAD$0A@@std@@YAPEADPEAD@Z
	??$_Seek_wrapped@H@std@@YAXAEAPEAHQEAH@Z
	??$_Seek_wrapped@I@std@@YAXAEAPEAIQEAI@Z
	??$_Seek_wrapped@M@std@@YAXAEAPEAMQEAM@Z
	??$_Seek_wrapped@PEAVElement@GUI@Tucano@@@std@@YAXAEAPEAPEAVElement@GUI@Tucano@@QEAPEAV123@@Z
	??$_Seek_wrapped@PEAVShader@Tucano@@@std@@YAXAEAPEAPEAVShader@Tucano@@QEAPEAV12@@Z
	??$_Seek_wrapped@V?$Matrix@M$01$00$0A@$01$00@Eigen@@@std@@YAXAEAPEAV?$Matrix@M$01$00$0A@$01$00@Eigen@@QEAV12@@Z
	??$_Seek_wrapped@V?$Matrix@M$02$00$0A@$02$00@Eigen@@@std@@YAXAEAPEAV?$Matrix@M$02$00$0A@$02$00@Eigen@@QEAV12@@Z
	??$_Seek_wrapped@V?$Matrix@M$03$00$0A@$03$00@Eigen@@@std@@YAXAEAPEAV?$Matrix@M$03$00$0A@$03$00@Eigen@@QEAV12@@Z
	??$_Seek_wrapped@VVertexAttribute@Tucano@@@std@@YAXAEAPEAVVertexAttribute@Tucano@@QEAV12@@Z
	??$_Set_ptr_rep_and_enable_shared@I@?$shared_ptr@I@std@@AEAAXPEAIPEAV_Ref_count_base@1@@Z
	??$_Setpd@PEAIV<lambda_0eb331034ec64f284d3276d5eb9bc498>@@@?$shared_ptr@I@std@@AEAAXPEAIV<lambda_0eb331034ec64f284d3276d5eb9bc498>@@@Z
	??$_Setpd@PEAIV<lambda_1d192c76f25f01443164c3008efd2f7a>@@@?$shared_ptr@I@std@@AEAAXPEAIV<lambda_1d192c76f25f01443164c3008efd2f7a>@@@Z
	??$_Setpd@PEAIV<lambda_20810bc6c307e6c094ca4ad02a7e2c1b>@@@?$shared_ptr@I@std@@AEAAXPEAIV<lambda_20810bc6c307e6c094ca4ad02a7e2c1b>@@@Z
	??$_Setpd@PEAIV<lambda_297a8ab7031fb168e0f42b0ceacfb411>@@@?$shared_ptr@I@std@@AEAAXPEAIV<lambda_297a8ab7031fb168e0f42b0ceacfb411>@@@Z
	??$_Setpd@PEAIV<lambda_3a3d10b6c3efd1a8679460d8f1128bfe>@@@?$shared_ptr@I@std@@AEAAXPEAIV<lambda_3a3d10b6c3efd1a8679460d8f1128bfe>@@@Z
	??$_Setpd@PEAIV<lambda_42565b2b1ff40c7ec619f6b0eefb855d>@@@?$shared_ptr@I@std@@AEAAXPEAIV<lambda_42565b2b1ff40c7ec619f6b0eefb855d>@@@Z
	??$_Setpd@PEAIV<lambda_59114e1161731b809247c9c49615e8bc>@@@?$shared_ptr@I@std@@AEAAXPEAIV<lambda_59114e1161731b809247c9c49615e8bc>@@@Z
	??$_Setpd@PEAIV<lambda_7817004a68f0dccb72be0e8c40851883>@@@?$shared_ptr@I@std@@AEAAXPEAIV<lambda_7817004a68f0dccb72be0e8c40851883>@@@Z
	??$_Setpd@PEAIV<lambda_b660b692aa17cad6c64c8293c384ce89>@@@?$shared_ptr@I@std@@AEAAXPEAIV<lambda_b660b692aa17cad6c64c8293c384ce89>@@@Z
	??$_Setpd@PEAIV<lambda_ce9ec88a1648543eec0dbc746d8a6173>@@@?$shared_ptr@I@std@@AEAAXPEAIV<lambda_ce9ec88a1648543eec0dbc746d8a6173>@@@Z
	??$_Setpd@PEAIV<lambda_ef956bcedf99c3666c1c91f23b99b48b>@@@?$shared_ptr@I@std@@AEAAXPEAIV<lambda_ef956bcedf99c3666c1c91f23b99b48b>@@@Z
	??$_Traits_compare@U?$char_traits@D@std@@@std@@YAHQEBD_K01@Z
	??$_Traits_find@U?$char_traits@D@std@@@std@@YA_KQEBD_K101@Z
	??$_Traits_find_last_of@U?$char_traits@D@std@@@std@@YA_KQEBD_K101U?$integral_constant@_N$00@0@@Z
	??$_Traits_find_last_of@U?$char_traits@D@std@@@std@@YA_KQEBD_K101U?$integral_constant@_N$0A@@0@@Z
	??$_Ucopy@PEAI@?$vector@IV?$allocator@I@std@@@std@@AEAAPEAIPEAI00@Z
	??$_Ucopy@PEAV?$Matrix@M$02$00$0A@$02$00@Eigen@@@?$vector@V?$Matrix@M$02$00$0A@$02$00@Eigen@@V?$allocator@V?$Matrix@M$02$00$0A@$02$00@Eigen@@@std@@@std@@AEAAPEAV?$Matrix@M$02$00$0A@$02$00@Eigen@@PEAV23@00@Z
	??$_Ucopy@PEAV?$Matrix@M$03$00$0A@$03$00@Eigen@@@?$vector@V?$Matrix@M$03$00$0A@$03$00@Eigen@@V?$allocator@V?$Matrix@M$03$00$0A@$03$00@Eigen@@@std@@@std@@AEAAPEAV?$Matrix@M$03$00$0A@$03$00@Eigen@@PEAV23@00@Z
	??$_Ucopy@PEAVVertexAttribute@Tucano@@@?$vector@VVertexAttribute@Tucano@@V?$allocator@VVertexAttribute@Tucano@@@std@@@std@@AEAAPEAVVertexAttribute@Tucano@@PEAV23@00@Z
	??$_Unfancy@$$CBD@std@@YAPEBDPEBD@Z
	??$_Unfancy@D@std@@YAPEADPEAD@Z
	??$_Unfancy@H@std@@YAPEAHPEAH@Z
	??$_Unfancy@I@std@@YAPEAIPEAI@Z
	??$_Unfancy@M@std@@YAPEAMPEAM@Z
	??$_Unfancy@PEAVElement@GUI@Tucano@@@std@@YAPEAPEAVElement@GUI@Tucano@@PEAPEAV123@@Z
	??$_Unfancy@PEAVShader@Tucano@@@std@@YAPEAPEAVShader@Tucano@@PEAPEAV12@@Z
	??$_Unfancy@U_Container_proxy@std@@@std@@YAPEAU_Container_proxy@0@PEAU10@@Z
	??$_Unfancy@V?$Matrix@M$01$00$0A@$01$00@Eigen@@@std@@YAPEAV?$Matrix@M$01$00$0A@$01$00@Eigen@@PEAV12@@Z
	??$_Unfancy@V?$Matrix@M$02$00$0A@$02$00@Eigen@@@std@@YAPEAV?$Matrix@M$02$00$0A@$02$00@Eigen@@PEAV12@@Z
	??$_Unfancy@V?$Matrix@M$03$00$0A@$03$00@Eigen@@@std@@YAPEAV?$Matrix@M$03$00$0A@$03$00@Eigen@@PEAV12@@Z
	??$_Unfancy@VVertexAttribute@Tucano@@@std@@YAPEAVVertexAttribute@Tucano@@PEAV12@@Z
	??$_Unfancy_maybe_null@I@std@@YAPEAIPEAI@Z
	??$_Unfancy_maybe_null@M@std@@YAPEAMPEAM@Z
	??$_Ungetc@D@std@@YA_NAEBDPEAU_iobuf@@@Z
	??$_Uninitialized_copy@PEAIPEAIV?$allocator@I@std@@@std@@YAPEAIQEAI0PEAIAEAV?$allocator@I@0@@Z
	??$_Uninitialized_copy@PEAV?$Matrix@M$02$00$0A@$02$00@Eigen@@PEAV12@V?$allocator@V?$Matrix@M$02$00$0A@$02$00@Eigen@@@std@@@std@@YAPEAV?$Matrix@M$02$00$0A@$02$00@Eigen@@QEAV12@0PEAV12@AEAV?$allocator@V?$Matrix@M$02$00$0A@$02$00@Eigen@@@0@@Z
	??$_Uninitialized_copy@PEAV?$Matrix@M$03$00$0A@$03$00@Eigen@@PEAV12@V?$allocator@V?$Matrix@M$03$00$0A@$03$00@Eigen@@@std@@@std@@YAPEAV?$Matrix@M$03$00$0A@$03$00@Eigen@@QEAV12@0PEAV12@AEAV?$allocator@V?$Matrix@M$03$00$0A@$03$00@Eigen@@@0@@Z
	??$_Uninitialized_copy@PEAVVertexAttribute@Tucano@@PEAV12@V?$allocator@VVertexAttribute@Tucano@@@std@@@std@@YAPEAVVertexAttribute@Tucano@@QEAV12@0PEAV12@AEAV?$allocator@VVertexAttribute@Tucano@@@0@@Z
	??$_Uninitialized_copy_al_unchecked@IIV?$allocator@I@std@@@std@@YAPEAIQEAI00AEAV?$allocator@I@0@U_Really_trivial_ptr_iterator_tag@0@U?$integral_constant@_N$00@0@@Z
	??$_Uninitialized_copy_al_unchecked@PEAV?$Matrix@M$02$00$0A@$02$00@Eigen@@PEAV12@V?$allocator@V?$Matrix@M$02$00$0A@$02$00@Eigen@@@std@@@std@@YAPEAV?$Matrix@M$02$00$0A@$02$00@Eigen@@PEAV12@QEAV12@1AEAV?$allocator@V?$Matrix@M$02$00$0A@$02$00@Eigen@@@0@U_General_ptr_iterator_tag@0@U_Unused_parameter@0@@Z
	??$_Uninitialized_copy_al_unchecked@PEAV?$Matrix@M$03$00$0A@$03$00@Eigen@@PEAV12@V?$allocator@V?$Matrix@M$03$00$0A@$03$00@Eigen@@@std@@@std@@YAPEAV?$Matrix@M$03$00$0A@$03$00@Eigen@@PEAV12@QEAV12@1AEAV?$allocator@V?$Matrix@M$03$00$0A@$03$00@Eigen@@@0@U_General_ptr_iterator_tag@0@U_Unused_parameter@0@@Z
	??$_Uninitialized_copy_al_unchecked@PEAVVertexAttribute@Tucano@@PEAV12@V?$allocator@VVertexAttribute@Tucano@@@std@@@std@@YAPEAVVertexAttribute@Tucano@@PEAV12@QEAV12@1AEAV?$allocator@VVertexAttribute@Tucano@@@0@U_General_ptr_iterator_tag@0@U_Unused_parameter@0@@Z
	??$_Uninitialized_move@PEAHPEAHV?$allocator@H@std@@@std@@YAPEAHQEAH0PEAHAEAV?$allocator@H@0@@Z
	??$_Uninitialized_move@PEAIPEAIV?$allocator@I@std@@@std@@YAPEAIQEAI0PEAIAEAV?$allocator@I@0@@Z
	??$_Uninitialized_move@PEAMPEAMV?$allocator@M@std@@@std@@YAPEAMQEAM0PEAMAEAV?$allocator@M@0@@Z
	??$_Uninitialized_move@PEAPEAVElement@GUI@Tucano@@PEAPEAV123@V?$allocator@PEAVElement@GUI@Tucano@@@std@@@std@@YAPEAPEAVElement@GUI@Tucano@@QEAPEAV123@0PEAPEAV123@AEAV?$allocator@PEAVElement@GUI@Tucano@@@0@@Z
	??$_Uninitialized_move@PEAPEAVShader@Tucano@@PEAPEAV12@V?$allocator@PEAVShader@Tucano@@@std@@@std@@YAPEAPEAVShader@Tucano@@QEAPEAV12@0PEAPEAV12@AEAV?$allocator@PEAVShader@Tucano@@@0@@Z
	??$_Uninitialized_move@PEAV?$Matrix@M$01$00$0A@$01$00@Eigen@@PEAV12@V?$allocator@V?$Matrix@M$01$00$0A@$01$00@Eigen@@@std@@@std@@YAPEAV?$Matrix@M$01$00$0A@$01$00@Eigen@@QEAV12@0PEAV12@AEAV?$allocator@V?$Matrix@M$01$00$0A@$01$00@Eigen@@@0@@Z
	??$_Uninitialized_move@PEAV?$Matrix@M$02$00$0A@$02$00@Eigen@@PEAV12@V?$allocator@V?$Matrix@M$02$00$0A@$02$00@Eigen@@@std@@@std@@YAPEAV?$Matrix@M$02$00$0A@$02$00@Eigen@@QEAV12@0PEAV12@AEAV?$allocator@V?$Matrix@M$02$00$0A@$02$00@Eigen@@@0@@Z
	??$_Uninitialized_move@PEAV?$Matrix@M$03$00$0A@$03$00@Eigen@@PEAV12@V?$allocator@V?$Matrix@M$03$00$0A@$03$00@Eigen@@@std@@@std@@YAPEAV?$Matrix@M$03$00$0A@$03$00@Eigen@@QEAV12@0PEAV12@AEAV?$allocator@V?$Matrix@M$03$00$0A@$03$00@Eigen@@@0@@Z
	??$_Uninitialized_move@PEAVVertexAttribute@Tucano@@PEAV12@V?$allocator@VVertexAttribute@Tucano@@@std@@@std@@YAPEAVVertexAttribute@Tucano@@QEAV12@0PEAV12@AEAV?$allocator@VVertexAttribute@Tucano@@@0@@Z
	??$_Uninitialized_move_al_unchecked@HHV?$allocator@H@std@@@std@@YAPEAHQEAH00AEAV?$allocator@H@0@U_Really_trivial_ptr_iterator_tag@0@U?$integral_constant@_N$00@0@@Z
	??$_Uninitialized_move_al_unchecked@IIV?$allocator@I@std@@@std@@YAPEAIQEAI00AEAV?$allocator@I@0@U_Really_trivial_ptr_iterator_tag@0@U?$integral_constant@_N$00@0@@Z
	??$_Uninitialized_move_al_unchecked@MMV?$allocator@M@std@@@std@@YAPEAMQEAM00AEAV?$allocator@M@0@U_Really_trivial_ptr_iterator_tag@0@U?$integral_constant@_N$00@0@@Z
	??$_Uninitialized_move_al_unchecked@PEAV?$Matrix@M$01$00$0A@$01$00@Eigen@@PEAV12@V?$allocator@V?$Matrix@M$01$00$0A@$01$00@Eigen@@@std@@@std@@YAPEAV?$Matrix@M$01$00$0A@$01$00@Eigen@@PEAV12@QEAV12@1AEAV?$allocator@V?$Matrix@M$01$00$0A@$01$00@Eigen@@@0@U_General_ptr_iterator_tag@0@U_Unused_parameter@0@@Z
	??$_Uninitialized_move_al_unchecked@PEAV?$Matrix@M$02$00$0A@$02$00@Eigen@@PEAV12@V?$allocator@V?$Matrix@M$02$00$0A@$02$00@Eigen@@@std@@@std@@YAPEAV?$Matrix@M$02$00$0A@$02$00@Eigen@@PEAV12@QEAV12@1AEAV?$allocator@V?$Matrix@M$02$00$0A@$02$00@Eigen@@@0@U_General_ptr_iterator_tag@0@U_Unused_parameter@0@@Z
	??$_Uninitialized_move_al_unchecked@PEAV?$Matrix@M$03$00$0A@$03$00@Eigen@@PEAV12@V?$allocator@V?$Matrix@M$03$00$0A@$03$00@Eigen@@@std@@@std@@YAPEAV?$Matrix@M$03$00$0A@$03$00@Eigen@@PEAV12@QEAV12@1AEAV?$allocator@V?$Matrix@M$03$00$0A@$03$00@Eigen@@@0@U_General_ptr_iterator_tag@0@U_Unused_parameter@0@@Z
	??$_Uninitialized_move_al_unchecked@PEAVElement@GUI@Tucano@@PEAV123@V?$allocator@PEAVElement@GUI@Tucano@@@std@@@std@@YAPEAPEAVElement@GUI@Tucano@@QEAPEAV123@00AEAV?$allocator@PEAVElement@GUI@Tucano@@@0@U_Really_trivial_ptr_iterator_tag@0@U?$integral_constant@_N$00@0@@Z
	??$_Uninitialized_move_al_unchecked@PEAVShader@Tucano@@PEAV12@V?$allocator@PEAVShader@Tucano@@@std@@@std@@YAPEAPEAVShader@Tucano@@QEAPEAV12@00AEAV?$allocator@PEAVShader@Tucano@@@0@U_Really_trivial_ptr_iterator_tag@0@U?$integral_constant@_N$00@0@@Z
	??$_Uninitialized_move_al_unchecked@PEAVVertexAttribute@Tucano@@PEAV12@V?$allocator@VVertexAttribute@Tucano@@@std@@@std@@YAPEAVVertexAttribute@Tucano@@PEAV12@QEAV12@1AEAV?$allocator@VVertexAttribute@Tucano@@@0@U_General_ptr_iterator_tag@0@U_Unused_parameter@0@@Z
	??$_Uninitialized_value_construct_n1@PEAM_KV?$allocator@M@std@@@std@@YAPEAMPEAM_KAEAV?$allocator@M@0@U?$integral_constant@_N$00@0@@Z
	??$_Uninitialized_value_construct_n@PEAM_KV?$allocator@M@std@@@std@@YAPEAMPEAM_KAEAV?$allocator@M@0@@Z
	??$_Verify_range@VVertexAttribute@Tucano@@@std@@YAXQEBVVertexAttribute@Tucano@@0@Z
	??$_Zero_range@PEAM@std@@YAPEAMQEAM0@Z
	??$_init1@V?$MatrixBase@V?$Block@$$CBV?$CwiseNullaryOp@U?$scalar_identity_op@M@internal@Eigen@@V?$Matrix@M$02$02$0A@$02$02@3@@Eigen@@$02$00$0A@@Eigen@@@Eigen@@V?$Block@$$CBV?$CwiseNullaryOp@U?$scalar_identity_op@M@internal@Eigen@@V?$Matrix@M$02$02$0A@$02$02@3@@Eigen@@$02$00$0A@@2@@?$PlainObjectBase@V?$Matrix@M$02$00$0A@$02$00@Eigen@@@Eigen@@IEAAXAEBV?$DenseBase@V?$Block@$$CBV?$CwiseNullaryOp@U?$scalar_identity_op@M@internal@Eigen@@V?$Matrix@M$02$02$0A@$02$02@3@@Eigen@@$02$00$0A@@Eigen@@@1@@Z
	??$_init1@V?$MatrixBase@V?$Matrix@M$02$00$0A@$02$00@Eigen@@@Eigen@@V?$Matrix@M$02$00$0A@$02$00@2@@?$PlainObjectBase@V?$Matrix@M$02$00$0A@$02$00@Eigen@@@Eigen@@IEAAXAEBV?$DenseBase@V?$Matrix@M$02$00$0A@$02$00@Eigen@@@1@@Z
	??$_init1@V?$Product@V?$Block@$$CBV?$Matrix@M$03$03$0A@$03$03@Eigen@@$02$02$0A@@Eigen@@V12@$0A@@Eigen@@V12@@?$PlainObjectBase@V?$Matrix@M$02$02$0A@$02$02@Eigen@@@Eigen@@IEAAXAEBV?$DenseBase@V?$Product@V?$Block@$$CBV?$Matrix@M$03$03$0A@$03$03@Eigen@@$02$02$0A@@Eigen@@V12@$0A@@Eigen@@@1@@Z
	??$_init1@V?$Product@V?$Block@V?$Matrix@M$03$03$0A@$03$03@Eigen@@$02$02$0A@@Eigen@@V?$CwiseUnaryOp@U?$scalar_opposite_op@M@internal@Eigen@@$$CBV?$Matrix@M$02$00$0A@$02$00@3@@2@$0A@@Eigen@@V12@@?$PlainObjectBase@V?$Matrix@M$02$00$0A@$02$00@Eigen@@@Eigen@@IEAAXAEBV?$DenseBase@V?$Product@V?$Block@V?$Matrix@M$03$03$0A@$03$03@Eigen@@$02$02$0A@@Eigen@@V?$CwiseUnaryOp@U?$scalar_opposite_op@M@internal@Eigen@@$$CBV?$Matrix@M$02$00$0A@$02$00@3@@2@$0A@@Eigen@@@1@@Z
	??$_init1@V?$Product@V?$Block@V?$Matrix@M$03$03$0A@$03$03@Eigen@@$02$02$0A@@Eigen@@V?$Matrix@M$02$00$0A@$02$00@2@$0A@@Eigen@@V12@@?$PlainObjectBase@V?$Matrix@M$02$00$0A@$02$00@Eigen@@@Eigen@@IEAAXAEBV?$DenseBase@V?$Product@V?$Block@V?$Matrix@M$03$03$0A@$03$03@Eigen@@$02$02$0A@@Eigen@@V?$Matrix@M$02$00$0A@$02$00@2@$0A@@Eigen@@@1@@Z
	??$_init1@V?$Product@V?$Block@V?$Matrix@M$03$03$0A@$03$03@Eigen@@$02$02$0A@@Eigen@@V?$Matrix@M$02$02$0A@$02$02@2@$0A@@Eigen@@V12@@?$PlainObjectBase@V?$Matrix@M$02$02$0A@$02$02@Eigen@@@Eigen@@IEAAXAEBV?$DenseBase@V?$Product@V?$Block@V?$Matrix@M$03$03$0A@$03$03@Eigen@@$02$02$0A@@Eigen@@V?$Matrix@M$02$02$0A@$02$02@2@$0A@@Eigen@@@1@@Z
	??$_init2@HH@?$PlainObjectBase@V?$Matrix@H$01$00$0A@$01$00@Eigen@@@Eigen@@IEAAXAEBH0PEAH@Z
	??$_init2@MM@?$PlainObjectBase@V?$Matrix@M$01$00$0A@$01$00@Eigen@@@Eigen@@IEAAXAEBM0PEAM@Z
	??$_init2@NN@?$PlainObjectBase@V?$Matrix@M$01$00$0A@$01$00@Eigen@@@Eigen@@IEAAXAEBN0PEAN@Z
	??$_init2@_J_J@?$PlainObjectBase@V?$Matrix@M$02$00$0A@$02$00@Eigen@@@Eigen@@IEAAX_J0PEA_J@Z
	??$_set@V?$CwiseBinaryOp@U?$scalar_quotient_op@MM@internal@Eigen@@$$CBV?$Matrix@M$02$00$0A@$02$00@3@$$CBV?$CwiseNullaryOp@U?$scalar_constant_op@M@internal@Eigen@@$$CBV?$Matrix@M$02$00$0A@$02$00@3@@3@@Eigen@@@?$PlainObjectBase@V?$Matrix@M$02$00$0A@$02$00@Eigen@@@Eigen@@IEAAAEAV?$Matrix@M$02$00$0A@$02$00@1@AEBV?$DenseBase@V?$CwiseBinaryOp@U?$scalar_quotient_op@MM@internal@Eigen@@$$CBV?$Matrix@M$02$00$0A@$02$00@3@$$CBV?$CwiseNullaryOp@U?$scalar_constant_op@M@internal@Eigen@@$$CBV?$Matrix@M$02$00$0A@$02$00@3@@3@@Eigen@@@1@@Z
	??$_set@V?$CwiseBinaryOp@U?$scalar_quotient_op@MM@internal@Eigen@@$$CBV?$Matrix@M$03$00$0A@$03$00@3@$$CBV?$CwiseNullaryOp@U?$scalar_constant_op@M@internal@Eigen@@$$CBV?$Matrix@M$03$00$0A@$03$00@3@@3@@Eigen@@@?$PlainObjectBase@V?$Matrix@M$03$00$0A@$03$00@Eigen@@@Eigen@@IEAAAEAV?$Matrix@M$03$00$0A@$03$00@1@AEBV?$DenseBase@V?$CwiseBinaryOp@U?$scalar_quotient_op@MM@internal@Eigen@@$$CBV?$Matrix@M$03$00$0A@$03$00@3@$$CBV?$CwiseNullaryOp@U?$scalar_constant_op@M@internal@Eigen@@$$CBV?$Matrix@M$03$00$0A@$03$00@3@@3@@Eigen@@@1@@Z
	??$_set@V?$CwiseBinaryOp@U?$scalar_sum_op@MM@internal@Eigen@@$$CBV?$Matrix@M$02$00$0A@$02$00@3@$$CBV43@@Eigen@@@?$PlainObjectBase@V?$Matrix@M$02$00$0A@$02$00@Eigen@@@Eigen@@IEAAAEAV?$Matrix@M$02$00$0A@$02$00@1@AEBV?$DenseBase@V?$CwiseBinaryOp@U?$scalar_sum_op@MM@internal@Eigen@@$$CBV?$Matrix@M$02$00$0A@$02$00@3@$$CBV43@@Eigen@@@1@@Z
	??$_set@V?$CwiseNullaryOp@U?$scalar_constant_op@M@internal@Eigen@@V?$Matrix@M$02$00$0A@$02$00@3@@Eigen@@@?$PlainObjectBase@V?$Matrix@M$02$00$0A@$02$00@Eigen@@@Eigen@@IEAAAEAV?$Matrix@M$02$00$0A@$02$00@1@AEBV?$DenseBase@V?$CwiseNullaryOp@U?$scalar_constant_op@M@internal@Eigen@@V?$Matrix@M$02$00$0A@$02$00@3@@Eigen@@@1@@Z
	??$_set@V?$CwiseNullaryOp@U?$scalar_constant_op@M@internal@Eigen@@V?$Matrix@M$03$00$0A@$03$00@3@@Eigen@@@?$PlainObjectBase@V?$Matrix@M$03$00$0A@$03$00@Eigen@@@Eigen@@IEAAAEAV?$Matrix@M$03$00$0A@$03$00@1@AEBV?$DenseBase@V?$CwiseNullaryOp@U?$scalar_constant_op@M@internal@Eigen@@V?$Matrix@M$03$00$0A@$03$00@3@@Eigen@@@1@@Z
	??$_set@V?$CwiseNullaryOp@U?$scalar_identity_op@M@internal@Eigen@@V?$Matrix@M$03$03$0A@$03$03@3@@Eigen@@@?$PlainObjectBase@V?$Matrix@M$03$03$0A@$03$03@Eigen@@@Eigen@@IEAAAEAV?$Matrix@M$03$03$0A@$03$03@1@AEBV?$DenseBase@V?$CwiseNullaryOp@U?$scalar_identity_op@M@internal@Eigen@@V?$Matrix@M$03$03$0A@$03$03@3@@Eigen@@@1@@Z
	??$_set@V?$Matrix@H$01$00$0A@$01$00@Eigen@@@?$PlainObjectBase@V?$Matrix@H$01$00$0A@$01$00@Eigen@@@Eigen@@IEAAAEAV?$Matrix@H$01$00$0A@$01$00@1@AEBV?$DenseBase@V?$Matrix@H$01$00$0A@$01$00@Eigen@@@1@@Z
	??$_set@V?$Matrix@M$01$00$0A@$01$00@Eigen@@@?$PlainObjectBase@V?$Matrix@M$01$00$0A@$01$00@Eigen@@@Eigen@@IEAAAEAV?$Matrix@M$01$00$0A@$01$00@1@AEBV?$DenseBase@V?$Matrix@M$01$00$0A@$01$00@Eigen@@@1@@Z
	??$_set@V?$Matrix@M$02$00$0A@$02$00@Eigen@@@?$PlainObjectBase@V?$Matrix@M$02$00$0A@$02$00@Eigen@@@Eigen@@IEAAAEAV?$Matrix@M$02$00$0A@$02$00@1@AEBV?$DenseBase@V?$Matrix@M$02$00$0A@$02$00@Eigen@@@1@@Z
	??$_set@V?$Matrix@M$03$00$0A@$03$00@Eigen@@@?$PlainObjectBase@V?$Matrix@M$03$00$0A@$03$00@Eigen@@@Eigen@@IEAAAEAV?$Matrix@M$03$00$0A@$03$00@1@AEBV?$DenseBase@V?$Matrix@M$03$00$0A@$03$00@Eigen@@@1@@Z
	??$_set@V?$Matrix@M$03$03$0A@$03$03@Eigen@@@?$PlainObjectBase@V?$Matrix@M$03$03$0A@$03$03@Eigen@@@Eigen@@IEAAAEAV?$Matrix@M$03$03$0A@$03$03@1@AEBV?$DenseBase@V?$Matrix@M$03$03$0A@$03$03@Eigen@@@1@@Z
	??$_set_noalias@V?$Block@$$CBV?$CwiseNullaryOp@U?$scalar_identity_op@M@internal@Eigen@@V?$Matrix@M$02$02$0A@$02$02@3@@Eigen@@$02$00$0A@@Eigen@@@?$PlainObjectBase@V?$Matrix@M$02$00$0A@$02$00@Eigen@@@Eigen@@IEAAAEAV?$Matrix@M$02$00$0A@$02$00@1@AEBV?$DenseBase@V?$Block@$$CBV?$CwiseNullaryOp@U?$scalar_identity_op@M@internal@Eigen@@V?$Matrix@M$02$02$0A@$02$02@3@@Eigen@@$02$00$0A@@Eigen@@@1@@Z
	??$_set_noalias@V?$CwiseBinaryOp@U?$scalar_difference_op@MM@internal@Eigen@@$$CBV?$Matrix@M$01$00$0A@$01$00@3@$$CBV43@@Eigen@@@?$PlainObjectBase@V?$Matrix@M$01$00$0A@$01$00@Eigen@@@Eigen@@IEAAAEAV?$Matrix@M$01$00$0A@$01$00@1@AEBV?$DenseBase@V?$CwiseBinaryOp@U?$scalar_difference_op@MM@internal@Eigen@@$$CBV?$Matrix@M$01$00$0A@$01$00@3@$$CBV43@@Eigen@@@1@@Z
	??$_set_noalias@V?$CwiseBinaryOp@U?$scalar_product_op@MM@internal@Eigen@@$$CBV?$CwiseNullaryOp@U?$scalar_constant_op@M@internal@Eigen@@$$CBV?$Matrix@M$02$00$0A@$02$00@3@@3@$$CBV?$Matrix@M$02$00$0A@$02$00@3@@Eigen@@@?$PlainObjectBase@V?$Matrix@M$02$00$0A@$02$00@Eigen@@@Eigen@@IEAAAEAV?$Matrix@M$02$00$0A@$02$00@1@AEBV?$DenseBase@V?$CwiseBinaryOp@U?$scalar_product_op@MM@internal@Eigen@@$$CBV?$CwiseNullaryOp@U?$scalar_constant_op@M@internal@Eigen@@$$CBV?$Matrix@M$02$00$0A@$02$00@3@@3@$$CBV?$Matrix@M$02$00$0A@$02$00@3@@Eigen@@@1@@Z
	??$_set_noalias@V?$CwiseBinaryOp@U?$scalar_product_op@MM@internal@Eigen@@$$CBV?$Matrix@M$02$00$0A@$02$00@3@$$CBV?$CwiseNullaryOp@U?$scalar_constant_op@M@internal@Eigen@@$$CBV?$Matrix@M$02$00$0A@$02$00@3@@3@@Eigen@@@?$PlainObjectBase@V?$Matrix@M$02$00$0A@$02$00@Eigen@@@Eigen@@IEAAAEAV?$Matrix@M$02$00$0A@$02$00@1@AEBV?$DenseBase@V?$CwiseBinaryOp@U?$scalar_product_op@MM@internal@Eigen@@$$CBV?$Matrix@M$02$00$0A@$02$00@3@$$CBV?$CwiseNullaryOp@U?$scalar_constant_op@M@internal@Eigen@@$$CBV?$Matrix@M$02$00$0A@$02$00@3@@3@@Eigen@@@1@@Z
	??$_set_noalias@V?$CwiseBinaryOp@U?$scalar_sum_op@MM@internal@Eigen@@$$CBV?$CwiseBinaryOp@U?$scalar_sum_op@MM@internal@Eigen@@$$CBV?$Matrix@M$02$00$0A@$02$00@3@$$CBV?$CwiseBinaryOp@U?$scalar_product_op@MM@internal@Eigen@@$$CBV?$CwiseNullaryOp@U?$scalar_constant_op@M@internal@Eigen@@$$CBV?$Matrix@M$02$00$0A@$02$00@3@@3@$$CBV?$Matrix@M$02$00$0A@$02$00@3@@3@@3@$$CBV?$Matrix@M$02$00$0A@$02$00@3@@Eigen@@@?$PlainObjectBase@V?$Matrix@M$02$00$0A@$02$00@Eigen@@@Eigen@@IEAAAEAV?$Matrix@M$02$00$0A@$02$00@1@AEBV?$DenseBase@V?$CwiseBinaryOp@U?$scalar_sum_op@MM@internal@Eigen@@$$CBV?$CwiseBinaryOp@U?$scalar_sum_op@MM@internal@Eigen@@$$CBV?$Matrix@M$02$00$0A@$02$00@3@$$CBV?$CwiseBinaryOp@U?$scalar_product_op@MM@internal@Eigen@@$$CBV?$CwiseNullaryOp@U?$scalar_constant_op@M@internal@Eigen@@$$CBV?$Matrix@M$02$00$0A@$02$00@3@@3@$$CBV?$Matrix@M$02$00$0A@$02$00@3@@3@@3@$$CBV?$Matrix@M$02$00$0A@$02$00@3@@Eigen@@@1@@Z
	??$_set_noalias@V?$CwiseNullaryOp@U?$scalar_constant_op@H@internal@Eigen@@V?$Matrix@H$01$00$0A@$01$00@3@@Eigen@@@?$PlainObjectBase@V?$Matrix@H$01$00$0A@$01$00@Eigen@@@Eigen@@IEAAAEAV?$Matrix@H$01$00$0A@$01$00@1@AEBV?$DenseBase@V?$CwiseNullaryOp@U?$scalar_constant_op@H@internal@Eigen@@V?$Matrix@H$01$00$0A@$01$00@3@@Eigen@@@1@@Z
	??$_set_noalias@V?$CwiseNullaryOp@U?$scalar_constant_op@M@internal@Eigen@@V?$Matrix@M$02$00$0A@$02$00@3@@Eigen@@@?$PlainObjectBase@V?$Matrix@M$02$00$0A@$02$00@Eigen@@@Eigen@@IEAAAEAV?$Matrix@M$02$00$0A@$02$00@1@AEBV?$DenseBase@V?$CwiseNullaryOp@U?$scalar_constant_op@M@internal@Eigen@@V?$Matrix@M$02$00$0A@$02$00@3@@Eigen@@@1@@Z
	??$_set_noalias@V?$CwiseNullaryOp@U?$scalar_constant_op@M@internal@Eigen@@V?$Matrix@M$03$03$0A@$03$03@3@@Eigen@@@?$PlainObjectBase@V?$Matrix@M$03$03$0A@$03$03@Eigen@@@Eigen@@IEAAAEAV?$Matrix@M$03$03$0A@$03$03@1@AEBV?$DenseBase@V?$CwiseNullaryOp@U?$scalar_constant_op@M@internal@Eigen@@V?$Matrix@M$03$03$0A@$03$03@3@@Eigen@@@1@@Z
	??$_set_noalias@V?$CwiseNullaryOp@U?$scalar_identity_op@M@internal@Eigen@@V?$Matrix@M$03$03$0A@$03$03@3@@Eigen@@@?$PlainObjectBase@V?$Matrix@M$03$03$0A@$03$03@Eigen@@@Eigen@@IEAAAEAV?$Matrix@M$03$03$0A@$03$03@1@AEBV?$DenseBase@V?$CwiseNullaryOp@U?$scalar_identity_op@M@internal@Eigen@@V?$Matrix@M$03$03$0A@$03$03@3@@Eigen@@@1@@Z
	??$_set_noalias@V?$Matrix@M$02$00$0A@$02$00@Eigen@@@?$PlainObjectBase@V?$Matrix@M$02$00$0A@$02$00@Eigen@@@Eigen@@IEAAAEAV?$Matrix@M$02$00$0A@$02$00@1@AEBV?$DenseBase@V?$Matrix@M$02$00$0A@$02$00@Eigen@@@1@@Z
	??$_set_noalias@V?$Product@V?$Block@$$CBV?$Matrix@M$03$03$0A@$03$03@Eigen@@$02$02$0A@@Eigen@@V12@$0A@@Eigen@@@?$PlainObjectBase@V?$Matrix@M$02$02$0A@$02$02@Eigen@@@Eigen@@IEAAAEAV?$Matrix@M$02$02$0A@$02$02@1@AEBV?$DenseBase@V?$Product@V?$Block@$$CBV?$Matrix@M$03$03$0A@$03$03@Eigen@@$02$02$0A@@Eigen@@V12@$0A@@Eigen@@@1@@Z
	??$_set_noalias@V?$Product@V?$Block@V?$Matrix@M$03$03$0A@$03$03@Eigen@@$02$02$0A@@Eigen@@V?$CwiseUnaryOp@U?$scalar_opposite_op@M@internal@Eigen@@$$CBV?$Matrix@M$02$00$0A@$02$00@3@@2@$0A@@Eigen@@@?$PlainObjectBase@V?$Matrix@M$02$00$0A@$02$00@Eigen@@@Eigen@@IEAAAEAV?$Matrix@M$02$00$0A@$02$00@1@AEBV?$DenseBase@V?$Product@V?$Block@V?$Matrix@M$03$03$0A@$03$03@Eigen@@$02$02$0A@@Eigen@@V?$CwiseUnaryOp@U?$scalar_opposite_op@M@internal@Eigen@@$$CBV?$Matrix@M$02$00$0A@$02$00@3@@2@$0A@@Eigen@@@1@@Z
	??$_set_noalias@V?$Product@V?$Block@V?$Matrix@M$03$03$0A@$03$03@Eigen@@$02$02$0A@@Eigen@@V?$Matrix@M$02$00$0A@$02$00@2@$0A@@Eigen@@@?$PlainObjectBase@V?$Matrix@M$02$00$0A@$02$00@Eigen@@@Eigen@@IEAAAEAV?$Matrix@M$02$00$0A@$02$00@1@AEBV?$DenseBase@V?$Product@V?$Block@V?$Matrix@M$03$03$0A@$03$03@Eigen@@$02$02$0A@@Eigen@@V?$Matrix@M$02$00$0A@$02$00@2@$0A@@Eigen@@@1@@Z
	??$_set_noalias@V?$Product@V?$Block@V?$Matrix@M$03$03$0A@$03$03@Eigen@@$02$02$0A@@Eigen@@V?$Matrix@M$02$02$0A@$02$02@2@$0A@@Eigen@@@?$PlainObjectBase@V?$Matrix@M$02$02$0A@$02$02@Eigen@@@Eigen@@IEAAAEAV?$Matrix@M$02$02$0A@$02$02@1@AEBV?$DenseBase@V?$Product@V?$Block@V?$Matrix@M$03$03$0A@$03$03@Eigen@@$02$02$0A@@Eigen@@V?$Matrix@M$02$02$0A@$02$02@2@$0A@@Eigen@@@1@@Z
	??$abs2@M@numext@Eigen@@YAMAEBM@Z
	??$addressof@$$CBV<lambda_0eb331034ec64f284d3276d5eb9bc498>@@@std@@YAPEBV<lambda_0eb331034ec64f284d3276d5eb9bc498>@@AEBV1@@Z
	??$addressof@$$CBV<lambda_1d192c76f25f01443164c3008efd2f7a>@@@std@@YAPEBV<lambda_1d192c76f25f01443164c3008efd2f7a>@@AEBV1@@Z
	??$addressof@$$CBV<lambda_20810bc6c307e6c094ca4ad02a7e2c1b>@@@std@@YAPEBV<lambda_20810bc6c307e6c094ca4ad02a7e2c1b>@@AEBV1@@Z
	??$addressof@$$CBV<lambda_297a8ab7031fb168e0f42b0ceacfb411>@@@std@@YAPEBV<lambda_297a8ab7031fb168e0f42b0ceacfb411>@@AEBV1@@Z
	??$addressof@$$CBV<lambda_3a3d10b6c3efd1a8679460d8f1128bfe>@@@std@@YAPEBV<lambda_3a3d10b6c3efd1a8679460d8f1128bfe>@@AEBV1@@Z
	??$addressof@$$CBV<lambda_42565b2b1ff40c7ec619f6b0eefb855d>@@@std@@YAPEBV<lambda_42565b2b1ff40c7ec619f6b0eefb855d>@@AEBV1@@Z
	??$addressof@$$CBV<lambda_59114e1161731b809247c9c49615e8bc>@@@std@@YAPEBV<lambda_59114e1161731b809247c9c49615e8bc>@@AEBV1@@Z
	??$addressof@$$CBV<lambda_7817004a68f0dccb72be0e8c40851883>@@@std@@YAPEBV<lambda_7817004a68f0dccb72be0e8c40851883>@@AEBV1@@Z
	??$addressof@$$CBV<lambda_b660b692aa17cad6c64c8293c384ce89>@@@std@@YAPEBV<lambda_b660b692aa17cad6c64c8293c384ce89>@@AEBV1@@Z
	??$addressof@$$CBV<lambda_ce9ec88a1648543eec0dbc746d8a6173>@@@std@@YAPEBV<lambda_ce9ec88a1648543eec0dbc746d8a6173>@@AEBV1@@Z
	??$addressof@$$CBV<lambda_ef956bcedf99c3666c1c91f23b99b48b>@@@std@@YAPEBV<lambda_ef956bcedf99c3666c1c91f23b99b48b>@@AEBV1@@Z
	??$addressof@$$CBV?$basic_string@DU?$char_traits@D@std@@V?$allocator@D@2@@std@@@std@@YAPEBV?$basic_string@DU?$char_traits@D@std@@V?$allocator@D@2@@0@AEBV10@@Z
	??$addressof@$$CBV?$codecvt@DDU_Mbstatet@@@std@@@std@@YAPEBV?$codecvt@DDU_Mbstatet@@@0@AEBV10@@Z
	??$addressof@$$CBV?$vector@VVertexAttribute@Tucano@@V?$allocator@VVertexAttribute@Tucano@@@std@@@std@@@std@@YAPEBV?$vector@VVertexAttribute@Tucano@@V?$allocator@VVertexAttribute@Tucano@@@std@@@0@AEBV10@@Z
	??$addressof@PEAD@std@@YAPEAPEADAEAPEAD@Z
	??$addressof@V?$_String_val@U?$_Simple_types@D@std@@@std@@@std@@YAPEAV?$_String_val@U?$_Simple_types@D@std@@@0@AEAV10@@Z
	??$addressof@V?$_Vector_val@U?$_Simple_types@H@std@@@std@@@std@@YAPEAV?$_Vector_val@U?$_Simple_types@H@std@@@0@AEAV10@@Z
	??$addressof@V?$_Vector_val@U?$_Simple_types@I@std@@@std@@@std@@YAPEAV?$_Vector_val@U?$_Simple_types@I@std@@@0@AEAV10@@Z
	??$addressof@V?$_Vector_val@U?$_Simple_types@M@std@@@std@@@std@@YAPEAV?$_Vector_val@U?$_Simple_types@M@std@@@0@AEAV10@@Z
	??$addressof@V?$_Vector_val@U?$_Simple_types@PEAVElement@GUI@Tucano@@@std@@@std@@@std@@YAPEAV?$_Vector_val@U?$_Simple_types@PEAVElement@GUI@Tucano@@@std@@@0@AEAV10@@Z
	??$addressof@V?$_Vector_val@U?$_Simple_types@PEAVShader@Tucano@@@std@@@std@@@std@@YAPEAV?$_Vector_val@U?$_Simple_types@PEAVShader@Tucano@@@std@@@0@AEAV10@@Z
	??$addressof@V?$_Vector_val@U?$_Simple_types@V?$Matrix@M$01$00$0A@$01$00@Eigen@@@std@@@std@@@std@@YAPEAV?$_Vector_val@U?$_Simple_types@V?$Matrix@M$01$00$0A@$01$00@Eigen@@@std@@@0@AEAV10@@Z
	??$addressof@V?$_Vector_val@U?$_Simple_types@V?$Matrix@M$02$00$0A@$02$00@Eigen@@@std@@@std@@@std@@YAPEAV?$_Vector_val@U?$_Simple_types@V?$Matrix@M$02$00$0A@$02$00@Eigen@@@std@@@0@AEAV10@@Z
	??$addressof@V?$_Vector_val@U?$_Simple_types@V?$Matrix@M$03$00$0A@$03$00@Eigen@@@std@@@std@@@std@@YAPEAV?$_Vector_val@U?$_Simple_types@V?$Matrix@M$03$00$0A@$03$00@Eigen@@@std@@@0@AEAV10@@Z
	??$addressof@V?$_Vector_val@U?$_Simple_types@VVertexAttribute@Tucano@@@std@@@std@@@std@@YAPEAV?$_Vector_val@U?$_Simple_types@VVertexAttribute@Tucano@@@std@@@0@AEAV10@@Z
	??$addressof@V?$basic_string@DU?$char_traits@D@std@@V?$allocator@D@2@@std@@@std@@YAPEAV?$basic_string@DU?$char_traits@D@std@@V?$allocator@D@2@@0@AEAV10@@Z
	??$addressof@V?$unique_ptr@USceneImpl@tucanow@@U?$default_delete@USceneImpl@tucanow@@@std@@@std@@@std@@YAPEAV?$unique_ptr@USceneImpl@tucanow@@U?$default_delete@USceneImpl@tucanow@@@std@@@0@AEAV10@@Z
	??$advance@PEAVVertexAttribute@Tucano@@_J@std@@YAXAEAPEAVVertexAttribute@Tucano@@_J@Z
	??$applyThisOnTheRight@V?$Block@V?$Matrix@M$03$03$0A@$03$03@Eigen@@$02$02$0A@@Eigen@@@?$EigenBase@V?$Matrix@M$02$02$0A@$02$02@Eigen@@@Eigen@@QEBAXAEAV?$Block@V?$Matrix@M$03$03$0A@$03$03@Eigen@@$02$02$0A@@1@@Z
	??$assign@PEAVVertexAttribute@Tucano@@X@?$vector@VVertexAttribute@Tucano@@V?$allocator@VVertexAttribute@Tucano@@@std@@@std@@QEAAXPEAVVertexAttribute@Tucano@@0@Z
	??$assignPacket@$0BA@$0BA@T__m128@@@?$generic_dense_assignment_kernel@U?$evaluator@V?$Matrix@M$03$00$0A@$03$00@Eigen@@@internal@Eigen@@U123@U?$assign_op@MM@23@$0A@@internal@Eigen@@QEAAX_J0@Z
	??$assignPacket@$0BA@$0BA@T__m128@@@?$generic_dense_assignment_kernel@U?$evaluator@V?$Matrix@M$03$00$0A@$03$00@Eigen@@@internal@Eigen@@U123@U?$swap_assign_op@M@23@$0A@@internal@Eigen@@QEAAX_J0@Z
	??$assignPacket@$0BA@$0BA@T__m128@@@?$generic_dense_assignment_kernel@U?$evaluator@V?$Matrix@M$03$00$0A@$03$00@Eigen@@@internal@Eigen@@U?$evaluator@V?$CwiseBinaryOp@U?$scalar_quotient_op@MM@internal@Eigen@@$$CBV?$Matrix@M$03$00$0A@$03$00@3@$$CBV?$CwiseNullaryOp@U?$scalar_constant_op@M@internal@Eigen@@$$CBV?$Matrix@M$03$00$0A@$03$00@3@@3@@Eigen@@@23@U?$assign_op@MM@23@$0A@@internal@Eigen@@QEAAX_J0@Z
	??$assignPacket@$0BA@$0BA@T__m128@@@?$generic_dense_assignment_kernel@U?$evaluator@V?$Matrix@M$03$00$0A@$03$00@Eigen@@@internal@Eigen@@U?$evaluator@V?$CwiseNullaryOp@U?$scalar_constant_op@M@internal@Eigen@@V?$Matrix@M$03$00$0A@$03$00@3@@Eigen@@@23@U?$assign_op@MM@23@$0A@@internal@Eigen@@QEAAX_J0@Z
	??$assignPacket@$0BA@$0BA@T__m128@@@?$generic_dense_assignment_kernel@U?$evaluator@V?$Matrix@M$03$00$0A@$03$00@Eigen@@@internal@Eigen@@U?$evaluator@V?$CwiseNullaryOp@U?$scalar_constant_op@M@internal@Eigen@@V?$Matrix@M$03$00$0A@$03$00@3@@Eigen@@@23@U?$div_assign_op@MM@23@$0A@@internal@Eigen@@QEAAX_J0@Z
	??$assignPacket@$0BA@$0BA@T__m128@@@?$generic_dense_assignment_kernel@U?$evaluator@V?$Matrix@M$03$03$0A@$03$03@Eigen@@@internal@Eigen@@U123@U?$assign_op@MM@23@$0A@@internal@Eigen@@QEAAX_J0@Z
	??$assignPacket@$0BA@$0BA@T__m128@@@?$generic_dense_assignment_kernel@U?$evaluator@V?$Matrix@M$03$03$0A@$03$03@Eigen@@@internal@Eigen@@U?$evaluator@V?$CwiseNullaryOp@U?$scalar_constant_op@M@internal@Eigen@@V?$Matrix@M$03$03$0A@$03$03@3@@Eigen@@@23@U?$assign_op@MM@23@$0A@@internal@Eigen@@QEAAX_J0@Z
	??$assignPacket@$0BA@T__m128@@@?$assign_op@MM@internal@Eigen@@QEBAXPEAMAEBT__m128@@@Z
	??$assignPacket@$0BA@T__m128@@@?$div_assign_op@MM@internal@Eigen@@QEBAXPEAMAEBT__m128@@@Z
	??$assignPacketByOuterInner@$0BA@$0BA@T__m128@@@?$generic_dense_assignment_kernel@U?$evaluator@V?$Matrix@M$03$00$0A@$03$00@Eigen@@@internal@Eigen@@U123@U?$assign_op@MM@23@$0A@@internal@Eigen@@QEAAX_J0@Z
	??$assignPacketByOuterInner@$0BA@$0BA@T__m128@@@?$generic_dense_assignment_kernel@U?$evaluator@V?$Matrix@M$03$00$0A@$03$00@Eigen@@@internal@Eigen@@U123@U?$swap_assign_op@M@23@$0A@@internal@Eigen@@QEAAX_J0@Z
	??$assignPacketByOuterInner@$0BA@$0BA@T__m128@@@?$generic_dense_assignment_kernel@U?$evaluator@V?$Matrix@M$03$00$0A@$03$00@Eigen@@@internal@Eigen@@U?$evaluator@V?$CwiseBinaryOp@U?$scalar_quotient_op@MM@internal@Eigen@@$$CBV?$Matrix@M$03$00$0A@$03$00@3@$$CBV?$CwiseNullaryOp@U?$scalar_constant_op@M@internal@Eigen@@$$CBV?$Matrix@M$03$00$0A@$03$00@3@@3@@Eigen@@@23@U?$assign_op@MM@23@$0A@@internal@Eigen@@QEAAX_J0@Z
	??$assignPacketByOuterInner@$0BA@$0BA@T__m128@@@?$generic_dense_assignment_kernel@U?$evaluator@V?$Matrix@M$03$00$0A@$03$00@Eigen@@@internal@Eigen@@U?$evaluator@V?$CwiseNullaryOp@U?$scalar_constant_op@M@internal@Eigen@@V?$Matrix@M$03$00$0A@$03$00@3@@Eigen@@@23@U?$assign_op@MM@23@$0A@@internal@Eigen@@QEAAX_J0@Z
	??$assignPacketByOuterInner@$0BA@$0BA@T__m128@@@?$generic_dense_assignment_kernel@U?$evaluator@V?$Matrix@M$03$00$0A@$03$00@Eigen@@@internal@Eigen@@U?$evaluator@V?$CwiseNullaryOp@U?$scalar_constant_op@M@internal@Eigen@@V?$Matrix@M$03$00$0A@$03$00@3@@Eigen@@@23@U?$div_assign_op@MM@23@$0A@@internal@Eigen@@QEAAX_J0@Z
	??$assignPacketByOuterInner@$0BA@$0BA@T__m128@@@?$generic_dense_assignment_kernel@U?$evaluator@V?$Matrix@M$03$03$0A@$03$03@Eigen@@@internal@Eigen@@U123@U?$assign_op@MM@23@$0A@@internal@Eigen@@QEAAX_J0@Z
	??$assignPacketByOuterInner@$0BA@$0BA@T__m128@@@?$generic_dense_assignment_kernel@U?$evaluator@V?$Matrix@M$03$03$0A@$03$03@Eigen@@@internal@Eigen@@U?$evaluator@V?$CwiseNullaryOp@U?$scalar_constant_op@M@internal@Eigen@@V?$Matrix@M$03$03$0A@$03$03@3@@Eigen@@@23@U?$assign_op@MM@23@$0A@@internal@Eigen@@QEAAX_J0@Z
	??$binaryExpr@U?$scalar_conj_product_op@MM@internal@Eigen@@V?$Matrix@M$02$00$0A@$02$00@3@@?$MatrixBase@V?$Matrix@M$02$00$0A@$02$00@Eigen@@@Eigen@@QEBA?BV?$CwiseBinaryOp@U?$scalar_conj_product_op@MM@internal@Eigen@@$$CBV?$Matrix@M$02$00$0A@$02$00@3@$$CBV43@@1@AEBV01@AEBU?$scalar_conj_product_op@MM@internal@1@@Z
	??$block@$00$02@?$DenseBase@V?$Matrix@M$03$03$0A@$03$03@Eigen@@@Eigen@@QEAA?AV?$Block@V?$Matrix@M$03$03$0A@$03$03@Eigen@@$00$02$0A@@1@_J0@Z
	??$block@$02$00@?$DenseBase@V?$Matrix@M$03$03$0A@$03$03@Eigen@@@Eigen@@QEAA?AV?$Block@V?$Matrix@M$03$03$0A@$03$03@Eigen@@$02$00$0A@@1@_J0@Z
	??$block@$02$02@?$DenseBase@V?$Matrix@M$03$03$0A@$03$03@Eigen@@@Eigen@@QEAA?AV?$Block@V?$Matrix@M$03$03$0A@$03$03@Eigen@@$02$02$0A@@1@_J0@Z
	??$call_assignment@V?$Block@V?$Matrix@M$03$00$0A@$03$00@Eigen@@$02$00$0A@@Eigen@@V?$CwiseBinaryOp@U?$scalar_product_op@MM@internal@Eigen@@$$CBV?$CwiseNullaryOp@U?$scalar_constant_op@M@internal@Eigen@@$$CBV?$Matrix@M$02$00$0A@$02$00@3@@3@$$CBV?$Matrix@M$02$00$0A@$02$00@3@@2@@internal@Eigen@@YAXAEAV?$Block@V?$Matrix@M$03$00$0A@$03$00@Eigen@@$02$00$0A@@1@AEBV?$CwiseBinaryOp@U?$scalar_product_op@MM@internal@Eigen@@$$CBV?$CwiseNullaryOp@U?$scalar_constant_op@M@internal@Eigen@@$$CBV?$Matrix@M$02$00$0A@$02$00@3@@3@$$CBV?$Matrix@M$02$00$0A@$02$00@3@@1@@Z
	??$call_assignment@V?$Block@V?$Matrix@M$03$00$0A@$03$00@Eigen@@$02$00$0A@@Eigen@@V?$CwiseBinaryOp@U?$scalar_product_op@MM@internal@Eigen@@$$CBV?$CwiseNullaryOp@U?$scalar_constant_op@M@internal@Eigen@@$$CBV?$Matrix@M$02$00$0A@$02$00@3@@3@$$CBV?$Matrix@M$02$00$0A@$02$00@3@@2@U?$assign_op@MM@internal@2@@internal@Eigen@@YAXAEAV?$Block@V?$Matrix@M$03$00$0A@$03$00@Eigen@@$02$00$0A@@1@AEBV?$CwiseBinaryOp@U?$scalar_product_op@MM@internal@Eigen@@$$CBV?$CwiseNullaryOp@U?$scalar_constant_op@M@internal@Eigen@@$$CBV?$Matrix@M$02$00$0A@$02$00@3@@3@$$CBV?$Matrix@M$02$00$0A@$02$00@3@@1@AEBU?$assign_op@MM@01@PEAX@Z
	??$call_assignment@V?$Block@V?$Matrix@M$03$03$0A@$03$03@Eigen@@$00$02$0A@@Eigen@@V?$CwiseNullaryOp@U?$scalar_constant_op@M@internal@Eigen@@V?$Matrix@M$00$02$00$00$02@3@@2@@internal@Eigen@@YAXAEAV?$Block@V?$Matrix@M$03$03$0A@$03$03@Eigen@@$00$02$0A@@1@AEBV?$CwiseNullaryOp@U?$scalar_constant_op@M@internal@Eigen@@V?$Matrix@M$00$02$00$00$02@3@@1@@Z
	??$call_assignment@V?$Block@V?$Matrix@M$03$03$0A@$03$03@Eigen@@$00$02$0A@@Eigen@@V?$CwiseNullaryOp@U?$scalar_constant_op@M@internal@Eigen@@V?$Matrix@M$00$02$00$00$02@3@@2@U?$assign_op@MM@internal@2@@internal@Eigen@@YAXAEAV?$Block@V?$Matrix@M$03$03$0A@$03$03@Eigen@@$00$02$0A@@1@AEBV?$CwiseNullaryOp@U?$scalar_constant_op@M@internal@Eigen@@V?$Matrix@M$00$02$00$00$02@3@@1@AEBU?$assign_op@MM@01@PEAX@Z
	??$call_assignment@V?$Block@V?$Matrix@M$03$03$0A@$03$03@Eigen@@$02$00$00@Eigen@@V?$CwiseBinaryOp@U?$scalar_sum_op@MM@internal@Eigen@@$$CBV?$Product@V?$Block@$$CBV?$Matrix@M$03$03$0A@$03$03@Eigen@@$02$02$0A@@Eigen@@V?$Block@$$CBV?$Matrix@M$03$03$0A@$03$03@Eigen@@$02$00$00@2@$0A@@3@$$CBV?$Block@$$CBV?$Matrix@M$03$03$0A@$03$03@Eigen@@$02$00$00@3@@2@@internal@Eigen@@YAXAEAV?$Block@V?$Matrix@M$03$03$0A@$03$03@Eigen@@$02$00$00@1@AEBV?$CwiseBinaryOp@U?$scalar_sum_op@MM@internal@Eigen@@$$CBV?$Product@V?$Block@$$CBV?$Matrix@M$03$03$0A@$03$03@Eigen@@$02$02$0A@@Eigen@@V?$Block@$$CBV?$Matrix@M$03$03$0A@$03$03@Eigen@@$02$00$00@2@$0A@@3@$$CBV?$Block@$$CBV?$Matrix@M$03$03$0A@$03$03@Eigen@@$02$00$00@3@@1@@Z
	??$call_assignment@V?$Block@V?$Matrix@M$03$03$0A@$03$03@Eigen@@$02$00$00@Eigen@@V?$CwiseBinaryOp@U?$scalar_sum_op@MM@internal@Eigen@@$$CBV?$Product@V?$Block@$$CBV?$Matrix@M$03$03$0A@$03$03@Eigen@@$02$02$0A@@Eigen@@V?$Block@$$CBV?$Matrix@M$03$03$0A@$03$03@Eigen@@$02$00$00@2@$0A@@3@$$CBV?$Block@$$CBV?$Matrix@M$03$03$0A@$03$03@Eigen@@$02$00$00@3@@2@U?$assign_op@MM@internal@2@@internal@Eigen@@YAXAEAV?$Block@V?$Matrix@M$03$03$0A@$03$03@Eigen@@$02$00$00@1@AEBV?$CwiseBinaryOp@U?$scalar_sum_op@MM@internal@Eigen@@$$CBV?$Product@V?$Block@$$CBV?$Matrix@M$03$03$0A@$03$03@Eigen@@$02$02$0A@@Eigen@@V?$Block@$$CBV?$Matrix@M$03$03$0A@$03$03@Eigen@@$02$00$00@2@$0A@@3@$$CBV?$Block@$$CBV?$Matrix@M$03$03$0A@$03$03@Eigen@@$02$00$00@3@@1@AEBU?$assign_op@MM@01@PEAX@Z
	??$call_assignment@V?$Block@V?$Matrix@M$03$03$0A@$03$03@Eigen@@$02$00$0A@@Eigen@@V?$Product@V?$Block@V?$Matrix@M$03$03$0A@$03$03@Eigen@@$02$02$0A@@Eigen@@V?$CwiseUnaryOp@U?$scalar_opposite_op@M@internal@Eigen@@$$CBV?$Matrix@M$02$00$0A@$02$00@3@@2@$0A@@2@U?$add_assign_op@MM@internal@2@@internal@Eigen@@YAXAEAV?$Block@V?$Matrix@M$03$03$0A@$03$03@Eigen@@$02$00$0A@@1@AEBV?$Product@V?$Block@V?$Matrix@M$03$03$0A@$03$03@Eigen@@$02$02$0A@@Eigen@@V?$CwiseUnaryOp@U?$scalar_opposite_op@M@internal@Eigen@@$$CBV?$Matrix@M$02$00$0A@$02$00@3@@2@$0A@@1@AEBU?$add_assign_op@MM@01@PEAX@Z
	??$call_assignment@V?$Block@V?$Matrix@M$03$03$0A@$03$03@Eigen@@$02$00$0A@@Eigen@@V?$Product@V?$Block@V?$Matrix@M$03$03$0A@$03$03@Eigen@@$02$02$0A@@Eigen@@V?$Matrix@M$02$00$0A@$02$00@2@$0A@@2@U?$add_assign_op@MM@internal@2@@internal@Eigen@@YAXAEAV?$Block@V?$Matrix@M$03$03$0A@$03$03@Eigen@@$02$00$0A@@1@AEBV?$Product@V?$Block@V?$Matrix@M$03$03$0A@$03$03@Eigen@@$02$02$0A@@Eigen@@V?$Matrix@M$02$00$0A@$02$00@2@$0A@@1@AEBU?$add_assign_op@MM@01@PEAX@Z
	??$call_assignment@V?$Block@V?$Matrix@M$03$03$0A@$03$03@Eigen@@$02$02$0A@@Eigen@@V?$CwiseNullaryOp@U?$scalar_constant_op@M@internal@Eigen@@V?$Matrix@M$02$02$0A@$02$02@3@@2@U?$mul_assign_op@MM@internal@2@@internal@Eigen@@YAXAEAV?$Block@V?$Matrix@M$03$03$0A@$03$03@Eigen@@$02$02$0A@@1@AEBV?$CwiseNullaryOp@U?$scalar_constant_op@M@internal@Eigen@@V?$Matrix@M$02$02$0A@$02$02@3@@1@AEBU?$mul_assign_op@MM@01@PEAX@Z
	??$call_assignment@V?$Block@V?$Matrix@M$03$03$0A@$03$03@Eigen@@$02$02$0A@@Eigen@@V?$Product@V?$Block@$$CBV?$Matrix@M$03$03$0A@$03$03@Eigen@@$02$02$0A@@Eigen@@V12@$0A@@2@@internal@Eigen@@YAXAEAV?$Block@V?$Matrix@M$03$03$0A@$03$03@Eigen@@$02$02$0A@@1@AEBV?$Product@V?$Block@$$CBV?$Matrix@M$03$03$0A@$03$03@Eigen@@$02$02$0A@@Eigen@@V12@$0A@@1@@Z
	??$call_assignment@V?$Block@V?$Matrix@M$03$03$0A@$03$03@Eigen@@$02$02$0A@@Eigen@@V?$Product@V?$Block@$$CBV?$Matrix@M$03$03$0A@$03$03@Eigen@@$02$02$0A@@Eigen@@V12@$0A@@2@U?$assign_op@MM@internal@2@@internal@Eigen@@YAXAEAV?$Block@V?$Matrix@M$03$03$0A@$03$03@Eigen@@$02$02$0A@@1@AEBV?$Product@V?$Block@$$CBV?$Matrix@M$03$03$0A@$03$03@Eigen@@$02$02$0A@@Eigen@@V12@$0A@@1@AEBU?$assign_op@MM@01@PEAX@Z
	??$call_assignment@V?$Block@V?$Matrix@M$03$03$0A@$03$03@Eigen@@$02$02$0A@@Eigen@@V?$Product@V?$Block@V?$Matrix@M$03$03$0A@$03$03@Eigen@@$02$02$0A@@Eigen@@V?$Matrix@M$02$02$0A@$02$02@2@$0A@@2@@internal@Eigen@@YAXAEAV?$Block@V?$Matrix@M$03$03$0A@$03$03@Eigen@@$02$02$0A@@1@AEBV?$Product@V?$Block@V?$Matrix@M$03$03$0A@$03$03@Eigen@@$02$02$0A@@Eigen@@V?$Matrix@M$02$02$0A@$02$02@2@$0A@@1@@Z
	??$call_assignment@V?$Block@V?$Matrix@M$03$03$0A@$03$03@Eigen@@$02$02$0A@@Eigen@@V?$Product@V?$Block@V?$Matrix@M$03$03$0A@$03$03@Eigen@@$02$02$0A@@Eigen@@V?$Matrix@M$02$02$0A@$02$02@2@$0A@@2@U?$assign_op@MM@internal@2@@internal@Eigen@@YAXAEAV?$Block@V?$Matrix@M$03$03$0A@$03$03@Eigen@@$02$02$0A@@1@AEBV?$Product@V?$Block@V?$Matrix@M$03$03$0A@$03$03@Eigen@@$02$02$0A@@Eigen@@V?$Matrix@M$02$02$0A@$02$02@2@$0A@@1@AEBU?$assign_op@MM@01@PEAX@Z
	??$call_assignment@V?$Diagonal@V?$Matrix@M$02$02$0A@$02$02@Eigen@@$0A@@Eigen@@V?$CwiseBinaryOp@U?$scalar_sum_op@MM@internal@Eigen@@$$CBV?$ArrayWrapper@$$CBV?$CwiseBinaryOp@U?$scalar_product_op@MM@internal@Eigen@@$$CBV?$Matrix@M$02$00$0A@$02$00@3@$$CBV43@@Eigen@@@3@$$CBV?$CwiseNullaryOp@U?$scalar_constant_op@M@internal@Eigen@@$$CBV?$Array@M$02$00$0A@$02$00@3@@3@@2@@internal@Eigen@@YAXAEAV?$Diagonal@V?$Matrix@M$02$02$0A@$02$02@Eigen@@$0A@@1@AEBV?$CwiseBinaryOp@U?$scalar_sum_op@MM@internal@Eigen@@$$CBV?$ArrayWrapper@$$CBV?$CwiseBinaryOp@U?$scalar_product_op@MM@internal@Eigen@@$$CBV?$Matrix@M$02$00$0A@$02$00@3@$$CBV43@@Eigen@@@3@$$CBV?$CwiseNullaryOp@U?$scalar_constant_op@M@internal@Eigen@@$$CBV?$Array@M$02$00$0A@$02$00@3@@3@@1@@Z
	??$call_assignment@V?$Diagonal@V?$Matrix@M$02$02$0A@$02$02@Eigen@@$0A@@Eigen@@V?$CwiseBinaryOp@U?$scalar_sum_op@MM@internal@Eigen@@$$CBV?$ArrayWrapper@$$CBV?$CwiseBinaryOp@U?$scalar_product_op@MM@internal@Eigen@@$$CBV?$Matrix@M$02$00$0A@$02$00@3@$$CBV43@@Eigen@@@3@$$CBV?$CwiseNullaryOp@U?$scalar_constant_op@M@internal@Eigen@@$$CBV?$Array@M$02$00$0A@$02$00@3@@3@@2@U?$assign_op@MM@internal@2@@internal@Eigen@@YAXAEAV?$Diagonal@V?$Matrix@M$02$02$0A@$02$02@Eigen@@$0A@@1@AEBV?$CwiseBinaryOp@U?$scalar_sum_op@MM@internal@Eigen@@$$CBV?$ArrayWrapper@$$CBV?$CwiseBinaryOp@U?$scalar_product_op@MM@internal@Eigen@@$$CBV?$Matrix@M$02$00$0A@$02$00@3@$$CBV43@@Eigen@@@3@$$CBV?$CwiseNullaryOp@U?$scalar_constant_op@M@internal@Eigen@@$$CBV?$Array@M$02$00$0A@$02$00@3@@3@@1@AEBU?$assign_op@MM@01@PEAX@Z
	??$call_assignment@V?$Matrix@H$01$00$0A@$01$00@Eigen@@V12@@internal@Eigen@@YAXAEAV?$Matrix@H$01$00$0A@$01$00@1@AEBV21@@Z
	??$call_assignment@V?$Matrix@H$01$00$0A@$01$00@Eigen@@V12@U?$assign_op@HH@internal@2@@internal@Eigen@@YAXAEAV?$Matrix@H$01$00$0A@$01$00@1@AEBV21@AEBU?$assign_op@HH@01@PEAX@Z
	??$call_assignment@V?$Matrix@M$01$00$0A@$01$00@Eigen@@V12@@internal@Eigen@@YAXAEAV?$Matrix@M$01$00$0A@$01$00@1@AEBV21@@Z
	??$call_assignment@V?$Matrix@M$01$00$0A@$01$00@Eigen@@V12@U?$assign_op@MM@internal@2@@internal@Eigen@@YAXAEAV?$Matrix@M$01$00$0A@$01$00@1@AEBV21@AEBU?$assign_op@MM@01@PEAX@Z
	??$call_assignment@V?$Matrix@M$02$00$0A@$02$00@Eigen@@V12@@internal@Eigen@@YAXAEAV?$Matrix@M$02$00$0A@$02$00@1@AEBV21@@Z
	??$call_assignment@V?$Matrix@M$02$00$0A@$02$00@Eigen@@V12@U?$add_assign_op@MM@internal@2@@internal@Eigen@@YAXAEAV?$Matrix@M$02$00$0A@$02$00@1@AEBV21@AEBU?$add_assign_op@MM@01@PEAX@Z
	??$call_assignment@V?$Matrix@M$02$00$0A@$02$00@Eigen@@V12@U?$assign_op@MM@internal@2@@internal@Eigen@@YAXAEAV?$Matrix@M$02$00$0A@$02$00@1@AEBV21@AEBU?$assign_op@MM@01@PEAX@Z
	??$call_assignment@V?$Matrix@M$02$00$0A@$02$00@Eigen@@V12@U?$swap_assign_op@M@internal@2@@internal@Eigen@@YAXAEAV?$Matrix@M$02$00$0A@$02$00@1@AEBV21@AEBU?$swap_assign_op@M@01@PEAX@Z
	??$call_assignment@V?$Matrix@M$02$00$0A@$02$00@Eigen@@V?$CwiseBinaryOp@U?$scalar_quotient_op@MM@internal@Eigen@@$$CBV?$Matrix@M$02$00$0A@$02$00@3@$$CBV?$CwiseNullaryOp@U?$scalar_constant_op@M@internal@Eigen@@$$CBV?$Matrix@M$02$00$0A@$02$00@3@@3@@2@@internal@Eigen@@YAXAEAV?$Matrix@M$02$00$0A@$02$00@1@AEBV?$CwiseBinaryOp@U?$scalar_quotient_op@MM@internal@Eigen@@$$CBV?$Matrix@M$02$00$0A@$02$00@3@$$CBV?$CwiseNullaryOp@U?$scalar_constant_op@M@internal@Eigen@@$$CBV?$Matrix@M$02$00$0A@$02$00@3@@3@@1@@Z
	??$call_assignment@V?$Matrix@M$02$00$0A@$02$00@Eigen@@V?$CwiseBinaryOp@U?$scalar_quotient_op@MM@internal@Eigen@@$$CBV?$Matrix@M$02$00$0A@$02$00@3@$$CBV?$CwiseNullaryOp@U?$scalar_constant_op@M@internal@Eigen@@$$CBV?$Matrix@M$02$00$0A@$02$00@3@@3@@2@U?$assign_op@MM@internal@2@@internal@Eigen@@YAXAEAV?$Matrix@M$02$00$0A@$02$00@1@AEBV?$CwiseBinaryOp@U?$scalar_quotient_op@MM@internal@Eigen@@$$CBV?$Matrix@M$02$00$0A@$02$00@3@$$CBV?$CwiseNullaryOp@U?$scalar_constant_op@M@internal@Eigen@@$$CBV?$Matrix@M$02$00$0A@$02$00@3@@3@@1@AEBU?$assign_op@MM@01@PEAX@Z
	??$call_assignment@V?$Matrix@M$02$00$0A@$02$00@Eigen@@V?$CwiseBinaryOp@U?$scalar_sum_op@MM@internal@Eigen@@$$CBV?$Matrix@M$02$00$0A@$02$00@3@$$CBV43@@2@@internal@Eigen@@YAXAEAV?$Matrix@M$02$00$0A@$02$00@1@AEBV?$CwiseBinaryOp@U?$scalar_sum_op@MM@internal@Eigen@@$$CBV?$Matrix@M$02$00$0A@$02$00@3@$$CBV43@@1@@Z
	??$call_assignment@V?$Matrix@M$02$00$0A@$02$00@Eigen@@V?$CwiseBinaryOp@U?$scalar_sum_op@MM@internal@Eigen@@$$CBV?$Matrix@M$02$00$0A@$02$00@3@$$CBV43@@2@U?$assign_op@MM@internal@2@@internal@Eigen@@YAXAEAV?$Matrix@M$02$00$0A@$02$00@1@AEBV?$CwiseBinaryOp@U?$scalar_sum_op@MM@internal@Eigen@@$$CBV?$Matrix@M$02$00$0A@$02$00@3@$$CBV43@@1@AEBU?$assign_op@MM@01@PEAX@Z
	??$call_assignment@V?$Matrix@M$02$00$0A@$02$00@Eigen@@V?$CwiseNullaryOp@U?$scalar_constant_op@M@internal@Eigen@@V?$Matrix@M$02$00$0A@$02$00@3@@2@@internal@Eigen@@YAXAEAV?$Matrix@M$02$00$0A@$02$00@1@AEBV?$CwiseNullaryOp@U?$scalar_constant_op@M@internal@Eigen@@V?$Matrix@M$02$00$0A@$02$00@3@@1@@Z
	??$call_assignment@V?$Matrix@M$02$00$0A@$02$00@Eigen@@V?$CwiseNullaryOp@U?$scalar_constant_op@M@internal@Eigen@@V?$Matrix@M$02$00$0A@$02$00@3@@2@U?$assign_op@MM@internal@2@@internal@Eigen@@YAXAEAV?$Matrix@M$02$00$0A@$02$00@1@AEBV?$CwiseNullaryOp@U?$scalar_constant_op@M@internal@Eigen@@V?$Matrix@M$02$00$0A@$02$00@3@@1@AEBU?$assign_op@MM@01@PEAX@Z
	??$call_assignment@V?$Matrix@M$02$00$0A@$02$00@Eigen@@V?$CwiseNullaryOp@U?$scalar_constant_op@M@internal@Eigen@@V?$Matrix@M$02$00$0A@$02$00@3@@2@U?$div_assign_op@MM@internal@2@@internal@Eigen@@YAXAEAV?$Matrix@M$02$00$0A@$02$00@1@AEBV?$CwiseNullaryOp@U?$scalar_constant_op@M@internal@Eigen@@V?$Matrix@M$02$00$0A@$02$00@3@@1@AEBU?$div_assign_op@MM@01@PEAX@Z
	??$call_assignment@V?$Matrix@M$03$00$0A@$03$00@Eigen@@V12@@internal@Eigen@@YAXAEAV?$Matrix@M$03$00$0A@$03$00@1@AEBV21@@Z
	??$call_assignment@V?$Matrix@M$03$00$0A@$03$00@Eigen@@V12@U?$assign_op@MM@internal@2@@internal@Eigen@@YAXAEAV?$Matrix@M$03$00$0A@$03$00@1@AEBV21@AEBU?$assign_op@MM@01@PEAX@Z
	??$call_assignment@V?$Matrix@M$03$00$0A@$03$00@Eigen@@V12@U?$swap_assign_op@M@internal@2@@internal@Eigen@@YAXAEAV?$Matrix@M$03$00$0A@$03$00@1@AEBV21@AEBU?$swap_assign_op@M@01@PEAX@Z
	??$call_assignment@V?$Matrix@M$03$00$0A@$03$00@Eigen@@V?$CwiseBinaryOp@U?$scalar_quotient_op@MM@internal@Eigen@@$$CBV?$Matrix@M$03$00$0A@$03$00@3@$$CBV?$CwiseNullaryOp@U?$scalar_constant_op@M@internal@Eigen@@$$CBV?$Matrix@M$03$00$0A@$03$00@3@@3@@2@@internal@Eigen@@YAXAEAV?$Matrix@M$03$00$0A@$03$00@1@AEBV?$CwiseBinaryOp@U?$scalar_quotient_op@MM@internal@Eigen@@$$CBV?$Matrix@M$03$00$0A@$03$00@3@$$CBV?$CwiseNullaryOp@U?$scalar_constant_op@M@internal@Eigen@@$$CBV?$Matrix@M$03$00$0A@$03$00@3@@3@@1@@Z
	??$call_assignment@V?$Matrix@M$03$00$0A@$03$00@Eigen@@V?$CwiseBinaryOp@U?$scalar_quotient_op@MM@internal@Eigen@@$$CBV?$Matrix@M$03$00$0A@$03$00@3@$$CBV?$CwiseNullaryOp@U?$scalar_constant_op@M@internal@Eigen@@$$CBV?$Matrix@M$03$00$0A@$03$00@3@@3@@2@U?$assign_op@MM@internal@2@@internal@Eigen@@YAXAEAV?$Matrix@M$03$00$0A@$03$00@1@AEBV?$CwiseBinaryOp@U?$scalar_quotient_op@MM@internal@Eigen@@$$CBV?$Matrix@M$03$00$0A@$03$00@3@$$CBV?$CwiseNullaryOp@U?$scalar_constant_op@M@internal@Eigen@@$$CBV?$Matrix@M$03$00$0A@$03$00@3@@3@@1@AEBU?$assign_op@MM@01@PEAX@Z
	??$call_assignment@V?$Matrix@M$03$00$0A@$03$00@Eigen@@V?$CwiseNullaryOp@U?$scalar_constant_op@M@internal@Eigen@@V?$Matrix@M$03$00$0A@$03$00@3@@2@@internal@Eigen@@YAXAEAV?$Matrix@M$03$00$0A@$03$00@1@AEBV?$CwiseNullaryOp@U?$scalar_constant_op@M@internal@Eigen@@V?$Matrix@M$03$00$0A@$03$00@3@@1@@Z
	??$call_assignment@V?$Matrix@M$03$00$0A@$03$00@Eigen@@V?$CwiseNullaryOp@U?$scalar_constant_op@M@internal@Eigen@@V?$Matrix@M$03$00$0A@$03$00@3@@2@U?$assign_op@MM@internal@2@@internal@Eigen@@YAXAEAV?$Matrix@M$03$00$0A@$03$00@1@AEBV?$CwiseNullaryOp@U?$scalar_constant_op@M@internal@Eigen@@V?$Matrix@M$03$00$0A@$03$00@3@@1@AEBU?$assign_op@MM@01@PEAX@Z
	??$call_assignment@V?$Matrix@M$03$00$0A@$03$00@Eigen@@V?$CwiseNullaryOp@U?$scalar_constant_op@M@internal@Eigen@@V?$Matrix@M$03$00$0A@$03$00@3@@2@U?$div_assign_op@MM@internal@2@@internal@Eigen@@YAXAEAV?$Matrix@M$03$00$0A@$03$00@1@AEBV?$CwiseNullaryOp@U?$scalar_constant_op@M@internal@Eigen@@V?$Matrix@M$03$00$0A@$03$00@3@@1@AEBU?$div_assign_op@MM@01@PEAX@Z
	??$call_assignment@V?$Matrix@M$03$03$0A@$03$03@Eigen@@V12@@internal@Eigen@@YAXAEAV?$Matrix@M$03$03$0A@$03$03@1@AEBV21@@Z
	??$call_assignment@V?$Matrix@M$03$03$0A@$03$03@Eigen@@V12@U?$assign_op@MM@internal@2@@internal@Eigen@@YAXAEAV?$Matrix@M$03$03$0A@$03$03@1@AEBV21@AEBU?$assign_op@MM@01@PEAX@Z
	??$call_assignment@V?$Matrix@M$03$03$0A@$03$03@Eigen@@V?$CwiseNullaryOp@U?$scalar_identity_op@M@internal@Eigen@@V?$Matrix@M$03$03$0A@$03$03@3@@2@@internal@Eigen@@YAXAEAV?$Matrix@M$03$03$0A@$03$03@1@AEBV?$CwiseNullaryOp@U?$scalar_identity_op@M@internal@Eigen@@V?$Matrix@M$03$03$0A@$03$03@3@@1@@Z
	??$call_assignment@V?$Matrix@M$03$03$0A@$03$03@Eigen@@V?$CwiseNullaryOp@U?$scalar_identity_op@M@internal@Eigen@@V?$Matrix@M$03$03$0A@$03$03@3@@2@U?$assign_op@MM@internal@2@@internal@Eigen@@YAXAEAV?$Matrix@M$03$03$0A@$03$03@1@AEBV?$CwiseNullaryOp@U?$scalar_identity_op@M@internal@Eigen@@V?$Matrix@M$03$03$0A@$03$03@3@@1@AEBU?$assign_op@MM@01@PEAX@Z
	??$call_assignment_no_alias@V?$Block@V?$Matrix@M$03$00$0A@$03$00@Eigen@@$02$00$0A@@Eigen@@V?$CwiseBinaryOp@U?$scalar_product_op@MM@internal@Eigen@@$$CBV?$CwiseNullaryOp@U?$scalar_constant_op@M@internal@Eigen@@$$CBV?$Matrix@M$02$00$0A@$02$00@3@@3@$$CBV?$Matrix@M$02$00$0A@$02$00@3@@2@U?$assign_op@MM@internal@2@@internal@Eigen@@YAXAEAV?$Block@V?$Matrix@M$03$00$0A@$03$00@Eigen@@$02$00$0A@@1@AEBV?$CwiseBinaryOp@U?$scalar_product_op@MM@internal@Eigen@@$$CBV?$CwiseNullaryOp@U?$scalar_constant_op@M@internal@Eigen@@$$CBV?$Matrix@M$02$00$0A@$02$00@3@@3@$$CBV?$Matrix@M$02$00$0A@$02$00@3@@1@AEBU?$assign_op@MM@01@@Z
	??$call_assignment_no_alias@V?$Block@V?$Matrix@M$03$03$0A@$03$03@Eigen@@$00$02$0A@@Eigen@@V?$CwiseNullaryOp@U?$scalar_constant_op@M@internal@Eigen@@V?$Matrix@M$00$02$00$00$02@3@@2@U?$assign_op@MM@internal@2@@internal@Eigen@@YAXAEAV?$Block@V?$Matrix@M$03$03$0A@$03$03@Eigen@@$00$02$0A@@1@AEBV?$CwiseNullaryOp@U?$scalar_constant_op@M@internal@Eigen@@V?$Matrix@M$00$02$00$00$02@3@@1@AEBU?$assign_op@MM@01@@Z
	??$call_assignment_no_alias@V?$Block@V?$Matrix@M$03$03$0A@$03$03@Eigen@@$02$00$00@Eigen@@V?$CwiseBinaryOp@U?$scalar_sum_op@MM@internal@Eigen@@$$CBV?$Product@V?$Block@$$CBV?$Matrix@M$03$03$0A@$03$03@Eigen@@$02$02$0A@@Eigen@@V?$Block@$$CBV?$Matrix@M$03$03$0A@$03$03@Eigen@@$02$00$00@2@$0A@@3@$$CBV?$Block@$$CBV?$Matrix@M$03$03$0A@$03$03@Eigen@@$02$00$00@3@@2@U?$assign_op@MM@internal@2@@internal@Eigen@@YAXAEAV?$Block@V?$Matrix@M$03$03$0A@$03$03@Eigen@@$02$00$00@1@AEBV?$CwiseBinaryOp@U?$scalar_sum_op@MM@internal@Eigen@@$$CBV?$Product@V?$Block@$$CBV?$Matrix@M$03$03$0A@$03$03@Eigen@@$02$02$0A@@Eigen@@V?$Block@$$CBV?$Matrix@M$03$03$0A@$03$03@Eigen@@$02$00$00@2@$0A@@3@$$CBV?$Block@$$CBV?$Matrix@M$03$03$0A@$03$03@Eigen@@$02$00$00@3@@1@AEBU?$assign_op@MM@01@@Z
	??$call_assignment_no_alias@V?$Block@V?$Matrix@M$03$03$0A@$03$03@Eigen@@$02$00$0A@@Eigen@@V?$Matrix@M$02$00$0A@$02$00@2@U?$add_assign_op@MM@internal@2@@internal@Eigen@@YAXAEAV?$Block@V?$Matrix@M$03$03$0A@$03$03@Eigen@@$02$00$0A@@1@AEBV?$Matrix@M$02$00$0A@$02$00@1@AEBU?$add_assign_op@MM@01@@Z
	??$call_assignment_no_alias@V?$Block@V?$Matrix@M$03$03$0A@$03$03@Eigen@@$02$02$0A@@Eigen@@V?$CwiseNullaryOp@U?$scalar_constant_op@M@internal@Eigen@@V?$Matrix@M$02$02$0A@$02$02@3@@2@U?$mul_assign_op@MM@internal@2@@internal@Eigen@@YAXAEAV?$Block@V?$Matrix@M$03$03$0A@$03$03@Eigen@@$02$02$0A@@1@AEBV?$CwiseNullaryOp@U?$scalar_constant_op@M@internal@Eigen@@V?$Matrix@M$02$02$0A@$02$02@3@@1@AEBU?$mul_assign_op@MM@01@@Z
	??$call_assignment_no_alias@V?$Block@V?$Matrix@M$03$03$0A@$03$03@Eigen@@$02$02$0A@@Eigen@@V?$Matrix@M$02$02$0A@$02$02@2@U?$assign_op@MM@internal@2@@internal@Eigen@@YAXAEAV?$Block@V?$Matrix@M$03$03$0A@$03$03@Eigen@@$02$02$0A@@1@AEBV?$Matrix@M$02$02$0A@$02$02@1@AEBU?$assign_op@MM@01@@Z
	??$call_assignment_no_alias@V?$Block@V?$Matrix@M$03$03$0A@$03$03@Eigen@@$02$02$0A@@Eigen@@V?$Product@V?$Block@V?$Matrix@M$03$03$0A@$03$03@Eigen@@$02$02$0A@@Eigen@@V?$DiagonalWrapper@$$CBV?$Matrix@M$02$00$0A@$02$00@Eigen@@@2@$00@2@U?$assign_op@MM@internal@2@@internal@Eigen@@YAXAEAV?$Block@V?$Matrix@M$03$03$0A@$03$03@Eigen@@$02$02$0A@@1@AEBV?$Product@V?$Block@V?$Matrix@M$03$03$0A@$03$03@Eigen@@$02$02$0A@@Eigen@@V?$DiagonalWrapper@$$CBV?$Matrix@M$02$00$0A@$02$00@Eigen@@@2@$00@1@AEBU?$assign_op@MM@01@@Z
	??$call_assignment_no_alias@V?$Diagonal@V?$Matrix@M$02$02$0A@$02$02@Eigen@@$0A@@Eigen@@V?$CwiseBinaryOp@U?$scalar_sum_op@MM@internal@Eigen@@$$CBV?$ArrayWrapper@$$CBV?$CwiseBinaryOp@U?$scalar_product_op@MM@internal@Eigen@@$$CBV?$Matrix@M$02$00$0A@$02$00@3@$$CBV43@@Eigen@@@3@$$CBV?$CwiseNullaryOp@U?$scalar_constant_op@M@internal@Eigen@@$$CBV?$Array@M$02$00$0A@$02$00@3@@3@@2@U?$assign_op@MM@internal@2@@internal@Eigen@@YAXAEAV?$Diagonal@V?$Matrix@M$02$02$0A@$02$02@Eigen@@$0A@@1@AEBV?$CwiseBinaryOp@U?$scalar_sum_op@MM@internal@Eigen@@$$CBV?$ArrayWrapper@$$CBV?$CwiseBinaryOp@U?$scalar_product_op@MM@internal@Eigen@@$$CBV?$Matrix@M$02$00$0A@$02$00@3@$$CBV43@@Eigen@@@3@$$CBV?$CwiseNullaryOp@U?$scalar_constant_op@M@internal@Eigen@@$$CBV?$Array@M$02$00$0A@$02$00@3@@3@@1@AEBU?$assign_op@MM@01@@Z
	??$call_assignment_no_alias@V?$Matrix@H$01$00$0A@$01$00@Eigen@@V12@U?$assign_op@HH@internal@2@@internal@Eigen@@YAXAEAV?$Matrix@H$01$00$0A@$01$00@1@AEBV21@AEBU?$assign_op@HH@01@@Z
	??$call_assignment_no_alias@V?$Matrix@H$01$00$0A@$01$00@Eigen@@V?$CwiseNullaryOp@U?$scalar_constant_op@H@internal@Eigen@@V?$Matrix@H$01$00$0A@$01$00@3@@2@U?$assign_op@HH@internal@2@@internal@Eigen@@YAXAEAV?$Matrix@H$01$00$0A@$01$00@1@AEBV?$CwiseNullaryOp@U?$scalar_constant_op@H@internal@Eigen@@V?$Matrix@H$01$00$0A@$01$00@3@@1@AEBU?$assign_op@HH@01@@Z
	??$call_assignment_no_alias@V?$Matrix@M$01$00$0A@$01$00@Eigen@@V12@U?$assign_op@MM@internal@2@@internal@Eigen@@YAXAEAV?$Matrix@M$01$00$0A@$01$00@1@AEBV21@AEBU?$assign_op@MM@01@@Z
	??$call_assignment_no_alias@V?$Matrix@M$01$00$0A@$01$00@Eigen@@V?$CwiseBinaryOp@U?$scalar_difference_op@MM@internal@Eigen@@$$CBV?$Matrix@M$01$00$0A@$01$00@3@$$CBV43@@2@U?$assign_op@MM@internal@2@@internal@Eigen@@YAXAEAV?$Matrix@M$01$00$0A@$01$00@1@AEBV?$CwiseBinaryOp@U?$scalar_difference_op@MM@internal@Eigen@@$$CBV?$Matrix@M$01$00$0A@$01$00@3@$$CBV43@@1@AEBU?$assign_op@MM@01@@Z
	??$call_assignment_no_alias@V?$Matrix@M$02$00$0A@$02$00@Eigen@@V12@U?$add_assign_op@MM@internal@2@@internal@Eigen@@YAXAEAV?$Matrix@M$02$00$0A@$02$00@1@AEBV21@AEBU?$add_assign_op@MM@01@@Z
	??$call_assignment_no_alias@V?$Matrix@M$02$00$0A@$02$00@Eigen@@V12@U?$assign_op@MM@internal@2@@internal@Eigen@@YAXAEAV?$Matrix@M$02$00$0A@$02$00@1@AEBV21@AEBU?$assign_op@MM@01@@Z
	??$call_assignment_no_alias@V?$Matrix@M$02$00$0A@$02$00@Eigen@@V12@U?$swap_assign_op@M@internal@2@@internal@Eigen@@YAXAEAV?$Matrix@M$02$00$0A@$02$00@1@AEBV21@AEBU?$swap_assign_op@M@01@@Z
	??$call_assignment_no_alias@V?$Matrix@M$02$00$0A@$02$00@Eigen@@V?$Block@$$CBV?$CwiseNullaryOp@U?$scalar_identity_op@M@internal@Eigen@@V?$Matrix@M$02$02$0A@$02$02@3@@Eigen@@$02$00$0A@@2@U?$assign_op@MM@internal@2@@internal@Eigen@@YAXAEAV?$Matrix@M$02$00$0A@$02$00@1@AEBV?$Block@$$CBV?$CwiseNullaryOp@U?$scalar_identity_op@M@internal@Eigen@@V?$Matrix@M$02$02$0A@$02$02@3@@Eigen@@$02$00$0A@@1@AEBU?$assign_op@MM@01@@Z
	??$call_assignment_no_alias@V?$Matrix@M$02$00$0A@$02$00@Eigen@@V?$CwiseBinaryOp@U?$scalar_product_op@MM@internal@Eigen@@$$CBV?$CwiseNullaryOp@U?$scalar_constant_op@M@internal@Eigen@@$$CBV?$Matrix@M$02$00$0A@$02$00@3@@3@$$CBV?$Matrix@M$02$00$0A@$02$00@3@@2@U?$assign_op@MM@internal@2@@internal@Eigen@@YAXAEAV?$Matrix@M$02$00$0A@$02$00@1@AEBV?$CwiseBinaryOp@U?$scalar_product_op@MM@internal@Eigen@@$$CBV?$CwiseNullaryOp@U?$scalar_constant_op@M@internal@Eigen@@$$CBV?$Matrix@M$02$00$0A@$02$00@3@@3@$$CBV?$Matrix@M$02$00$0A@$02$00@3@@1@AEBU?$assign_op@MM@01@@Z
	??$call_assignment_no_alias@V?$Matrix@M$02$00$0A@$02$00@Eigen@@V?$CwiseBinaryOp@U?$scalar_product_op@MM@internal@Eigen@@$$CBV?$Matrix@M$02$00$0A@$02$00@3@$$CBV?$CwiseNullaryOp@U?$scalar_constant_op@M@internal@Eigen@@$$CBV?$Matrix@M$02$00$0A@$02$00@3@@3@@2@U?$assign_op@MM@internal@2@@internal@Eigen@@YAXAEAV?$Matrix@M$02$00$0A@$02$00@1@AEBV?$CwiseBinaryOp@U?$scalar_product_op@MM@internal@Eigen@@$$CBV?$Matrix@M$02$00$0A@$02$00@3@$$CBV?$CwiseNullaryOp@U?$scalar_constant_op@M@internal@Eigen@@$$CBV?$Matrix@M$02$00$0A@$02$00@3@@3@@1@AEBU?$assign_op@MM@01@@Z
	??$call_assignment_no_alias@V?$Matrix@M$02$00$0A@$02$00@Eigen@@V?$CwiseBinaryOp@U?$scalar_quotient_op@MM@internal@Eigen@@$$CBV?$Matrix@M$02$00$0A@$02$00@3@$$CBV?$CwiseNullaryOp@U?$scalar_constant_op@M@internal@Eigen@@$$CBV?$Matrix@M$02$00$0A@$02$00@3@@3@@2@U?$assign_op@MM@internal@2@@internal@Eigen@@YAXAEAV?$Matrix@M$02$00$0A@$02$00@1@AEBV?$CwiseBinaryOp@U?$scalar_quotient_op@MM@internal@Eigen@@$$CBV?$Matrix@M$02$00$0A@$02$00@3@$$CBV?$CwiseNullaryOp@U?$scalar_constant_op@M@internal@Eigen@@$$CBV?$Matrix@M$02$00$0A@$02$00@3@@3@@1@AEBU?$assign_op@MM@01@@Z
	??$call_assignment_no_alias@V?$Matrix@M$02$00$0A@$02$00@Eigen@@V?$CwiseBinaryOp@U?$scalar_sum_op@MM@internal@Eigen@@$$CBV?$CwiseBinaryOp@U?$scalar_sum_op@MM@internal@Eigen@@$$CBV?$Matrix@M$02$00$0A@$02$00@3@$$CBV?$CwiseBinaryOp@U?$scalar_product_op@MM@internal@Eigen@@$$CBV?$CwiseNullaryOp@U?$scalar_constant_op@M@internal@Eigen@@$$CBV?$Matrix@M$02$00$0A@$02$00@3@@3@$$CBV?$Matrix@M$02$00$0A@$02$00@3@@3@@3@$$CBV?$Matrix@M$02$00$0A@$02$00@3@@2@U?$assign_op@MM@internal@2@@internal@Eigen@@YAXAEAV?$Matrix@M$02$00$0A@$02$00@1@AEBV?$CwiseBinaryOp@U?$scalar_sum_op@MM@internal@Eigen@@$$CBV?$CwiseBinaryOp@U?$scalar_sum_op@MM@internal@Eigen@@$$CBV?$Matrix@M$02$00$0A@$02$00@3@$$CBV?$CwiseBinaryOp@U?$scalar_product_op@MM@internal@Eigen@@$$CBV?$CwiseNullaryOp@U?$scalar_constant_op@M@internal@Eigen@@$$CBV?$Matrix@M$02$00$0A@$02$00@3@@3@$$CBV?$Matrix@M$02$00$0A@$02$00@3@@3@@3@$$CBV?$Matrix@M$02$00$0A@$02$00@3@@1@AEBU?$assign_op@MM@01@@Z
	??$call_assignment_no_alias@V?$Matrix@M$02$00$0A@$02$00@Eigen@@V?$CwiseBinaryOp@U?$scalar_sum_op@MM@internal@Eigen@@$$CBV?$Matrix@M$02$00$0A@$02$00@3@$$CBV43@@2@U?$assign_op@MM@internal@2@@internal@Eigen@@YAXAEAV?$Matrix@M$02$00$0A@$02$00@1@AEBV?$CwiseBinaryOp@U?$scalar_sum_op@MM@internal@Eigen@@$$CBV?$Matrix@M$02$00$0A@$02$00@3@$$CBV43@@1@AEBU?$assign_op@MM@01@@Z
	??$call_assignment_no_alias@V?$Matrix@M$02$00$0A@$02$00@Eigen@@V?$CwiseNullaryOp@U?$scalar_constant_op@M@internal@Eigen@@V?$Matrix@M$02$00$0A@$02$00@3@@2@U?$assign_op@MM@internal@2@@internal@Eigen@@YAXAEAV?$Matrix@M$02$00$0A@$02$00@1@AEBV?$CwiseNullaryOp@U?$scalar_constant_op@M@internal@Eigen@@V?$Matrix@M$02$00$0A@$02$00@3@@1@AEBU?$assign_op@MM@01@@Z
	??$call_assignment_no_alias@V?$Matrix@M$02$00$0A@$02$00@Eigen@@V?$CwiseNullaryOp@U?$scalar_constant_op@M@internal@Eigen@@V?$Matrix@M$02$00$0A@$02$00@3@@2@U?$div_assign_op@MM@internal@2@@internal@Eigen@@YAXAEAV?$Matrix@M$02$00$0A@$02$00@1@AEBV?$CwiseNullaryOp@U?$scalar_constant_op@M@internal@Eigen@@V?$Matrix@M$02$00$0A@$02$00@3@@1@AEBU?$div_assign_op@MM@01@@Z
	??$call_assignment_no_alias@V?$Matrix@M$02$00$0A@$02$00@Eigen@@V?$Product@V?$Block@$$CBV?$Matrix@M$03$03$0A@$03$03@Eigen@@$02$02$0A@@Eigen@@V?$Block@$$CBV?$Matrix@M$03$03$0A@$03$03@Eigen@@$02$00$00@2@$00@2@U?$assign_op@MM@internal@2@@internal@Eigen@@YAXAEAV?$Matrix@M$02$00$0A@$02$00@1@AEBV?$Product@V?$Block@$$CBV?$Matrix@M$03$03$0A@$03$03@Eigen@@$02$02$0A@@Eigen@@V?$Block@$$CBV?$Matrix@M$03$03$0A@$03$03@Eigen@@$02$00$00@2@$00@1@AEBU?$assign_op@MM@01@@Z
	??$call_assignment_no_alias@V?$Matrix@M$02$00$0A@$02$00@Eigen@@V?$Product@V?$Block@V?$Matrix@M$03$03$0A@$03$03@Eigen@@$02$02$0A@@Eigen@@V?$CwiseUnaryOp@U?$scalar_opposite_op@M@internal@Eigen@@$$CBV?$Matrix@M$02$00$0A@$02$00@3@@2@$00@2@U?$assign_op@MM@internal@2@@internal@Eigen@@YAXAEAV?$Matrix@M$02$00$0A@$02$00@1@AEBV?$Product@V?$Block@V?$Matrix@M$03$03$0A@$03$03@Eigen@@$02$02$0A@@Eigen@@V?$CwiseUnaryOp@U?$scalar_opposite_op@M@internal@Eigen@@$$CBV?$Matrix@M$02$00$0A@$02$00@3@@2@$00@1@AEBU?$assign_op@MM@01@@Z
	??$call_assignment_no_alias@V?$Matrix@M$02$00$0A@$02$00@Eigen@@V?$Product@V?$Block@V?$Matrix@M$03$03$0A@$03$03@Eigen@@$02$02$0A@@Eigen@@V?$CwiseUnaryOp@U?$scalar_opposite_op@M@internal@Eigen@@$$CBV?$Matrix@M$02$00$0A@$02$00@3@@2@$0A@@2@U?$assign_op@MM@internal@2@@internal@Eigen@@YAXAEAV?$Matrix@M$02$00$0A@$02$00@1@AEBV?$Product@V?$Block@V?$Matrix@M$03$03$0A@$03$03@Eigen@@$02$02$0A@@Eigen@@V?$CwiseUnaryOp@U?$scalar_opposite_op@M@internal@Eigen@@$$CBV?$Matrix@M$02$00$0A@$02$00@3@@2@$0A@@1@AEBU?$assign_op@MM@01@@Z
	??$call_assignment_no_alias@V?$Matrix@M$02$00$0A@$02$00@Eigen@@V?$Product@V?$Block@V?$Matrix@M$03$03$0A@$03$03@Eigen@@$02$02$0A@@Eigen@@V?$Matrix@M$02$00$0A@$02$00@2@$00@2@U?$assign_op@MM@internal@2@@internal@Eigen@@YAXAEAV?$Matrix@M$02$00$0A@$02$00@1@AEBV?$Product@V?$Block@V?$Matrix@M$03$03$0A@$03$03@Eigen@@$02$02$0A@@Eigen@@V?$Matrix@M$02$00$0A@$02$00@2@$00@1@AEBU?$assign_op@MM@01@@Z
	??$call_assignment_no_alias@V?$Matrix@M$02$00$0A@$02$00@Eigen@@V?$Product@V?$Block@V?$Matrix@M$03$03$0A@$03$03@Eigen@@$02$02$0A@@Eigen@@V?$Matrix@M$02$00$0A@$02$00@2@$0A@@2@U?$assign_op@MM@internal@2@@internal@Eigen@@YAXAEAV?$Matrix@M$02$00$0A@$02$00@1@AEBV?$Product@V?$Block@V?$Matrix@M$03$03$0A@$03$03@Eigen@@$02$02$0A@@Eigen@@V?$Matrix@M$02$00$0A@$02$00@2@$0A@@1@AEBU?$assign_op@MM@01@@Z
	??$call_assignment_no_alias@V?$Matrix@M$02$02$0A@$02$02@Eigen@@V?$Product@V?$Block@$$CBV?$Matrix@M$03$03$0A@$03$03@Eigen@@$02$02$0A@@Eigen@@V12@$00@2@U?$assign_op@MM@internal@2@@internal@Eigen@@YAXAEAV?$Matrix@M$02$02$0A@$02$02@1@AEBV?$Product@V?$Block@$$CBV?$Matrix@M$03$03$0A@$03$03@Eigen@@$02$02$0A@@Eigen@@V12@$00@1@AEBU?$assign_op@MM@01@@Z
	??$call_assignment_no_alias@V?$Matrix@M$02$02$0A@$02$02@Eigen@@V?$Product@V?$Block@$$CBV?$Matrix@M$03$03$0A@$03$03@Eigen@@$02$02$0A@@Eigen@@V12@$0A@@2@U?$assign_op@MM@internal@2@@internal@Eigen@@YAXAEAV?$Matrix@M$02$02$0A@$02$02@1@AEBV?$Product@V?$Block@$$CBV?$Matrix@M$03$03$0A@$03$03@Eigen@@$02$02$0A@@Eigen@@V12@$0A@@1@AEBU?$assign_op@MM@01@@Z
	??$call_assignment_no_alias@V?$Matrix@M$02$02$0A@$02$02@Eigen@@V?$Product@V?$Block@V?$Matrix@M$03$03$0A@$03$03@Eigen@@$02$02$0A@@Eigen@@V?$Matrix@M$02$02$0A@$02$02@2@$00@2@U?$assign_op@MM@internal@2@@internal@Eigen@@YAXAEAV?$Matrix@M$02$02$0A@$02$02@1@AEBV?$Product@V?$Block@V?$Matrix@M$03$03$0A@$03$03@Eigen@@$02$02$0A@@Eigen@@V?$Matrix@M$02$02$0A@$02$02@2@$00@1@AEBU?$assign_op@MM@01@@Z
	??$call_assignment_no_alias@V?$Matrix@M$02$02$0A@$02$02@Eigen@@V?$Product@V?$Block@V?$Matrix@M$03$03$0A@$03$03@Eigen@@$02$02$0A@@Eigen@@V?$Matrix@M$02$02$0A@$02$02@2@$0A@@2@U?$assign_op@MM@internal@2@@internal@Eigen@@YAXAEAV?$Matrix@M$02$02$0A@$02$02@1@AEBV?$Product@V?$Block@V?$Matrix@M$03$03$0A@$03$03@Eigen@@$02$02$0A@@Eigen@@V?$Matrix@M$02$02$0A@$02$02@2@$0A@@1@AEBU?$assign_op@MM@01@@Z
	??$call_assignment_no_alias@V?$Matrix@M$03$00$0A@$03$00@Eigen@@V12@U?$assign_op@MM@internal@2@@internal@Eigen@@YAXAEAV?$Matrix@M$03$00$0A@$03$00@1@AEBV21@AEBU?$assign_op@MM@01@@Z
	??$call_assignment_no_alias@V?$Matrix@M$03$00$0A@$03$00@Eigen@@V12@U?$swap_assign_op@M@internal@2@@internal@Eigen@@YAXAEAV?$Matrix@M$03$00$0A@$03$00@1@AEBV21@AEBU?$swap_assign_op@M@01@@Z
	??$call_assignment_no_alias@V?$Matrix@M$03$00$0A@$03$00@Eigen@@V?$CwiseBinaryOp@U?$scalar_quotient_op@MM@internal@Eigen@@$$CBV?$Matrix@M$03$00$0A@$03$00@3@$$CBV?$CwiseNullaryOp@U?$scalar_constant_op@M@internal@Eigen@@$$CBV?$Matrix@M$03$00$0A@$03$00@3@@3@@2@U?$assign_op@MM@internal@2@@internal@Eigen@@YAXAEAV?$Matrix@M$03$00$0A@$03$00@1@AEBV?$CwiseBinaryOp@U?$scalar_quotient_op@MM@internal@Eigen@@$$CBV?$Matrix@M$03$00$0A@$03$00@3@$$CBV?$CwiseNullaryOp@U?$scalar_constant_op@M@internal@Eigen@@$$CBV?$Matrix@M$03$00$0A@$03$00@3@@3@@1@AEBU?$assign_op@MM@01@@Z
	??$call_assignment_no_alias@V?$Matrix@M$03$00$0A@$03$00@Eigen@@V?$CwiseNullaryOp@U?$scalar_constant_op@M@internal@Eigen@@V?$Matrix@M$03$00$0A@$03$00@3@@2@U?$assign_op@MM@internal@2@@internal@Eigen@@YAXAEAV?$Matrix@M$03$00$0A@$03$00@1@AEBV?$CwiseNullaryOp@U?$scalar_constant_op@M@internal@Eigen@@V?$Matrix@M$03$00$0A@$03$00@3@@1@AEBU?$assign_op@MM@01@@Z
	??$call_assignment_no_alias@V?$Matrix@M$03$00$0A@$03$00@Eigen@@V?$CwiseNullaryOp@U?$scalar_constant_op@M@internal@Eigen@@V?$Matrix@M$03$00$0A@$03$00@3@@2@U?$div_assign_op@MM@internal@2@@internal@Eigen@@YAXAEAV?$Matrix@M$03$00$0A@$03$00@1@AEBV?$CwiseNullaryOp@U?$scalar_constant_op@M@internal@Eigen@@V?$Matrix@M$03$00$0A@$03$00@3@@1@AEBU?$div_assign_op@MM@01@@Z
	??$call_assignment_no_alias@V?$Matrix@M$03$03$0A@$03$03@Eigen@@V12@U?$assign_op@MM@internal@2@@internal@Eigen@@YAXAEAV?$Matrix@M$03$03$0A@$03$03@1@AEBV21@AEBU?$assign_op@MM@01@@Z
	??$call_assignment_no_alias@V?$Matrix@M$03$03$0A@$03$03@Eigen@@V?$CwiseNullaryOp@U?$scalar_constant_op@M@internal@Eigen@@V?$Matrix@M$03$03$0A@$03$03@3@@2@U?$assign_op@MM@internal@2@@internal@Eigen@@YAXAEAV?$Matrix@M$03$03$0A@$03$03@1@AEBV?$CwiseNullaryOp@U?$scalar_constant_op@M@internal@Eigen@@V?$Matrix@M$03$03$0A@$03$03@3@@1@AEBU?$assign_op@MM@01@@Z
	??$call_assignment_no_alias@V?$Matrix@M$03$03$0A@$03$03@Eigen@@V?$CwiseNullaryOp@U?$scalar_identity_op@M@internal@Eigen@@V?$Matrix@M$03$03$0A@$03$03@3@@2@U?$assign_op@MM@internal@2@@internal@Eigen@@YAXAEAV?$Matrix@M$03$03$0A@$03$03@1@AEBV?$CwiseNullaryOp@U?$scalar_identity_op@M@internal@Eigen@@V?$Matrix@M$03$03$0A@$03$03@3@@1@AEBU?$assign_op@MM@01@@Z
	??$call_dense_assignment_loop@V?$Block@V?$Matrix@M$03$00$0A@$03$00@Eigen@@$02$00$0A@@Eigen@@V?$CwiseBinaryOp@U?$scalar_product_op@MM@internal@Eigen@@$$CBV?$CwiseNullaryOp@U?$scalar_constant_op@M@internal@Eigen@@$$CBV?$Matrix@M$02$00$0A@$02$00@3@@3@$$CBV?$Matrix@M$02$00$0A@$02$00@3@@2@U?$assign_op@MM@internal@2@@internal@Eigen@@YAXAEAV?$Block@V?$Matrix@M$03$00$0A@$03$00@Eigen@@$02$00$0A@@1@AEBV?$CwiseBinaryOp@U?$scalar_product_op@MM@internal@Eigen@@$$CBV?$CwiseNullaryOp@U?$scalar_constant_op@M@internal@Eigen@@$$CBV?$Matrix@M$02$00$0A@$02$00@3@@3@$$CBV?$Matrix@M$02$00$0A@$02$00@3@@1@AEBU?$assign_op@MM@01@@Z
	??$call_dense_assignment_loop@V?$Block@V?$Matrix@M$03$03$0A@$03$03@Eigen@@$00$02$0A@@Eigen@@V?$CwiseNullaryOp@U?$scalar_constant_op@M@internal@Eigen@@V?$Matrix@M$00$02$00$00$02@3@@2@U?$assign_op@MM@internal@2@@internal@Eigen@@YAXAEAV?$Block@V?$Matrix@M$03$03$0A@$03$03@Eigen@@$00$02$0A@@1@AEBV?$CwiseNullaryOp@U?$scalar_constant_op@M@internal@Eigen@@V?$Matrix@M$00$02$00$00$02@3@@1@AEBU?$assign_op@MM@01@@Z
	??$call_dense_assignment_loop@V?$Block@V?$Matrix@M$03$03$0A@$03$03@Eigen@@$02$00$00@Eigen@@V?$CwiseBinaryOp@U?$scalar_sum_op@MM@internal@Eigen@@$$CBV?$Product@V?$Block@$$CBV?$Matrix@M$03$03$0A@$03$03@Eigen@@$02$02$0A@@Eigen@@V?$Block@$$CBV?$Matrix@M$03$03$0A@$03$03@Eigen@@$02$00$00@2@$0A@@3@$$CBV?$Block@$$CBV?$Matrix@M$03$03$0A@$03$03@Eigen@@$02$00$00@3@@2@U?$assign_op@MM@internal@2@@internal@Eigen@@YAXAEAV?$Block@V?$Matrix@M$03$03$0A@$03$03@Eigen@@$02$00$00@1@AEBV?$CwiseBinaryOp@U?$scalar_sum_op@MM@internal@Eigen@@$$CBV?$Product@V?$Block@$$CBV?$Matrix@M$03$03$0A@$03$03@Eigen@@$02$02$0A@@Eigen@@V?$Block@$$CBV?$Matrix@M$03$03$0A@$03$03@Eigen@@$02$00$00@2@$0A@@3@$$CBV?$Block@$$CBV?$Matrix@M$03$03$0A@$03$03@Eigen@@$02$00$00@3@@1@AEBU?$assign_op@MM@01@@Z
	??$call_dense_assignment_loop@V?$Block@V?$Matrix@M$03$03$0A@$03$03@Eigen@@$02$00$0A@@Eigen@@V?$Matrix@M$02$00$0A@$02$00@2@U?$add_assign_op@MM@internal@2@@internal@Eigen@@YAXAEAV?$Block@V?$Matrix@M$03$03$0A@$03$03@Eigen@@$02$00$0A@@1@AEBV?$Matrix@M$02$00$0A@$02$00@1@AEBU?$add_assign_op@MM@01@@Z
	??$call_dense_assignment_loop@V?$Block@V?$Matrix@M$03$03$0A@$03$03@Eigen@@$02$02$0A@@Eigen@@V?$CwiseNullaryOp@U?$scalar_constant_op@M@internal@Eigen@@V?$Matrix@M$02$02$0A@$02$02@3@@2@U?$mul_assign_op@MM@internal@2@@internal@Eigen@@YAXAEAV?$Block@V?$Matrix@M$03$03$0A@$03$03@Eigen@@$02$02$0A@@1@AEBV?$CwiseNullaryOp@U?$scalar_constant_op@M@internal@Eigen@@V?$Matrix@M$02$02$0A@$02$02@3@@1@AEBU?$mul_assign_op@MM@01@@Z
	??$call_dense_assignment_loop@V?$Block@V?$Matrix@M$03$03$0A@$03$03@Eigen@@$02$02$0A@@Eigen@@V?$Matrix@M$02$02$0A@$02$02@2@U?$assign_op@MM@internal@2@@internal@Eigen@@YAXAEAV?$Block@V?$Matrix@M$03$03$0A@$03$03@Eigen@@$02$02$0A@@1@AEBV?$Matrix@M$02$02$0A@$02$02@1@AEBU?$assign_op@MM@01@@Z
	??$call_dense_assignment_loop@V?$Block@V?$Matrix@M$03$03$0A@$03$03@Eigen@@$02$02$0A@@Eigen@@V?$Product@V?$Block@V?$Matrix@M$03$03$0A@$03$03@Eigen@@$02$02$0A@@Eigen@@V?$DiagonalWrapper@$$CBV?$Matrix@M$02$00$0A@$02$00@Eigen@@@2@$00@2@U?$assign_op@MM@internal@2@@internal@Eigen@@YAXAEAV?$Block@V?$Matrix@M$03$03$0A@$03$03@Eigen@@$02$02$0A@@1@AEBV?$Product@V?$Block@V?$Matrix@M$03$03$0A@$03$03@Eigen@@$02$02$0A@@Eigen@@V?$DiagonalWrapper@$$CBV?$Matrix@M$02$00$0A@$02$00@Eigen@@@2@$00@1@AEBU?$assign_op@MM@01@@Z
	??$call_dense_assignment_loop@V?$Diagonal@V?$Matrix@M$02$02$0A@$02$02@Eigen@@$0A@@Eigen@@V?$CwiseBinaryOp@U?$scalar_sum_op@MM@internal@Eigen@@$$CBV?$ArrayWrapper@$$CBV?$CwiseBinaryOp@U?$scalar_product_op@MM@internal@Eigen@@$$CBV?$Matrix@M$02$00$0A@$02$00@3@$$CBV43@@Eigen@@@3@$$CBV?$CwiseNullaryOp@U?$scalar_constant_op@M@internal@Eigen@@$$CBV?$Array@M$02$00$0A@$02$00@3@@3@@2@U?$assign_op@MM@internal@2@@internal@Eigen@@YAXAEAV?$Diagonal@V?$Matrix@M$02$02$0A@$02$02@Eigen@@$0A@@1@AEBV?$CwiseBinaryOp@U?$scalar_sum_op@MM@internal@Eigen@@$$CBV?$ArrayWrapper@$$CBV?$CwiseBinaryOp@U?$scalar_product_op@MM@internal@Eigen@@$$CBV?$Matrix@M$02$00$0A@$02$00@3@$$CBV43@@Eigen@@@3@$$CBV?$CwiseNullaryOp@U?$scalar_constant_op@M@internal@Eigen@@$$CBV?$Array@M$02$00$0A@$02$00@3@@3@@1@AEBU?$assign_op@MM@01@@Z
	??$call_dense_assignment_loop@V?$Matrix@H$01$00$0A@$01$00@Eigen@@V12@U?$assign_op@HH@internal@2@@internal@Eigen@@YAXAEAV?$Matrix@H$01$00$0A@$01$00@1@AEBV21@AEBU?$assign_op@HH@01@@Z
	??$call_dense_assignment_loop@V?$Matrix@H$01$00$0A@$01$00@Eigen@@V?$CwiseNullaryOp@U?$scalar_constant_op@H@internal@Eigen@@V?$Matrix@H$01$00$0A@$01$00@3@@2@U?$assign_op@HH@internal@2@@internal@Eigen@@YAXAEAV?$Matrix@H$01$00$0A@$01$00@1@AEBV?$CwiseNullaryOp@U?$scalar_constant_op@H@internal@Eigen@@V?$Matrix@H$01$00$0A@$01$00@3@@1@AEBU?$assign_op@HH@01@@Z
	??$call_dense_assignment_loop@V?$Matrix@M$01$00$0A@$01$00@Eigen@@V12@U?$assign_op@MM@internal@2@@internal@Eigen@@YAXAEAV?$Matrix@M$01$00$0A@$01$00@1@AEBV21@AEBU?$assign_op@MM@01@@Z
	??$call_dense_assignment_loop@V?$Matrix@M$01$00$0A@$01$00@Eigen@@V?$CwiseBinaryOp@U?$scalar_difference_op@MM@internal@Eigen@@$$CBV?$Matrix@M$01$00$0A@$01$00@3@$$CBV43@@2@U?$assign_op@MM@internal@2@@internal@Eigen@@YAXAEAV?$Matrix@M$01$00$0A@$01$00@1@AEBV?$CwiseBinaryOp@U?$scalar_difference_op@MM@internal@Eigen@@$$CBV?$Matrix@M$01$00$0A@$01$00@3@$$CBV43@@1@AEBU?$assign_op@MM@01@@Z
	??$call_dense_assignment_loop@V?$Matrix@M$02$00$0A@$02$00@Eigen@@V12@U?$add_assign_op@MM@internal@2@@internal@Eigen@@YAXAEAV?$Matrix@M$02$00$0A@$02$00@1@AEBV21@AEBU?$add_assign_op@MM@01@@Z
	??$call_dense_assignment_loop@V?$Matrix@M$02$00$0A@$02$00@Eigen@@V12@U?$assign_op@MM@internal@2@@internal@Eigen@@YAXAEAV?$Matrix@M$02$00$0A@$02$00@1@AEBV21@AEBU?$assign_op@MM@01@@Z
	??$call_dense_assignment_loop@V?$Matrix@M$02$00$0A@$02$00@Eigen@@V12@U?$swap_assign_op@M@internal@2@@internal@Eigen@@YAXAEAV?$Matrix@M$02$00$0A@$02$00@1@AEBV21@AEBU?$swap_assign_op@M@01@@Z
	??$call_dense_assignment_loop@V?$Matrix@M$02$00$0A@$02$00@Eigen@@V?$Block@$$CBV?$CwiseNullaryOp@U?$scalar_identity_op@M@internal@Eigen@@V?$Matrix@M$02$02$0A@$02$02@3@@Eigen@@$02$00$0A@@2@U?$assign_op@MM@internal@2@@internal@Eigen@@YAXAEAV?$Matrix@M$02$00$0A@$02$00@1@AEBV?$Block@$$CBV?$CwiseNullaryOp@U?$scalar_identity_op@M@internal@Eigen@@V?$Matrix@M$02$02$0A@$02$02@3@@Eigen@@$02$00$0A@@1@AEBU?$assign_op@MM@01@@Z
	??$call_dense_assignment_loop@V?$Matrix@M$02$00$0A@$02$00@Eigen@@V?$CwiseBinaryOp@U?$scalar_product_op@MM@internal@Eigen@@$$CBV?$CwiseNullaryOp@U?$scalar_constant_op@M@internal@Eigen@@$$CBV?$Matrix@M$02$00$0A@$02$00@3@@3@$$CBV?$Matrix@M$02$00$0A@$02$00@3@@2@U?$assign_op@MM@internal@2@@internal@Eigen@@YAXAEAV?$Matrix@M$02$00$0A@$02$00@1@AEBV?$CwiseBinaryOp@U?$scalar_product_op@MM@internal@Eigen@@$$CBV?$CwiseNullaryOp@U?$scalar_constant_op@M@internal@Eigen@@$$CBV?$Matrix@M$02$00$0A@$02$00@3@@3@$$CBV?$Matrix@M$02$00$0A@$02$00@3@@1@AEBU?$assign_op@MM@01@@Z
	??$call_dense_assignment_loop@V?$Matrix@M$02$00$0A@$02$00@Eigen@@V?$CwiseBinaryOp@U?$scalar_product_op@MM@internal@Eigen@@$$CBV?$Matrix@M$02$00$0A@$02$00@3@$$CBV?$CwiseNullaryOp@U?$scalar_constant_op@M@internal@Eigen@@$$CBV?$Matrix@M$02$00$0A@$02$00@3@@3@@2@U?$assign_op@MM@internal@2@@internal@Eigen@@YAXAEAV?$Matrix@M$02$00$0A@$02$00@1@AEBV?$CwiseBinaryOp@U?$scalar_product_op@MM@internal@Eigen@@$$CBV?$Matrix@M$02$00$0A@$02$00@3@$$CBV?$CwiseNullaryOp@U?$scalar_constant_op@M@internal@Eigen@@$$CBV?$Matrix@M$02$00$0A@$02$00@3@@3@@1@AEBU?$assign_op@MM@01@@Z
	??$call_dense_assignment_loop@V?$Matrix@M$02$00$0A@$02$00@Eigen@@V?$CwiseBinaryOp@U?$scalar_quotient_op@MM@internal@Eigen@@$$CBV?$Matrix@M$02$00$0A@$02$00@3@$$CBV?$CwiseNullaryOp@U?$scalar_constant_op@M@internal@Eigen@@$$CBV?$Matrix@M$02$00$0A@$02$00@3@@3@@2@U?$assign_op@MM@internal@2@@internal@Eigen@@YAXAEAV?$Matrix@M$02$00$0A@$02$00@1@AEBV?$CwiseBinaryOp@U?$scalar_quotient_op@MM@internal@Eigen@@$$CBV?$Matrix@M$02$00$0A@$02$00@3@$$CBV?$CwiseNullaryOp@U?$scalar_constant_op@M@internal@Eigen@@$$CBV?$Matrix@M$02$00$0A@$02$00@3@@3@@1@AEBU?$assign_op@MM@01@@Z
	??$call_dense_assignment_loop@V?$Matrix@M$02$00$0A@$02$00@Eigen@@V?$CwiseBinaryOp@U?$scalar_sum_op@MM@internal@Eigen@@$$CBV?$CwiseBinaryOp@U?$scalar_sum_op@MM@internal@Eigen@@$$CBV?$Matrix@M$02$00$0A@$02$00@3@$$CBV?$CwiseBinaryOp@U?$scalar_product_op@MM@internal@Eigen@@$$CBV?$CwiseNullaryOp@U?$scalar_constant_op@M@internal@Eigen@@$$CBV?$Matrix@M$02$00$0A@$02$00@3@@3@$$CBV?$Matrix@M$02$00$0A@$02$00@3@@3@@3@$$CBV?$Matrix@M$02$00$0A@$02$00@3@@2@U?$assign_op@MM@internal@2@@internal@Eigen@@YAXAEAV?$Matrix@M$02$00$0A@$02$00@1@AEBV?$CwiseBinaryOp@U?$scalar_sum_op@MM@internal@Eigen@@$$CBV?$CwiseBinaryOp@U?$scalar_sum_op@MM@internal@Eigen@@$$CBV?$Matrix@M$02$00$0A@$02$00@3@$$CBV?$CwiseBinaryOp@U?$scalar_product_op@MM@internal@Eigen@@$$CBV?$CwiseNullaryOp@U?$scalar_constant_op@M@internal@Eigen@@$$CBV?$Matrix@M$02$00$0A@$02$00@3@@3@$$CBV?$Matrix@M$02$00$0A@$02$00@3@@3@@3@$$CBV?$Matrix@M$02$00$0A@$02$00@3@@1@AEBU?$assign_op@MM@01@@Z
	??$call_dense_assignment_loop@V?$Matrix@M$02$00$0A@$02$00@Eigen@@V?$CwiseBinaryOp@U?$scalar_sum_op@MM@internal@Eigen@@$$CBV?$Matrix@M$02$00$0A@$02$00@3@$$CBV43@@2@U?$assign_op@MM@internal@2@@internal@Eigen@@YAXAEAV?$Matrix@M$02$00$0A@$02$00@1@AEBV?$CwiseBinaryOp@U?$scalar_sum_op@MM@internal@Eigen@@$$CBV?$Matrix@M$02$00$0A@$02$00@3@$$CBV43@@1@AEBU?$assign_op@MM@01@@Z
	??$call_dense_assignment_loop@V?$Matrix@M$02$00$0A@$02$00@Eigen@@V?$CwiseNullaryOp@U?$scalar_constant_op@M@internal@Eigen@@V?$Matrix@M$02$00$0A@$02$00@3@@2@U?$assign_op@MM@internal@2@@internal@Eigen@@YAXAEAV?$Matrix@M$02$00$0A@$02$00@1@AEBV?$CwiseNullaryOp@U?$scalar_constant_op@M@internal@Eigen@@V?$Matrix@M$02$00$0A@$02$00@3@@1@AEBU?$assign_op@MM@01@@Z
	??$call_dense_assignment_loop@V?$Matrix@M$02$00$0A@$02$00@Eigen@@V?$CwiseNullaryOp@U?$scalar_constant_op@M@internal@Eigen@@V?$Matrix@M$02$00$0A@$02$00@3@@2@U?$div_assign_op@MM@internal@2@@internal@Eigen@@YAXAEAV?$Matrix@M$02$00$0A@$02$00@1@AEBV?$CwiseNullaryOp@U?$scalar_constant_op@M@internal@Eigen@@V?$Matrix@M$02$00$0A@$02$00@3@@1@AEBU?$div_assign_op@MM@01@@Z
	??$call_dense_assignment_loop@V?$Matrix@M$02$00$0A@$02$00@Eigen@@V?$Product@V?$Block@$$CBV?$Matrix@M$03$03$0A@$03$03@Eigen@@$02$02$0A@@Eigen@@V?$Block@$$CBV?$Matrix@M$03$03$0A@$03$03@Eigen@@$02$00$00@2@$00@2@U?$assign_op@MM@internal@2@@internal@Eigen@@YAXAEAV?$Matrix@M$02$00$0A@$02$00@1@AEBV?$Product@V?$Block@$$CBV?$Matrix@M$03$03$0A@$03$03@Eigen@@$02$02$0A@@Eigen@@V?$Block@$$CBV?$Matrix@M$03$03$0A@$03$03@Eigen@@$02$00$00@2@$00@1@AEBU?$assign_op@MM@01@@Z
	??$call_dense_assignment_loop@V?$Matrix@M$02$00$0A@$02$00@Eigen@@V?$Product@V?$Block@V?$Matrix@M$03$03$0A@$03$03@Eigen@@$02$02$0A@@Eigen@@V?$CwiseUnaryOp@U?$scalar_opposite_op@M@internal@Eigen@@$$CBV?$Matrix@M$02$00$0A@$02$00@3@@2@$00@2@U?$assign_op@MM@internal@2@@internal@Eigen@@YAXAEAV?$Matrix@M$02$00$0A@$02$00@1@AEBV?$Product@V?$Block@V?$Matrix@M$03$03$0A@$03$03@Eigen@@$02$02$0A@@Eigen@@V?$CwiseUnaryOp@U?$scalar_opposite_op@M@internal@Eigen@@$$CBV?$Matrix@M$02$00$0A@$02$00@3@@2@$00@1@AEBU?$assign_op@MM@01@@Z
	??$call_dense_assignment_loop@V?$Matrix@M$02$00$0A@$02$00@Eigen@@V?$Product@V?$Block@V?$Matrix@M$03$03$0A@$03$03@Eigen@@$02$02$0A@@Eigen@@V?$Matrix@M$02$00$0A@$02$00@2@$00@2@U?$assign_op@MM@internal@2@@internal@Eigen@@YAXAEAV?$Matrix@M$02$00$0A@$02$00@1@AEBV?$Product@V?$Block@V?$Matrix@M$03$03$0A@$03$03@Eigen@@$02$02$0A@@Eigen@@V?$Matrix@M$02$00$0A@$02$00@2@$00@1@AEBU?$assign_op@MM@01@@Z
	??$call_dense_assignment_loop@V?$Matrix@M$02$02$0A@$02$02@Eigen@@V?$Product@V?$Block@$$CBV?$Matrix@M$03$03$0A@$03$03@Eigen@@$02$02$0A@@Eigen@@V12@$00@2@U?$assign_op@MM@internal@2@@internal@Eigen@@YAXAEAV?$Matrix@M$02$02$0A@$02$02@1@AEBV?$Product@V?$Block@$$CBV?$Matrix@M$03$03$0A@$03$03@Eigen@@$02$02$0A@@Eigen@@V12@$00@1@AEBU?$assign_op@MM@01@@Z
	??$call_dense_assignment_loop@V?$Matrix@M$02$02$0A@$02$02@Eigen@@V?$Product@V?$Block@V?$Matrix@M$03$03$0A@$03$03@Eigen@@$02$02$0A@@Eigen@@V?$Matrix@M$02$02$0A@$02$02@2@$00@2@U?$assign_op@MM@internal@2@@internal@Eigen@@YAXAEAV?$Matrix@M$02$02$0A@$02$02@1@AEBV?$Product@V?$Block@V?$Matrix@M$03$03$0A@$03$03@Eigen@@$02$02$0A@@Eigen@@V?$Matrix@M$02$02$0A@$02$02@2@$00@1@AEBU?$assign_op@MM@01@@Z
	??$call_dense_assignment_loop@V?$Matrix@M$03$00$0A@$03$00@Eigen@@V12@U?$assign_op@MM@internal@2@@internal@Eigen@@YAXAEAV?$Matrix@M$03$00$0A@$03$00@1@AEBV21@AEBU?$assign_op@MM@01@@Z
	??$call_dense_assignment_loop@V?$Matrix@M$03$00$0A@$03$00@Eigen@@V12@U?$swap_assign_op@M@internal@2@@internal@Eigen@@YAXAEAV?$Matrix@M$03$00$0A@$03$00@1@AEBV21@AEBU?$swap_assign_op@M@01@@Z
	??$call_dense_assignment_loop@V?$Matrix@M$03$00$0A@$03$00@Eigen@@V?$CwiseBinaryOp@U?$scalar_quotient_op@MM@internal@Eigen@@$$CBV?$Matrix@M$03$00$0A@$03$00@3@$$CBV?$CwiseNullaryOp@U?$scalar_constant_op@M@internal@Eigen@@$$CBV?$Matrix@M$03$00$0A@$03$00@3@@3@@2@U?$assign_op@MM@internal@2@@internal@Eigen@@YAXAEAV?$Matrix@M$03$00$0A@$03$00@1@AEBV?$CwiseBinaryOp@U?$scalar_quotient_op@MM@internal@Eigen@@$$CBV?$Matrix@M$03$00$0A@$03$00@3@$$CBV?$CwiseNullaryOp@U?$scalar_constant_op@M@internal@Eigen@@$$CBV?$Matrix@M$03$00$0A@$03$00@3@@3@@1@AEBU?$assign_op@MM@01@@Z
	??$call_dense_assignment_loop@V?$Matrix@M$03$00$0A@$03$00@Eigen@@V?$CwiseNullaryOp@U?$scalar_constant_op@M@internal@Eigen@@V?$Matrix@M$03$00$0A@$03$00@3@@2@U?$assign_op@MM@internal@2@@internal@Eigen@@YAXAEAV?$Matrix@M$03$00$0A@$03$00@1@AEBV?$CwiseNullaryOp@U?$scalar_constant_op@M@internal@Eigen@@V?$Matrix@M$03$00$0A@$03$00@3@@1@AEBU?$assign_op@MM@01@@Z
	??$call_dense_assignment_loop@V?$Matrix@M$03$00$0A@$03$00@Eigen@@V?$CwiseNullaryOp@U?$scalar_constant_op@M@internal@Eigen@@V?$Matrix@M$03$00$0A@$03$00@3@@2@U?$div_assign_op@MM@internal@2@@internal@Eigen@@YAXAEAV?$Matrix@M$03$00$0A@$03$00@1@AEBV?$CwiseNullaryOp@U?$scalar_constant_op@M@internal@Eigen@@V?$Matrix@M$03$00$0A@$03$00@3@@1@AEBU?$div_assign_op@MM@01@@Z
	??$call_dense_assignment_loop@V?$Matrix@M$03$03$0A@$03$03@Eigen@@V12@U?$assign_op@MM@internal@2@@internal@Eigen@@YAXAEAV?$Matrix@M$03$03$0A@$03$03@1@AEBV21@AEBU?$assign_op@MM@01@@Z
	??$call_dense_assignment_loop@V?$Matrix@M$03$03$0A@$03$03@Eigen@@V?$CwiseNullaryOp@U?$scalar_constant_op@M@internal@Eigen@@V?$Matrix@M$03$03$0A@$03$03@3@@2@U?$assign_op@MM@internal@2@@internal@Eigen@@YAXAEAV?$Matrix@M$03$03$0A@$03$03@1@AEBV?$CwiseNullaryOp@U?$scalar_constant_op@M@internal@Eigen@@V?$Matrix@M$03$03$0A@$03$03@3@@1@AEBU?$assign_op@MM@01@@Z
	??$call_dense_assignment_loop@V?$Matrix@M$03$03$0A@$03$03@Eigen@@V?$CwiseNullaryOp@U?$scalar_identity_op@M@internal@Eigen@@V?$Matrix@M$03$03$0A@$03$03@3@@2@U?$assign_op@MM@internal@2@@internal@Eigen@@YAXAEAV?$Matrix@M$03$03$0A@$03$03@1@AEBV?$CwiseNullaryOp@U?$scalar_identity_op@M@internal@Eigen@@V?$Matrix@M$03$03$0A@$03$03@3@@1@AEBU?$assign_op@MM@01@@Z
	??$checkSanity@V?$Block@$$CBV?$Block@$$CBV?$Matrix@M$03$03$0A@$03$03@Eigen@@$02$00$00@Eigen@@$02$00$00@Eigen@@@?$MapBase@V?$Block@$$CBV?$Block@$$CBV?$Matrix@M$03$03$0A@$03$03@Eigen@@$02$00$00@Eigen@@$02$00$00@Eigen@@$0A@@Eigen@@IEBAXPEAX@Z
	??$checkSanity@V?$Block@$$CBV?$Block@$$CBV?$Matrix@M$03$03$0A@$03$03@Eigen@@$02$02$0A@@Eigen@@$00$02$0A@@Eigen@@@?$MapBase@V?$Block@$$CBV?$Block@$$CBV?$Matrix@M$03$03$0A@$03$03@Eigen@@$02$02$0A@@Eigen@@$00$02$0A@@Eigen@@$0A@@Eigen@@IEBAXPEAX@Z
	??$checkSanity@V?$Block@$$CBV?$Block@$$CBV?$Matrix@M$03$03$0A@$03$03@Eigen@@$02$02$0A@@Eigen@@$02$00$00@Eigen@@@?$MapBase@V?$Block@$$CBV?$Block@$$CBV?$Matrix@M$03$03$0A@$03$03@Eigen@@$02$02$0A@@Eigen@@$02$00$00@Eigen@@$0A@@Eigen@@IEBAXPEAX@Z
	??$checkSanity@V?$Block@$$CBV?$Block@V?$Matrix@M$03$03$0A@$03$03@Eigen@@$02$02$0A@@Eigen@@$00$02$0A@@Eigen@@@?$MapBase@V?$Block@$$CBV?$Block@V?$Matrix@M$03$03$0A@$03$03@Eigen@@$02$02$0A@@Eigen@@$00$02$0A@@Eigen@@$0A@@Eigen@@IEBAXPEAX@Z
	??$checkSanity@V?$Block@$$CBV?$Matrix@M$02$00$0A@$02$00@Eigen@@$02$00$00@Eigen@@@?$MapBase@V?$Block@$$CBV?$Matrix@M$02$00$0A@$02$00@Eigen@@$02$00$00@Eigen@@$0A@@Eigen@@IEBAXPEAX@Z
	??$checkSanity@V?$Block@$$CBV?$Matrix@M$02$02$0A@$02$02@Eigen@@$02$00$00@Eigen@@@?$MapBase@V?$Block@$$CBV?$Matrix@M$02$02$0A@$02$02@Eigen@@$02$00$00@Eigen@@$0A@@Eigen@@IEBAXPEAX@Z
	??$checkSanity@V?$Block@$$CBV?$Matrix@M$03$00$0A@$03$00@Eigen@@$02$00$0A@@Eigen@@@?$MapBase@V?$Block@$$CBV?$Matrix@M$03$00$0A@$03$00@Eigen@@$02$00$0A@@Eigen@@$0A@@Eigen@@IEBAXPEAX@Z
	??$checkSanity@V?$Block@$$CBV?$Matrix@M$03$03$0A@$03$03@Eigen@@$02$00$00@Eigen@@@?$MapBase@V?$Block@$$CBV?$Matrix@M$03$03$0A@$03$03@Eigen@@$02$00$00@Eigen@@$0A@@Eigen@@IEBAXPEAX@Z
	??$checkSanity@V?$Block@$$CBV?$Matrix@M$03$03$0A@$03$03@Eigen@@$02$02$0A@@Eigen@@@?$MapBase@V?$Block@$$CBV?$Matrix@M$03$03$0A@$03$03@Eigen@@$02$02$0A@@Eigen@@$0A@@Eigen@@IEBAXPEAX@Z
	??$checkSanity@V?$Block@V?$Matrix@M$02$00$0A@$02$00@Eigen@@$0?0$00$0A@@Eigen@@@?$MapBase@V?$Block@V?$Matrix@M$02$00$0A@$02$00@Eigen@@$0?0$00$0A@@Eigen@@$0A@@Eigen@@IEBAXPEAX@Z
	??$checkSanity@V?$Block@V?$Matrix@M$03$00$0A@$03$00@Eigen@@$02$00$0A@@Eigen@@@?$MapBase@V?$Block@V?$Matrix@M$03$00$0A@$03$00@Eigen@@$02$00$0A@@Eigen@@$0A@@Eigen@@IEBAXPEAX@Z
	??$checkSanity@V?$Block@V?$Matrix@M$03$03$0A@$03$03@Eigen@@$00$02$0A@@Eigen@@@?$MapBase@V?$Block@V?$Matrix@M$03$03$0A@$03$03@Eigen@@$00$02$0A@@Eigen@@$0A@@Eigen@@IEBAXPEAX@Z
	??$checkSanity@V?$Block@V?$Matrix@M$03$03$0A@$03$03@Eigen@@$02$00$00@Eigen@@@?$MapBase@V?$Block@V?$Matrix@M$03$03$0A@$03$03@Eigen@@$02$00$00@Eigen@@$0A@@Eigen@@IEBAXPEAX@Z
	??$checkSanity@V?$Block@V?$Matrix@M$03$03$0A@$03$03@Eigen@@$02$00$0A@@Eigen@@@?$MapBase@V?$Block@V?$Matrix@M$03$03$0A@$03$03@Eigen@@$02$00$0A@@Eigen@@$0A@@Eigen@@IEBAXPEAX@Z
	??$checkSanity@V?$Block@V?$Matrix@M$03$03$0A@$03$03@Eigen@@$02$02$0A@@Eigen@@@?$MapBase@V?$Block@V?$Matrix@M$03$03$0A@$03$03@Eigen@@$02$02$0A@@Eigen@@$0A@@Eigen@@IEBAXPEAX@Z
	??$check_for_aliasing@V?$Block@V?$Matrix@M$03$00$0A@$03$00@Eigen@@$02$00$0A@@Eigen@@V?$CwiseBinaryOp@U?$scalar_product_op@MM@internal@Eigen@@$$CBV?$CwiseNullaryOp@U?$scalar_constant_op@M@internal@Eigen@@$$CBV?$Matrix@M$02$00$0A@$02$00@3@@3@$$CBV?$Matrix@M$02$00$0A@$02$00@3@@2@@internal@Eigen@@YAXAEBV?$Block@V?$Matrix@M$03$00$0A@$03$00@Eigen@@$02$00$0A@@1@AEBV?$CwiseBinaryOp@U?$scalar_product_op@MM@internal@Eigen@@$$CBV?$CwiseNullaryOp@U?$scalar_constant_op@M@internal@Eigen@@$$CBV?$Matrix@M$02$00$0A@$02$00@3@@3@$$CBV?$Matrix@M$02$00$0A@$02$00@3@@1@@Z
	??$check_for_aliasing@V?$Block@V?$Matrix@M$03$03$0A@$03$03@Eigen@@$00$02$0A@@Eigen@@V?$CwiseNullaryOp@U?$scalar_constant_op@M@internal@Eigen@@V?$Matrix@M$00$02$00$00$02@3@@2@@internal@Eigen@@YAXAEBV?$Block@V?$Matrix@M$03$03$0A@$03$03@Eigen@@$00$02$0A@@1@AEBV?$CwiseNullaryOp@U?$scalar_constant_op@M@internal@Eigen@@V?$Matrix@M$00$02$00$00$02@3@@1@@Z
	??$check_for_aliasing@V?$Block@V?$Matrix@M$03$03$0A@$03$03@Eigen@@$02$00$00@Eigen@@V?$CwiseBinaryOp@U?$scalar_sum_op@MM@internal@Eigen@@$$CBV?$Product@V?$Block@$$CBV?$Matrix@M$03$03$0A@$03$03@Eigen@@$02$02$0A@@Eigen@@V?$Block@$$CBV?$Matrix@M$03$03$0A@$03$03@Eigen@@$02$00$00@2@$0A@@3@$$CBV?$Block@$$CBV?$Matrix@M$03$03$0A@$03$03@Eigen@@$02$00$00@3@@2@@internal@Eigen@@YAXAEBV?$Block@V?$Matrix@M$03$03$0A@$03$03@Eigen@@$02$00$00@1@AEBV?$CwiseBinaryOp@U?$scalar_sum_op@MM@internal@Eigen@@$$CBV?$Product@V?$Block@$$CBV?$Matrix@M$03$03$0A@$03$03@Eigen@@$02$02$0A@@Eigen@@V?$Block@$$CBV?$Matrix@M$03$03$0A@$03$03@Eigen@@$02$00$00@2@$0A@@3@$$CBV?$Block@$$CBV?$Matrix@M$03$03$0A@$03$03@Eigen@@$02$00$00@3@@1@@Z
	??$check_for_aliasing@V?$Block@V?$Matrix@M$03$03$0A@$03$03@Eigen@@$02$00$0A@@Eigen@@V?$Matrix@M$02$00$0A@$02$00@2@@internal@Eigen@@YAXAEBV?$Block@V?$Matrix@M$03$03$0A@$03$03@Eigen@@$02$00$0A@@1@AEBV?$Matrix@M$02$00$0A@$02$00@1@@Z
	??$check_for_aliasing@V?$Block@V?$Matrix@M$03$03$0A@$03$03@Eigen@@$02$02$0A@@Eigen@@V?$CwiseNullaryOp@U?$scalar_constant_op@M@internal@Eigen@@V?$Matrix@M$02$02$0A@$02$02@3@@2@@internal@Eigen@@YAXAEBV?$Block@V?$Matrix@M$03$03$0A@$03$03@Eigen@@$02$02$0A@@1@AEBV?$CwiseNullaryOp@U?$scalar_constant_op@M@internal@Eigen@@V?$Matrix@M$02$02$0A@$02$02@3@@1@@Z
	??$check_for_aliasing@V?$Block@V?$Matrix@M$03$03$0A@$03$03@Eigen@@$02$02$0A@@Eigen@@V?$Matrix@M$02$02$0A@$02$02@2@@internal@Eigen@@YAXAEBV?$Block@V?$Matrix@M$03$03$0A@$03$03@Eigen@@$02$02$0A@@1@AEBV?$Matrix@M$02$02$0A@$02$02@1@@Z
	??$check_for_aliasing@V?$Block@V?$Matrix@M$03$03$0A@$03$03@Eigen@@$02$02$0A@@Eigen@@V?$Product@V?$Block@V?$Matrix@M$03$03$0A@$03$03@Eigen@@$02$02$0A@@Eigen@@V?$DiagonalWrapper@$$CBV?$Matrix@M$02$00$0A@$02$00@Eigen@@@2@$00@2@@internal@Eigen@@YAXAEBV?$Block@V?$Matrix@M$03$03$0A@$03$03@Eigen@@$02$02$0A@@1@AEBV?$Product@V?$Block@V?$Matrix@M$03$03$0A@$03$03@Eigen@@$02$02$0A@@Eigen@@V?$DiagonalWrapper@$$CBV?$Matrix@M$02$00$0A@$02$00@Eigen@@@2@$00@1@@Z
	??$check_for_aliasing@V?$Diagonal@V?$Matrix@M$02$02$0A@$02$02@Eigen@@$0A@@Eigen@@V?$CwiseBinaryOp@U?$scalar_sum_op@MM@internal@Eigen@@$$CBV?$ArrayWrapper@$$CBV?$CwiseBinaryOp@U?$scalar_product_op@MM@internal@Eigen@@$$CBV?$Matrix@M$02$00$0A@$02$00@3@$$CBV43@@Eigen@@@3@$$CBV?$CwiseNullaryOp@U?$scalar_constant_op@M@internal@Eigen@@$$CBV?$Array@M$02$00$0A@$02$00@3@@3@@2@@internal@Eigen@@YAXAEBV?$Diagonal@V?$Matrix@M$02$02$0A@$02$02@Eigen@@$0A@@1@AEBV?$CwiseBinaryOp@U?$scalar_sum_op@MM@internal@Eigen@@$$CBV?$ArrayWrapper@$$CBV?$CwiseBinaryOp@U?$scalar_product_op@MM@internal@Eigen@@$$CBV?$Matrix@M$02$00$0A@$02$00@3@$$CBV43@@Eigen@@@3@$$CBV?$CwiseNullaryOp@U?$scalar_constant_op@M@internal@Eigen@@$$CBV?$Array@M$02$00$0A@$02$00@3@@3@@1@@Z
	??$check_for_aliasing@V?$Matrix@H$01$00$0A@$01$00@Eigen@@V12@@internal@Eigen@@YAXAEBV?$Matrix@H$01$00$0A@$01$00@1@0@Z
	??$check_for_aliasing@V?$Matrix@H$01$00$0A@$01$00@Eigen@@V?$CwiseNullaryOp@U?$scalar_constant_op@H@internal@Eigen@@V?$Matrix@H$01$00$0A@$01$00@3@@2@@internal@Eigen@@YAXAEBV?$Matrix@H$01$00$0A@$01$00@1@AEBV?$CwiseNullaryOp@U?$scalar_constant_op@H@internal@Eigen@@V?$Matrix@H$01$00$0A@$01$00@3@@1@@Z
	??$check_for_aliasing@V?$Matrix@M$01$00$0A@$01$00@Eigen@@V12@@internal@Eigen@@YAXAEBV?$Matrix@M$01$00$0A@$01$00@1@0@Z
	??$check_for_aliasing@V?$Matrix@M$01$00$0A@$01$00@Eigen@@V?$CwiseBinaryOp@U?$scalar_difference_op@MM@internal@Eigen@@$$CBV?$Matrix@M$01$00$0A@$01$00@3@$$CBV43@@2@@internal@Eigen@@YAXAEBV?$Matrix@M$01$00$0A@$01$00@1@AEBV?$CwiseBinaryOp@U?$scalar_difference_op@MM@internal@Eigen@@$$CBV?$Matrix@M$01$00$0A@$01$00@3@$$CBV43@@1@@Z
	??$check_for_aliasing@V?$Matrix@M$02$00$0A@$02$00@Eigen@@V12@@internal@Eigen@@YAXAEBV?$Matrix@M$02$00$0A@$02$00@1@0@Z
	??$check_for_aliasing@V?$Matrix@M$02$00$0A@$02$00@Eigen@@V?$Block@$$CBV?$CwiseNullaryOp@U?$scalar_identity_op@M@internal@Eigen@@V?$Matrix@M$02$02$0A@$02$02@3@@Eigen@@$02$00$0A@@2@@internal@Eigen@@YAXAEBV?$Matrix@M$02$00$0A@$02$00@1@AEBV?$Block@$$CBV?$CwiseNullaryOp@U?$scalar_identity_op@M@internal@Eigen@@V?$Matrix@M$02$02$0A@$02$02@3@@Eigen@@$02$00$0A@@1@@Z
	??$check_for_aliasing@V?$Matrix@M$02$00$0A@$02$00@Eigen@@V?$CwiseBinaryOp@U?$scalar_product_op@MM@internal@Eigen@@$$CBV?$CwiseNullaryOp@U?$scalar_constant_op@M@internal@Eigen@@$$CBV?$Matrix@M$02$00$0A@$02$00@3@@3@$$CBV?$Matrix@M$02$00$0A@$02$00@3@@2@@internal@Eigen@@YAXAEBV?$Matrix@M$02$00$0A@$02$00@1@AEBV?$CwiseBinaryOp@U?$scalar_product_op@MM@internal@Eigen@@$$CBV?$CwiseNullaryOp@U?$scalar_constant_op@M@internal@Eigen@@$$CBV?$Matrix@M$02$00$0A@$02$00@3@@3@$$CBV?$Matrix@M$02$00$0A@$02$00@3@@1@@Z
	??$check_for_aliasing@V?$Matrix@M$02$00$0A@$02$00@Eigen@@V?$CwiseBinaryOp@U?$scalar_product_op@MM@internal@Eigen@@$$CBV?$Matrix@M$02$00$0A@$02$00@3@$$CBV?$CwiseNullaryOp@U?$scalar_constant_op@M@internal@Eigen@@$$CBV?$Matrix@M$02$00$0A@$02$00@3@@3@@2@@internal@Eigen@@YAXAEBV?$Matrix@M$02$00$0A@$02$00@1@AEBV?$CwiseBinaryOp@U?$scalar_product_op@MM@internal@Eigen@@$$CBV?$Matrix@M$02$00$0A@$02$00@3@$$CBV?$CwiseNullaryOp@U?$scalar_constant_op@M@internal@Eigen@@$$CBV?$Matrix@M$02$00$0A@$02$00@3@@3@@1@@Z
	??$check_for_aliasing@V?$Matrix@M$02$00$0A@$02$00@Eigen@@V?$CwiseBinaryOp@U?$scalar_quotient_op@MM@internal@Eigen@@$$CBV?$Matrix@M$02$00$0A@$02$00@3@$$CBV?$CwiseNullaryOp@U?$scalar_constant_op@M@internal@Eigen@@$$CBV?$Matrix@M$02$00$0A@$02$00@3@@3@@2@@internal@Eigen@@YAXAEBV?$Matrix@M$02$00$0A@$02$00@1@AEBV?$CwiseBinaryOp@U?$scalar_quotient_op@MM@internal@Eigen@@$$CBV?$Matrix@M$02$00$0A@$02$00@3@$$CBV?$CwiseNullaryOp@U?$scalar_constant_op@M@internal@Eigen@@$$CBV?$Matrix@M$02$00$0A@$02$00@3@@3@@1@@Z
	??$check_for_aliasing@V?$Matrix@M$02$00$0A@$02$00@Eigen@@V?$CwiseBinaryOp@U?$scalar_sum_op@MM@internal@Eigen@@$$CBV?$CwiseBinaryOp@U?$scalar_sum_op@MM@internal@Eigen@@$$CBV?$Matrix@M$02$00$0A@$02$00@3@$$CBV?$CwiseBinaryOp@U?$scalar_product_op@MM@internal@Eigen@@$$CBV?$CwiseNullaryOp@U?$scalar_constant_op@M@internal@Eigen@@$$CBV?$Matrix@M$02$00$0A@$02$00@3@@3@$$CBV?$Matrix@M$02$00$0A@$02$00@3@@3@@3@$$CBV?$Matrix@M$02$00$0A@$02$00@3@@2@@internal@Eigen@@YAXAEBV?$Matrix@M$02$00$0A@$02$00@1@AEBV?$CwiseBinaryOp@U?$scalar_sum_op@MM@internal@Eigen@@$$CBV?$CwiseBinaryOp@U?$scalar_sum_op@MM@internal@Eigen@@$$CBV?$Matrix@M$02$00$0A@$02$00@3@$$CBV?$CwiseBinaryOp@U?$scalar_product_op@MM@internal@Eigen@@$$CBV?$CwiseNullaryOp@U?$scalar_constant_op@M@internal@Eigen@@$$CBV?$Matrix@M$02$00$0A@$02$00@3@@3@$$CBV?$Matrix@M$02$00$0A@$02$00@3@@3@@3@$$CBV?$Matrix@M$02$00$0A@$02$00@3@@1@@Z
	??$check_for_aliasing@V?$Matrix@M$02$00$0A@$02$00@Eigen@@V?$CwiseBinaryOp@U?$scalar_sum_op@MM@internal@Eigen@@$$CBV?$Matrix@M$02$00$0A@$02$00@3@$$CBV43@@2@@internal@Eigen@@YAXAEBV?$Matrix@M$02$00$0A@$02$00@1@AEBV?$CwiseBinaryOp@U?$scalar_sum_op@MM@internal@Eigen@@$$CBV?$Matrix@M$02$00$0A@$02$00@3@$$CBV43@@1@@Z
	??$check_for_aliasing@V?$Matrix@M$02$00$0A@$02$00@Eigen@@V?$CwiseNullaryOp@U?$scalar_constant_op@M@internal@Eigen@@V?$Matrix@M$02$00$0A@$02$00@3@@2@@internal@Eigen@@YAXAEBV?$Matrix@M$02$00$0A@$02$00@1@AEBV?$CwiseNullaryOp@U?$scalar_constant_op@M@internal@Eigen@@V?$Matrix@M$02$00$0A@$02$00@3@@1@@Z
	??$check_for_aliasing@V?$Matrix@M$02$00$0A@$02$00@Eigen@@V?$Product@V?$Block@$$CBV?$Matrix@M$03$03$0A@$03$03@Eigen@@$02$02$0A@@Eigen@@V?$Block@$$CBV?$Matrix@M$03$03$0A@$03$03@Eigen@@$02$00$00@2@$00@2@@internal@Eigen@@YAXAEBV?$Matrix@M$02$00$0A@$02$00@1@AEBV?$Product@V?$Block@$$CBV?$Matrix@M$03$03$0A@$03$03@Eigen@@$02$02$0A@@Eigen@@V?$Block@$$CBV?$Matrix@M$03$03$0A@$03$03@Eigen@@$02$00$00@2@$00@1@@Z
	??$check_for_aliasing@V?$Matrix@M$02$00$0A@$02$00@Eigen@@V?$Product@V?$Block@V?$Matrix@M$03$03$0A@$03$03@Eigen@@$02$02$0A@@Eigen@@V?$CwiseUnaryOp@U?$scalar_opposite_op@M@internal@Eigen@@$$CBV?$Matrix@M$02$00$0A@$02$00@3@@2@$00@2@@internal@Eigen@@YAXAEBV?$Matrix@M$02$00$0A@$02$00@1@AEBV?$Product@V?$Block@V?$Matrix@M$03$03$0A@$03$03@Eigen@@$02$02$0A@@Eigen@@V?$CwiseUnaryOp@U?$scalar_opposite_op@M@internal@Eigen@@$$CBV?$Matrix@M$02$00$0A@$02$00@3@@2@$00@1@@Z
	??$check_for_aliasing@V?$Matrix@M$02$00$0A@$02$00@Eigen@@V?$Product@V?$Block@V?$Matrix@M$03$03$0A@$03$03@Eigen@@$02$02$0A@@Eigen@@V?$Matrix@M$02$00$0A@$02$00@2@$00@2@@internal@Eigen@@YAXAEBV?$Matrix@M$02$00$0A@$02$00@1@AEBV?$Product@V?$Block@V?$Matrix@M$03$03$0A@$03$03@Eigen@@$02$02$0A@@Eigen@@V?$Matrix@M$02$00$0A@$02$00@2@$00@1@@Z
	??$check_for_aliasing@V?$Matrix@M$02$02$0A@$02$02@Eigen@@V?$Product@V?$Block@$$CBV?$Matrix@M$03$03$0A@$03$03@Eigen@@$02$02$0A@@Eigen@@V12@$00@2@@internal@Eigen@@YAXAEBV?$Matrix@M$02$02$0A@$02$02@1@AEBV?$Product@V?$Block@$$CBV?$Matrix@M$03$03$0A@$03$03@Eigen@@$02$02$0A@@Eigen@@V12@$00@1@@Z
	??$check_for_aliasing@V?$Matrix@M$02$02$0A@$02$02@Eigen@@V?$Product@V?$Block@V?$Matrix@M$03$03$0A@$03$03@Eigen@@$02$02$0A@@Eigen@@V?$Matrix@M$02$02$0A@$02$02@2@$00@2@@internal@Eigen@@YAXAEBV?$Matrix@M$02$02$0A@$02$02@1@AEBV?$Product@V?$Block@V?$Matrix@M$03$03$0A@$03$03@Eigen@@$02$02$0A@@Eigen@@V?$Matrix@M$02$02$0A@$02$02@2@$00@1@@Z
	??$check_for_aliasing@V?$Matrix@M$03$00$0A@$03$00@Eigen@@V12@@internal@Eigen@@YAXAEBV?$Matrix@M$03$00$0A@$03$00@1@0@Z
	??$check_for_aliasing@V?$Matrix@M$03$00$0A@$03$00@Eigen@@V?$CwiseBinaryOp@U?$scalar_quotient_op@MM@internal@Eigen@@$$CBV?$Matrix@M$03$00$0A@$03$00@3@$$CBV?$CwiseNullaryOp@U?$scalar_constant_op@M@internal@Eigen@@$$CBV?$Matrix@M$03$00$0A@$03$00@3@@3@@2@@internal@Eigen@@YAXAEBV?$Matrix@M$03$00$0A@$03$00@1@AEBV?$CwiseBinaryOp@U?$scalar_quotient_op@MM@internal@Eigen@@$$CBV?$Matrix@M$03$00$0A@$03$00@3@$$CBV?$CwiseNullaryOp@U?$scalar_constant_op@M@internal@Eigen@@$$CBV?$Matrix@M$03$00$0A@$03$00@3@@3@@1@@Z
	??$check_for_aliasing@V?$Matrix@M$03$00$0A@$03$00@Eigen@@V?$CwiseNullaryOp@U?$scalar_constant_op@M@internal@Eigen@@V?$Matrix@M$03$00$0A@$03$00@3@@2@@internal@Eigen@@YAXAEBV?$Matrix@M$03$00$0A@$03$00@1@AEBV?$CwiseNullaryOp@U?$scalar_constant_op@M@internal@Eigen@@V?$Matrix@M$03$00$0A@$03$00@3@@1@@Z
	??$check_for_aliasing@V?$Matrix@M$03$03$0A@$03$03@Eigen@@V12@@internal@Eigen@@YAXAEBV?$Matrix@M$03$03$0A@$03$03@1@0@Z
	??$check_for_aliasing@V?$Matrix@M$03$03$0A@$03$03@Eigen@@V?$CwiseNullaryOp@U?$scalar_constant_op@M@internal@Eigen@@V?$Matrix@M$03$03$0A@$03$03@3@@2@@internal@Eigen@@YAXAEBV?$Matrix@M$03$03$0A@$03$03@1@AEBV?$CwiseNullaryOp@U?$scalar_constant_op@M@internal@Eigen@@V?$Matrix@M$03$03$0A@$03$03@3@@1@@Z
	??$check_for_aliasing@V?$Matrix@M$03$03$0A@$03$03@Eigen@@V?$CwiseNullaryOp@U?$scalar_identity_op@M@internal@Eigen@@V?$Matrix@M$03$03$0A@$03$03@3@@2@@internal@Eigen@@YAXAEBV?$Matrix@M$03$03$0A@$03$03@1@AEBV?$CwiseNullaryOp@U?$scalar_identity_op@M@internal@Eigen@@V?$Matrix@M$03$03$0A@$03$03@3@@1@@Z
	??$check_static_allocation_size@H$01@internal@Eigen@@YAXXZ
	??$check_static_allocation_size@M$01@internal@Eigen@@YAXXZ
	??$check_static_allocation_size@M$02@internal@Eigen@@YAXXZ
	??$check_static_allocation_size@M$03@internal@Eigen@@YAXXZ
	??$check_static_allocation_size@M$08@internal@Eigen@@YAXXZ
	??$check_static_allocation_size@M$0BA@@internal@Eigen@@YAXXZ
	??$coeff@_J@?$evaluator@V?$CwiseNullaryOp@U?$scalar_constant_op@H@internal@Eigen@@V?$Matrix@H$01$00$0A@$01$00@3@@Eigen@@@internal@Eigen@@QEBAH_J0@Z
	??$coeff@_J@?$evaluator@V?$CwiseNullaryOp@U?$scalar_constant_op@M@internal@Eigen@@$$CBV?$Array@M$02$00$0A@$02$00@3@@Eigen@@@internal@Eigen@@QEBAM_J@Z
	??$coeff@_J@?$evaluator@V?$CwiseNullaryOp@U?$scalar_constant_op@M@internal@Eigen@@$$CBV?$Matrix@M$02$00$0A@$02$00@3@@Eigen@@@internal@Eigen@@QEBAM_J0@Z
	??$coeff@_J@?$evaluator@V?$CwiseNullaryOp@U?$scalar_constant_op@M@internal@Eigen@@V?$Matrix@M$00$02$00$00$02@3@@Eigen@@@internal@Eigen@@QEBAM_J@Z
	??$coeff@_J@?$evaluator@V?$CwiseNullaryOp@U?$scalar_constant_op@M@internal@Eigen@@V?$Matrix@M$02$00$0A@$02$00@3@@Eigen@@@internal@Eigen@@QEBAM_J0@Z
	??$coeff@_J@?$evaluator@V?$CwiseNullaryOp@U?$scalar_constant_op@M@internal@Eigen@@V?$Matrix@M$02$02$0A@$02$02@3@@Eigen@@@internal@Eigen@@QEBAM_J0@Z
	??$coeff@_J@?$evaluator@V?$CwiseNullaryOp@U?$scalar_identity_op@M@internal@Eigen@@V?$Matrix@M$02$02$0A@$02$02@3@@Eigen@@@internal@Eigen@@QEBAM_J0@Z
	??$coeff@_J@?$evaluator@V?$CwiseNullaryOp@U?$scalar_identity_op@M@internal@Eigen@@V?$Matrix@M$03$03$0A@$03$03@3@@Eigen@@@internal@Eigen@@QEBAM_J0@Z
	??$conj@M@numext@Eigen@@YAMAEBM@Z
	??$construct@HH@?$_Default_allocator_traits@V?$allocator@H@std@@@std@@SAXAEAV?$allocator@H@1@QEAH$$QEAH@Z
	??$construct@IAEBI@?$_Default_allocator_traits@V?$allocator@I@std@@@std@@SAXAEAV?$allocator@I@1@QEAIAEBI@Z
	??$construct@II@?$_Default_allocator_traits@V?$allocator@I@std@@@std@@SAXAEAV?$allocator@I@1@QEAI$$QEAI@Z
	??$construct@MAEBM@?$_Default_allocator_traits@V?$allocator@M@std@@@std@@SAXAEAV?$allocator@M@1@QEAMAEBM@Z
	??$construct@MM@?$_Default_allocator_traits@V?$allocator@M@std@@@std@@SAXAEAV?$allocator@M@1@QEAM$$QEAM@Z
	??$construct@PEADAEBQEAD@?$_Default_allocator_traits@V?$allocator@D@std@@@std@@SAXAEAV?$allocator@D@1@QEAPEADAEBQEAD@Z
	??$construct@PEAVElement@GUI@Tucano@@AEBQEAV123@@?$_Default_allocator_traits@V?$allocator@PEAVElement@GUI@Tucano@@@std@@@std@@SAXAEAV?$allocator@PEAVElement@GUI@Tucano@@@1@QEAPEAVElement@GUI@Tucano@@AEBQEAV345@@Z
	??$construct@PEAVShader@Tucano@@AEBQEAV12@@?$_Default_allocator_traits@V?$allocator@PEAVShader@Tucano@@@std@@@std@@SAXAEAV?$allocator@PEAVShader@Tucano@@@1@QEAPEAVShader@Tucano@@AEBQEAV34@@Z
	??$construct@PEAVShader@Tucano@@PEAV12@@?$_Default_allocator_traits@V?$allocator@PEAVShader@Tucano@@@std@@@std@@SAXAEAV?$allocator@PEAVShader@Tucano@@@1@QEAPEAVShader@Tucano@@$$QEAPEAV34@@Z
	??$construct@U_Container_proxy@std@@U12@@?$_Default_allocator_traits@V?$allocator@U_Container_proxy@std@@@std@@@std@@SAXAEAV?$allocator@U_Container_proxy@std@@@1@QEAU_Container_proxy@1@$$QEAU31@@Z
	??$construct@V?$Matrix@M$01$00$0A@$01$00@Eigen@@AEBV12@@?$_Default_allocator_traits@V?$allocator@V?$Matrix@M$01$00$0A@$01$00@Eigen@@@std@@@std@@SAXAEAV?$allocator@V?$Matrix@M$01$00$0A@$01$00@Eigen@@@1@QEAV?$Matrix@M$01$00$0A@$01$00@Eigen@@AEBV34@@Z
	??$construct@V?$Matrix@M$01$00$0A@$01$00@Eigen@@V12@@?$_Default_allocator_traits@V?$allocator@V?$Matrix@M$01$00$0A@$01$00@Eigen@@@std@@@std@@SAXAEAV?$allocator@V?$Matrix@M$01$00$0A@$01$00@Eigen@@@1@QEAV?$Matrix@M$01$00$0A@$01$00@Eigen@@$$QEAV34@@Z
	??$construct@V?$Matrix@M$02$00$0A@$02$00@Eigen@@AEAV12@@?$_Default_allocator_traits@V?$allocator@V?$Matrix@M$02$00$0A@$02$00@Eigen@@@std@@@std@@SAXAEAV?$allocator@V?$Matrix@M$02$00$0A@$02$00@Eigen@@@1@QEAV?$Matrix@M$02$00$0A@$02$00@Eigen@@AEAV34@@Z
	??$construct@V?$Matrix@M$02$00$0A@$02$00@Eigen@@AEBV12@@?$_Default_allocator_traits@V?$allocator@V?$Matrix@M$02$00$0A@$02$00@Eigen@@@std@@@std@@SAXAEAV?$allocator@V?$Matrix@M$02$00$0A@$02$00@Eigen@@@1@QEAV?$Matrix@M$02$00$0A@$02$00@Eigen@@AEBV34@@Z
	??$construct@V?$Matrix@M$02$00$0A@$02$00@Eigen@@V12@@?$_Default_allocator_traits@V?$allocator@V?$Matrix@M$02$00$0A@$02$00@Eigen@@@std@@@std@@SAXAEAV?$allocator@V?$Matrix@M$02$00$0A@$02$00@Eigen@@@1@QEAV?$Matrix@M$02$00$0A@$02$00@Eigen@@$$QEAV34@@Z
	??$construct@V?$Matrix@M$03$00$0A@$03$00@Eigen@@AEAV12@@?$_Default_allocator_traits@V?$allocator@V?$Matrix@M$03$00$0A@$03$00@Eigen@@@std@@@std@@SAXAEAV?$allocator@V?$Matrix@M$03$00$0A@$03$00@Eigen@@@1@QEAV?$Matrix@M$03$00$0A@$03$00@Eigen@@AEAV34@@Z
	??$construct@V?$Matrix@M$03$00$0A@$03$00@Eigen@@AEBV12@@?$_Default_allocator_traits@V?$allocator@V?$Matrix@M$03$00$0A@$03$00@Eigen@@@std@@@std@@SAXAEAV?$allocator@V?$Matrix@M$03$00$0A@$03$00@Eigen@@@1@QEAV?$Matrix@M$03$00$0A@$03$00@Eigen@@AEBV34@@Z
	??$construct@V?$Matrix@M$03$00$0A@$03$00@Eigen@@V12@@?$_Default_allocator_traits@V?$allocator@V?$Matrix@M$03$00$0A@$03$00@Eigen@@@std@@@std@@SAXAEAV?$allocator@V?$Matrix@M$03$00$0A@$03$00@Eigen@@@1@QEAV?$Matrix@M$03$00$0A@$03$00@Eigen@@$$QEAV34@@Z
	??$construct@VVertexAttribute@Tucano@@AEAV12@@?$_Default_allocator_traits@V?$allocator@VVertexAttribute@Tucano@@@std@@@std@@SAXAEAV?$allocator@VVertexAttribute@Tucano@@@1@QEAVVertexAttribute@Tucano@@AEAV34@@Z
	??$construct@VVertexAttribute@Tucano@@AEBV12@@?$_Default_allocator_traits@V?$allocator@VVertexAttribute@Tucano@@@std@@@std@@SAXAEAV?$allocator@VVertexAttribute@Tucano@@@1@QEAVVertexAttribute@Tucano@@AEBV34@@Z
	??$construct@VVertexAttribute@Tucano@@V12@@?$_Default_allocator_traits@V?$allocator@VVertexAttribute@Tucano@@@std@@@std@@SAXAEAV?$allocator@VVertexAttribute@Tucano@@@1@QEAVVertexAttribute@Tucano@@$$QEAV34@@Z
	??$cross@V?$Matrix@M$02$00$0A@$02$00@Eigen@@@?$MatrixBase@V?$Block@$$CBV?$Matrix@M$03$00$0A@$03$00@Eigen@@$02$00$0A@@Eigen@@@Eigen@@QEBA?AV?$Matrix@M$02$00$0A@$02$00@1@AEBV?$MatrixBase@V?$Matrix@M$02$00$0A@$02$00@Eigen@@@1@@Z
	??$cross@V?$Matrix@M$02$00$0A@$02$00@Eigen@@@?$MatrixBase@V?$Matrix@M$02$00$0A@$02$00@Eigen@@@Eigen@@QEBA?AV?$Matrix@M$02$00$0A@$02$00@1@AEBV01@@Z
	??$cwiseNotEqual@V?$Block@V?$Matrix@M$02$00$0A@$02$00@Eigen@@$0?0$00$0A@@Eigen@@@?$MatrixBase@V?$Matrix@M$01$00$0A@$01$00@Eigen@@@Eigen@@QEBA?BV?$CwiseBinaryOp@U?$not_equal_to@M@std@@$$CBV?$Matrix@M$01$00$0A@$01$00@Eigen@@$$CBV?$Block@V?$Matrix@M$02$00$0A@$02$00@Eigen@@$0?0$00$0A@@4@@1@AEBV?$MatrixBase@V?$Block@V?$Matrix@M$02$00$0A@$02$00@Eigen@@$0?0$00$0A@@Eigen@@@1@@Z
	??$cwiseNotEqual@V?$CwiseNullaryOp@U?$scalar_identity_op@M@internal@Eigen@@V?$Matrix@M$03$03$0A@$03$03@3@@Eigen@@@?$MatrixBase@V?$Matrix@M$03$03$0A@$03$03@Eigen@@@Eigen@@QEBA?BV?$CwiseBinaryOp@U?$not_equal_to@M@std@@$$CBV?$Matrix@M$03$03$0A@$03$03@Eigen@@$$CBV?$CwiseNullaryOp@U?$scalar_identity_op@M@internal@Eigen@@V?$Matrix@M$03$03$0A@$03$03@3@@4@@1@AEBV?$MatrixBase@V?$CwiseNullaryOp@U?$scalar_identity_op@M@internal@Eigen@@V?$Matrix@M$03$03$0A@$03$03@3@@Eigen@@@1@@Z
	??$cwiseProduct@V?$Block@$$CBV?$Block@$$CBV?$Matrix@M$03$03$0A@$03$03@Eigen@@$02$00$00@Eigen@@$02$00$00@Eigen@@@?$MatrixBase@V?$Transpose@$$CBV?$Block@$$CBV?$Block@$$CBV?$Matrix@M$03$03$0A@$03$03@Eigen@@$02$02$0A@@Eigen@@$00$02$0A@@Eigen@@@Eigen@@@Eigen@@QEBA?BV?$CwiseBinaryOp@U?$scalar_product_op@MM@internal@Eigen@@$$CBV?$Transpose@$$CBV?$Block@$$CBV?$Block@$$CBV?$Matrix@M$03$03$0A@$03$03@Eigen@@$02$02$0A@@Eigen@@$00$02$0A@@Eigen@@@3@$$CBV?$Block@$$CBV?$Block@$$CBV?$Matrix@M$03$03$0A@$03$03@Eigen@@$02$00$00@Eigen@@$02$00$00@3@@1@AEBV?$MatrixBase@V?$Block@$$CBV?$Block@$$CBV?$Matrix@M$03$03$0A@$03$03@Eigen@@$02$00$00@Eigen@@$02$00$00@Eigen@@@1@@Z
	??$cwiseProduct@V?$Block@$$CBV?$Block@$$CBV?$Matrix@M$03$03$0A@$03$03@Eigen@@$02$02$0A@@Eigen@@$02$00$00@Eigen@@@?$MatrixBase@V?$Transpose@$$CBV?$Block@$$CBV?$Block@$$CBV?$Matrix@M$03$03$0A@$03$03@Eigen@@$02$02$0A@@Eigen@@$00$02$0A@@Eigen@@@Eigen@@@Eigen@@QEBA?BV?$CwiseBinaryOp@U?$scalar_product_op@MM@internal@Eigen@@$$CBV?$Transpose@$$CBV?$Block@$$CBV?$Block@$$CBV?$Matrix@M$03$03$0A@$03$03@Eigen@@$02$02$0A@@Eigen@@$00$02$0A@@Eigen@@@3@$$CBV?$Block@$$CBV?$Block@$$CBV?$Matrix@M$03$03$0A@$03$03@Eigen@@$02$02$0A@@Eigen@@$02$00$00@3@@1@AEBV?$MatrixBase@V?$Block@$$CBV?$Block@$$CBV?$Matrix@M$03$03$0A@$03$03@Eigen@@$02$02$0A@@Eigen@@$02$00$00@Eigen@@@1@@Z
	??$cwiseProduct@V?$Block@$$CBV?$CwiseUnaryOp@U?$scalar_opposite_op@M@internal@Eigen@@$$CBV?$Matrix@M$02$00$0A@$02$00@3@@Eigen@@$02$00$00@Eigen@@@?$MatrixBase@V?$Transpose@$$CBV?$Block@$$CBV?$Block@V?$Matrix@M$03$03$0A@$03$03@Eigen@@$02$02$0A@@Eigen@@$00$02$0A@@Eigen@@@Eigen@@@Eigen@@QEBA?BV?$CwiseBinaryOp@U?$scalar_product_op@MM@internal@Eigen@@$$CBV?$Transpose@$$CBV?$Block@$$CBV?$Block@V?$Matrix@M$03$03$0A@$03$03@Eigen@@$02$02$0A@@Eigen@@$00$02$0A@@Eigen@@@3@$$CBV?$Block@$$CBV?$CwiseUnaryOp@U?$scalar_opposite_op@M@internal@Eigen@@$$CBV?$Matrix@M$02$00$0A@$02$00@3@@Eigen@@$02$00$00@3@@1@AEBV?$MatrixBase@V?$Block@$$CBV?$CwiseUnaryOp@U?$scalar_opposite_op@M@internal@Eigen@@$$CBV?$Matrix@M$02$00$0A@$02$00@3@@Eigen@@$02$00$00@Eigen@@@1@@Z
	??$cwiseProduct@V?$Block@$$CBV?$Matrix@M$02$00$0A@$02$00@Eigen@@$02$00$00@Eigen@@@?$MatrixBase@V?$Transpose@$$CBV?$Block@$$CBV?$Block@V?$Matrix@M$03$03$0A@$03$03@Eigen@@$02$02$0A@@Eigen@@$00$02$0A@@Eigen@@@Eigen@@@Eigen@@QEBA?BV?$CwiseBinaryOp@U?$scalar_product_op@MM@internal@Eigen@@$$CBV?$Transpose@$$CBV?$Block@$$CBV?$Block@V?$Matrix@M$03$03$0A@$03$03@Eigen@@$02$02$0A@@Eigen@@$00$02$0A@@Eigen@@@3@$$CBV?$Block@$$CBV?$Matrix@M$02$00$0A@$02$00@Eigen@@$02$00$00@3@@1@AEBV?$MatrixBase@V?$Block@$$CBV?$Matrix@M$02$00$0A@$02$00@Eigen@@$02$00$00@Eigen@@@1@@Z
	??$cwiseProduct@V?$Block@$$CBV?$Matrix@M$02$02$0A@$02$02@Eigen@@$02$00$00@Eigen@@@?$MatrixBase@V?$Transpose@$$CBV?$Block@$$CBV?$Block@V?$Matrix@M$03$03$0A@$03$03@Eigen@@$02$02$0A@@Eigen@@$00$02$0A@@Eigen@@@Eigen@@@Eigen@@QEBA?BV?$CwiseBinaryOp@U?$scalar_product_op@MM@internal@Eigen@@$$CBV?$Transpose@$$CBV?$Block@$$CBV?$Block@V?$Matrix@M$03$03$0A@$03$03@Eigen@@$02$02$0A@@Eigen@@$00$02$0A@@Eigen@@@3@$$CBV?$Block@$$CBV?$Matrix@M$02$02$0A@$02$02@Eigen@@$02$00$00@3@@1@AEBV?$MatrixBase@V?$Block@$$CBV?$Matrix@M$02$02$0A@$02$02@Eigen@@$02$00$00@Eigen@@@1@@Z
	??$cwiseProduct@V?$Matrix@M$02$00$0A@$02$00@Eigen@@@?$MatrixBase@V?$Matrix@M$02$00$0A@$02$00@Eigen@@@Eigen@@QEBA?BV?$CwiseBinaryOp@U?$scalar_product_op@MM@internal@Eigen@@$$CBV?$Matrix@M$02$00$0A@$02$00@3@$$CBV43@@1@AEBV01@@Z
	??$destroy@PEAD@?$_Default_allocator_traits@V?$allocator@D@std@@@std@@SAXAEAV?$allocator@D@1@QEAPEAD@Z
	??$destroy@U_Container_proxy@std@@@?$_Default_allocator_traits@V?$allocator@U_Container_proxy@std@@@std@@@std@@SAXAEAV?$allocator@U_Container_proxy@std@@@1@QEAU_Container_proxy@1@@Z
	??$destroy@VVertexAttribute@Tucano@@@?$_Default_allocator_traits@V?$allocator@VVertexAttribute@Tucano@@@std@@@std@@SAXAEAV?$allocator@VVertexAttribute@Tucano@@@1@QEAVVertexAttribute@Tucano@@@Z
	??$distance@PEAVVertexAttribute@Tucano@@@std@@YA_JPEAVVertexAttribute@Tucano@@0@Z
	??$dot@V?$Matrix@M$02$00$0A@$02$00@Eigen@@@?$MatrixBase@V?$Matrix@M$02$00$0A@$02$00@Eigen@@@Eigen@@QEBAMAEBV01@@Z
	??$emplace_back@AEBI@?$vector@IV?$allocator@I@std@@@std@@QEAAXAEBI@Z
	??$emplace_back@AEBM@?$vector@MV?$allocator@M@std@@@std@@QEAAXAEBM@Z
	??$emplace_back@AEBQEAVElement@GUI@Tucano@@@?$vector@PEAVElement@GUI@Tucano@@V?$allocator@PEAVElement@GUI@Tucano@@@std@@@std@@QEAAXAEBQEAVElement@GUI@Tucano@@@Z
	??$emplace_back@AEBQEAVShader@Tucano@@@?$vector@PEAVShader@Tucano@@V?$allocator@PEAVShader@Tucano@@@std@@@std@@QEAAXAEBQEAVShader@Tucano@@@Z
	??$emplace_back@AEBV?$Matrix@M$01$00$0A@$01$00@Eigen@@@?$vector@V?$Matrix@M$01$00$0A@$01$00@Eigen@@V?$allocator@V?$Matrix@M$01$00$0A@$01$00@Eigen@@@std@@@std@@QEAAXAEBV?$Matrix@M$01$00$0A@$01$00@Eigen@@@Z
	??$emplace_back@AEBV?$Matrix@M$02$00$0A@$02$00@Eigen@@@?$vector@V?$Matrix@M$02$00$0A@$02$00@Eigen@@V?$allocator@V?$Matrix@M$02$00$0A@$02$00@Eigen@@@std@@@std@@QEAAXAEBV?$Matrix@M$02$00$0A@$02$00@Eigen@@@Z
	??$emplace_back@AEBV?$Matrix@M$03$00$0A@$03$00@Eigen@@@?$vector@V?$Matrix@M$03$00$0A@$03$00@Eigen@@V?$allocator@V?$Matrix@M$03$00$0A@$03$00@Eigen@@@std@@@std@@QEAAXAEBV?$Matrix@M$03$00$0A@$03$00@Eigen@@@Z
	??$emplace_back@AEBVVertexAttribute@Tucano@@@?$vector@VVertexAttribute@Tucano@@V?$allocator@VVertexAttribute@Tucano@@@std@@@std@@QEAAXAEBVVertexAttribute@Tucano@@@Z
	??$emplace_back@H@?$vector@HV?$allocator@H@std@@@std@@QEAAX$$QEAH@Z
	??$emplace_back@I@?$vector@IV?$allocator@I@std@@@std@@QEAAX$$QEAI@Z
	??$emplace_back@M@?$vector@MV?$allocator@M@std@@@std@@QEAAX$$QEAM@Z
	??$emplace_back@PEAVShader@Tucano@@@?$vector@PEAVShader@Tucano@@V?$allocator@PEAVShader@Tucano@@@std@@@std@@QEAAX$$QEAPEAVShader@Tucano@@@Z
	??$emplace_back@V?$Matrix@M$01$00$0A@$01$00@Eigen@@@?$vector@V?$Matrix@M$01$00$0A@$01$00@Eigen@@V?$allocator@V?$Matrix@M$01$00$0A@$01$00@Eigen@@@std@@@std@@QEAAX$$QEAV?$Matrix@M$01$00$0A@$01$00@Eigen@@@Z
	??$emplace_back@V?$Matrix@M$02$00$0A@$02$00@Eigen@@@?$vector@V?$Matrix@M$02$00$0A@$02$00@Eigen@@V?$allocator@V?$Matrix@M$02$00$0A@$02$00@Eigen@@@std@@@std@@QEAAX$$QEAV?$Matrix@M$02$00$0A@$02$00@Eigen@@@Z
	??$emplace_back@V?$Matrix@M$03$00$0A@$03$00@Eigen@@@?$vector@V?$Matrix@M$03$00$0A@$03$00@Eigen@@V?$allocator@V?$Matrix@M$03$00$0A@$03$00@Eigen@@@std@@@std@@QEAAX$$QEAV?$Matrix@M$03$00$0A@$03$00@Eigen@@@Z
	??$endl@DU?$char_traits@D@std@@@std@@YAAEAV?$basic_ostream@DU?$char_traits@D@std@@@0@AEAV10@@Z
	??$evalTo@V?$Matrix@M$02$00$0A@$02$00@Eigen@@@?$generic_product_impl@V?$Block@$$CBV?$Matrix@M$03$03$0A@$03$03@Eigen@@$02$02$0A@@Eigen@@V?$Block@$$CBV?$Matrix@M$03$03$0A@$03$03@Eigen@@$02$00$00@2@UDenseShape@2@U42@$02@internal@Eigen@@SAXAEAV?$Matrix@M$02$00$0A@$02$00@2@AEBV?$Block@$$CBV?$Matrix@M$03$03$0A@$03$03@Eigen@@$02$02$0A@@2@AEBV?$Block@$$CBV?$Matrix@M$03$03$0A@$03$03@Eigen@@$02$00$00@2@@Z
	??$evalTo@V?$Matrix@M$02$00$0A@$02$00@Eigen@@@?$generic_product_impl@V?$Block@V?$Matrix@M$03$03$0A@$03$03@Eigen@@$02$02$0A@@Eigen@@V?$CwiseUnaryOp@U?$scalar_opposite_op@M@internal@Eigen@@$$CBV?$Matrix@M$02$00$0A@$02$00@3@@2@UDenseShape@2@U42@$02@internal@Eigen@@SAXAEAV?$Matrix@M$02$00$0A@$02$00@2@AEBV?$Block@V?$Matrix@M$03$03$0A@$03$03@Eigen@@$02$02$0A@@2@AEBV?$CwiseUnaryOp@U?$scalar_opposite_op@M@internal@Eigen@@$$CBV?$Matrix@M$02$00$0A@$02$00@3@@2@@Z
	??$evalTo@V?$Matrix@M$02$00$0A@$02$00@Eigen@@@?$generic_product_impl@V?$Block@V?$Matrix@M$03$03$0A@$03$03@Eigen@@$02$02$0A@@Eigen@@V?$Matrix@M$02$00$0A@$02$00@2@UDenseShape@2@U42@$02@internal@Eigen@@SAXAEAV?$Matrix@M$02$00$0A@$02$00@2@AEBV?$Block@V?$Matrix@M$03$03$0A@$03$03@Eigen@@$02$02$0A@@2@AEBV32@@Z
	??$evalTo@V?$Matrix@M$02$02$0A@$02$02@Eigen@@@?$generic_product_impl@V?$Block@$$CBV?$Matrix@M$03$03$0A@$03$03@Eigen@@$02$02$0A@@Eigen@@V12@UDenseShape@2@U32@$02@internal@Eigen@@SAXAEAV?$Matrix@M$02$02$0A@$02$02@2@AEBV?$Block@$$CBV?$Matrix@M$03$03$0A@$03$03@Eigen@@$02$02$0A@@2@1@Z
	??$evalTo@V?$Matrix@M$02$02$0A@$02$02@Eigen@@@?$generic_product_impl@V?$Block@V?$Matrix@M$03$03$0A@$03$03@Eigen@@$02$02$0A@@Eigen@@V?$Matrix@M$02$02$0A@$02$02@2@UDenseShape@2@U42@$02@internal@Eigen@@SAXAEAV?$Matrix@M$02$02$0A@$02$02@2@AEBV?$Block@V?$Matrix@M$03$03$0A@$03$03@Eigen@@$02$02$0A@@2@AEBV32@@Z
	??$flush@DU?$char_traits@D@std@@@std@@YAAEAV?$basic_ostream@DU?$char_traits@D@std@@@0@AEAV10@@Z
	??$forward@AEAPEAI@std@@YAAEAPEAIAEAPEAI@Z
	??$forward@AEAPEAUGuiImpl@tucanow@@@std@@YAAEAPEAUGuiImpl@tucanow@@AEAPEAU12@@Z
	??$forward@AEAPEAUSceneImpl@tucanow@@@std@@YAAEAPEAUSceneImpl@tucanow@@AEAPEAU12@@Z
	??$forward@AEAPEAV_Facet_base@std@@@std@@YAAEAPEAV_Facet_base@0@AEAPEAV10@@Z
	??$forward@AEAV?$Matrix@M$02$00$0A@$02$00@Eigen@@@std@@YAAEAV?$Matrix@M$02$00$0A@$02$00@Eigen@@AEAV12@@Z
	??$forward@AEAV?$Matrix@M$03$00$0A@$03$00@Eigen@@@std@@YAAEAV?$Matrix@M$03$00$0A@$03$00@Eigen@@AEAV12@@Z
	??$forward@AEAVVertexAttribute@Tucano@@@std@@YAAEAVVertexAttribute@Tucano@@AEAV12@@Z
	??$forward@AEBI@std@@YAAEBIAEBI@Z
	??$forward@AEBM@std@@YAAEBMAEBM@Z
	??$forward@AEBQEAD@std@@YAAEBQEADAEBQEAD@Z
	??$forward@AEBQEAVElement@GUI@Tucano@@@std@@YAAEBQEAVElement@GUI@Tucano@@AEBQEAV123@@Z
	??$forward@AEBQEAVShader@Tucano@@@std@@YAAEBQEAVShader@Tucano@@AEBQEAV12@@Z
	??$forward@AEBV?$Matrix@M$01$00$0A@$01$00@Eigen@@@std@@YAAEBV?$Matrix@M$01$00$0A@$01$00@Eigen@@AEBV12@@Z
	??$forward@AEBV?$Matrix@M$02$00$0A@$02$00@Eigen@@@std@@YAAEBV?$Matrix@M$02$00$0A@$02$00@Eigen@@AEBV12@@Z
	??$forward@AEBV?$Matrix@M$03$00$0A@$03$00@Eigen@@@std@@YAAEBV?$Matrix@M$03$00$0A@$03$00@Eigen@@AEBV12@@Z
	??$forward@AEBV?$allocator@D@std@@@std@@YAAEBV?$allocator@D@0@AEBV10@@Z
	??$forward@AEBV?$allocator@M@std@@@std@@YAAEBV?$allocator@M@0@AEBV10@@Z
	??$forward@AEBVVertexAttribute@Tucano@@@std@@YAAEBVVertexAttribute@Tucano@@AEBV12@@Z
	??$forward@H@std@@YA$$QEAHAEAH@Z
	??$forward@I@std@@YA$$QEAIAEAI@Z
	??$forward@M@std@@YA$$QEAMAEAM@Z
	??$forward@PEAVShader@Tucano@@@std@@YA$$QEAPEAVShader@Tucano@@AEAPEAV12@@Z
	??$forward@U?$default_delete@USceneImpl@tucanow@@@std@@@std@@YA$$QEAU?$default_delete@USceneImpl@tucanow@@@0@AEAU10@@Z
	??$forward@U_Container_proxy@std@@@std@@YA$$QEAU_Container_proxy@0@AEAU10@@Z
	??$forward@V<lambda_0eb331034ec64f284d3276d5eb9bc498>@@@std@@YA$$QEAV<lambda_0eb331034ec64f284d3276d5eb9bc498>@@AEAV1@@Z
	??$forward@V<lambda_1d192c76f25f01443164c3008efd2f7a>@@@std@@YA$$QEAV<lambda_1d192c76f25f01443164c3008efd2f7a>@@AEAV1@@Z
	??$forward@V<lambda_20810bc6c307e6c094ca4ad02a7e2c1b>@@@std@@YA$$QEAV<lambda_20810bc6c307e6c094ca4ad02a7e2c1b>@@AEAV1@@Z
	??$forward@V<lambda_297a8ab7031fb168e0f42b0ceacfb411>@@@std@@YA$$QEAV<lambda_297a8ab7031fb168e0f42b0ceacfb411>@@AEAV1@@Z
	??$forward@V<lambda_3a3d10b6c3efd1a8679460d8f1128bfe>@@@std@@YA$$QEAV<lambda_3a3d10b6c3efd1a8679460d8f1128bfe>@@AEAV1@@Z
	??$forward@V<lambda_42565b2b1ff40c7ec619f6b0eefb855d>@@@std@@YA$$QEAV<lambda_42565b2b1ff40c7ec619f6b0eefb855d>@@AEAV1@@Z
	??$forward@V<lambda_59114e1161731b809247c9c49615e8bc>@@@std@@YA$$QEAV<lambda_59114e1161731b809247c9c49615e8bc>@@AEAV1@@Z
	??$forward@V<lambda_7817004a68f0dccb72be0e8c40851883>@@@std@@YA$$QEAV<lambda_7817004a68f0dccb72be0e8c40851883>@@AEAV1@@Z
	??$forward@V<lambda_b660b692aa17cad6c64c8293c384ce89>@@@std@@YA$$QEAV<lambda_b660b692aa17cad6c64c8293c384ce89>@@AEAV1@@Z
	??$forward@V<lambda_ce9ec88a1648543eec0dbc746d8a6173>@@@std@@YA$$QEAV<lambda_ce9ec88a1648543eec0dbc746d8a6173>@@AEAV1@@Z
	??$forward@V<lambda_ef956bcedf99c3666c1c91f23b99b48b>@@@std@@YA$$QEAV<lambda_ef956bcedf99c3666c1c91f23b99b48b>@@AEAV1@@Z
	??$forward@V?$Matrix@M$01$00$0A@$01$00@Eigen@@@std@@YA$$QEAV?$Matrix@M$01$00$0A@$01$00@Eigen@@AEAV12@@Z
	??$forward@V?$Matrix@M$02$00$0A@$02$00@Eigen@@@std@@YA$$QEAV?$Matrix@M$02$00$0A@$02$00@Eigen@@AEAV12@@Z
	??$forward@V?$Matrix@M$03$00$0A@$03$00@Eigen@@@std@@YA$$QEAV?$Matrix@M$03$00$0A@$03$00@Eigen@@AEAV12@@Z
	??$forward@V?$allocator@D@std@@@std@@YA$$QEAV?$allocator@D@0@AEAV10@@Z
	??$forward@V?$allocator@I@std@@@std@@YA$$QEAV?$allocator@I@0@AEAV10@@Z
	??$forward@V?$allocator@V?$Matrix@M$02$00$0A@$02$00@Eigen@@@std@@@std@@YA$$QEAV?$allocator@V?$Matrix@M$02$00$0A@$02$00@Eigen@@@0@AEAV10@@Z
	??$forward@V?$allocator@V?$Matrix@M$03$00$0A@$03$00@Eigen@@@std@@@std@@YA$$QEAV?$allocator@V?$Matrix@M$03$00$0A@$03$00@Eigen@@@0@AEAV10@@Z
	??$forward@VVertexAttribute@Tucano@@@std@@YA$$QEAVVertexAttribute@Tucano@@AEAV12@@Z
	??$get_runtime_value@H@internal@Eigen@@YA_JAEBH@Z
	??$getline@DU?$char_traits@D@std@@V?$allocator@D@2@@std@@YAAEAV?$basic_istream@DU?$char_traits@D@std@@@0@$$QEAV10@AEAV?$basic_string@DU?$char_traits@D@std@@V?$allocator@D@2@@0@D@Z
	??$getline@DU?$char_traits@D@std@@V?$allocator@D@2@@std@@YAAEAV?$basic_istream@DU?$char_traits@D@std@@@0@AEAV10@AEAV?$basic_string@DU?$char_traits@D@std@@V?$allocator@D@2@@0@@Z
	??$head@$02@?$DenseBase@V?$Matrix@M$03$00$0A@$03$00@Eigen@@@Eigen@@QEAA?AV?$VectorBlock@V?$Matrix@M$03$00$0A@$03$00@Eigen@@$02@1@_J@Z
	??$head@$02@?$DenseBase@V?$Matrix@M$03$00$0A@$03$00@Eigen@@@Eigen@@QEBA?BV?$VectorBlock@$$CBV?$Matrix@M$03$00$0A@$03$00@Eigen@@$02@1@_J@Z
	??$head@H@?$DenseBase@V?$Matrix@M$02$00$0A@$02$00@Eigen@@@Eigen@@QEAA?AV?$VectorBlock@V?$Matrix@M$02$00$0A@$02$00@Eigen@@$0?0@1@H@Z
	??$ignore_unused_variable@_J@internal@Eigen@@YAXAEB_J@Z
	??$lazyProduct@V?$Block@$$CBV?$Matrix@M$03$03$0A@$03$03@Eigen@@$02$00$00@Eigen@@@?$MatrixBase@V?$Block@$$CBV?$Matrix@M$03$03$0A@$03$03@Eigen@@$02$02$0A@@Eigen@@@Eigen@@QEBA?BV?$Product@V?$Block@$$CBV?$Matrix@M$03$03$0A@$03$03@Eigen@@$02$02$0A@@Eigen@@V?$Block@$$CBV?$Matrix@M$03$03$0A@$03$03@Eigen@@$02$00$00@2@$00@1@AEBV?$MatrixBase@V?$Block@$$CBV?$Matrix@M$03$03$0A@$03$03@Eigen@@$02$00$00@Eigen@@@1@@Z
	??$lazyProduct@V?$Block@$$CBV?$Matrix@M$03$03$0A@$03$03@Eigen@@$02$02$0A@@Eigen@@@?$MatrixBase@V?$Block@$$CBV?$Matrix@M$03$03$0A@$03$03@Eigen@@$02$02$0A@@Eigen@@@Eigen@@QEBA?BV?$Product@V?$Block@$$CBV?$Matrix@M$03$03$0A@$03$03@Eigen@@$02$02$0A@@Eigen@@V12@$00@1@AEBV01@@Z
	??$lazyProduct@V?$CwiseUnaryOp@U?$scalar_opposite_op@M@internal@Eigen@@$$CBV?$Matrix@M$02$00$0A@$02$00@3@@Eigen@@@?$MatrixBase@V?$Block@V?$Matrix@M$03$03$0A@$03$03@Eigen@@$02$02$0A@@Eigen@@@Eigen@@QEBA?BV?$Product@V?$Block@V?$Matrix@M$03$03$0A@$03$03@Eigen@@$02$02$0A@@Eigen@@V?$CwiseUnaryOp@U?$scalar_opposite_op@M@internal@Eigen@@$$CBV?$Matrix@M$02$00$0A@$02$00@3@@2@$00@1@AEBV?$MatrixBase@V?$CwiseUnaryOp@U?$scalar_opposite_op@M@internal@Eigen@@$$CBV?$Matrix@M$02$00$0A@$02$00@3@@Eigen@@@1@@Z
	??$lazyProduct@V?$Matrix@M$02$00$0A@$02$00@Eigen@@@?$MatrixBase@V?$Block@V?$Matrix@M$03$03$0A@$03$03@Eigen@@$02$02$0A@@Eigen@@@Eigen@@QEBA?BV?$Product@V?$Block@V?$Matrix@M$03$03$0A@$03$03@Eigen@@$02$02$0A@@Eigen@@V?$Matrix@M$02$00$0A@$02$00@2@$00@1@AEBV?$MatrixBase@V?$Matrix@M$02$00$0A@$02$00@Eigen@@@1@@Z
	??$lazyProduct@V?$Matrix@M$02$02$0A@$02$02@Eigen@@@?$MatrixBase@V?$Block@V?$Matrix@M$03$03$0A@$03$03@Eigen@@$02$02$0A@@Eigen@@@Eigen@@QEBA?BV?$Product@V?$Block@V?$Matrix@M$03$03$0A@$03$03@Eigen@@$02$02$0A@@Eigen@@V?$Matrix@M$02$02$0A@$02$02@2@$00@1@AEBV?$MatrixBase@V?$Matrix@M$02$02$0A@$02$02@Eigen@@@1@@Z
	??$max@M@std@@YAAEBMAEBM0@Z
	??$min@M@std@@YAAEBMAEBM0@Z
	??$min@_J@std@@YAAEB_JAEB_J0@Z
	??$mini@_J@numext@Eigen@@YA_JAEB_J0@Z
	??$move@AEAH@std@@YA$$QEAHAEAH@Z
	??$move@AEAI@std@@YA$$QEAIAEAI@Z
	??$move@AEAM@std@@YA$$QEAMAEAM@Z
	??$move@AEAPEAI@std@@YA$$QEAPEAIAEAPEAI@Z
	??$move@AEAPEAVShader@Tucano@@@std@@YA$$QEAPEAVShader@Tucano@@AEAPEAV12@@Z
	??$move@AEAPEAV_Ref_count_base@std@@@std@@YA$$QEAPEAV_Ref_count_base@0@AEAPEAV10@@Z
	??$move@AEAV<lambda_0eb331034ec64f284d3276d5eb9bc498>@@@std@@YA$$QEAV<lambda_0eb331034ec64f284d3276d5eb9bc498>@@AEAV1@@Z
	??$move@AEAV<lambda_1d192c76f25f01443164c3008efd2f7a>@@@std@@YA$$QEAV<lambda_1d192c76f25f01443164c3008efd2f7a>@@AEAV1@@Z
	??$move@AEAV<lambda_20810bc6c307e6c094ca4ad02a7e2c1b>@@@std@@YA$$QEAV<lambda_20810bc6c307e6c094ca4ad02a7e2c1b>@@AEAV1@@Z
	??$move@AEAV<lambda_297a8ab7031fb168e0f42b0ceacfb411>@@@std@@YA$$QEAV<lambda_297a8ab7031fb168e0f42b0ceacfb411>@@AEAV1@@Z
	??$move@AEAV<lambda_3a3d10b6c3efd1a8679460d8f1128bfe>@@@std@@YA$$QEAV<lambda_3a3d10b6c3efd1a8679460d8f1128bfe>@@AEAV1@@Z
	??$move@AEAV<lambda_42565b2b1ff40c7ec619f6b0eefb855d>@@@std@@YA$$QEAV<lambda_42565b2b1ff40c7ec619f6b0eefb855d>@@AEAV1@@Z
	??$move@AEAV<lambda_59114e1161731b809247c9c49615e8bc>@@@std@@YA$$QEAV<lambda_59114e1161731b809247c9c49615e8bc>@@AEAV1@@Z
	??$move@AEAV<lambda_7817004a68f0dccb72be0e8c40851883>@@@std@@YA$$QEAV<lambda_7817004a68f0dccb72be0e8c40851883>@@AEAV1@@Z
	??$move@AEAV<lambda_b660b692aa17cad6c64c8293c384ce89>@@@std@@YA$$QEAV<lambda_b660b692aa17cad6c64c8293c384ce89>@@AEAV1@@Z
	??$move@AEAV<lambda_ce9ec88a1648543eec0dbc746d8a6173>@@@std@@YA$$QEAV<lambda_ce9ec88a1648543eec0dbc746d8a6173>@@AEAV1@@Z
	??$move@AEAV<lambda_ef956bcedf99c3666c1c91f23b99b48b>@@@std@@YA$$QEAV<lambda_ef956bcedf99c3666c1c91f23b99b48b>@@AEAV1@@Z
	??$move@AEAV?$DenseStorage@M$01$01$00$0A@@Eigen@@@std@@YA$$QEAV?$DenseStorage@M$01$01$00$0A@@Eigen@@AEAV12@@Z
	??$move@AEAV?$DenseStorage@M$02$02$00$0A@@Eigen@@@std@@YA$$QEAV?$DenseStorage@M$02$02$00$0A@@Eigen@@AEAV12@@Z
	??$move@AEAV?$DenseStorage@M$03$03$00$0A@@Eigen@@@std@@YA$$QEAV?$DenseStorage@M$03$03$00$0A@@Eigen@@AEAV12@@Z
	??$move@AEAV?$DenseStorage@M$08$02$02$0A@@Eigen@@@std@@YA$$QEAV?$DenseStorage@M$08$02$02$0A@@Eigen@@AEAV12@@Z
	??$move@AEAV?$DenseStorage@M$0BA@$03$03$0A@@Eigen@@@std@@YA$$QEAV?$DenseStorage@M$0BA@$03$03$0A@@Eigen@@AEAV12@@Z
	??$move@AEAV?$Matrix@M$01$00$0A@$01$00@Eigen@@@std@@YA$$QEAV?$Matrix@M$01$00$0A@$01$00@Eigen@@AEAV12@@Z
	??$move@AEAV?$Matrix@M$02$00$0A@$02$00@Eigen@@@std@@YA$$QEAV?$Matrix@M$02$00$0A@$02$00@Eigen@@AEAV12@@Z
	??$move@AEAV?$Matrix@M$02$02$0A@$02$02@Eigen@@@std@@YA$$QEAV?$Matrix@M$02$02$0A@$02$02@Eigen@@AEAV12@@Z
	??$move@AEAV?$Matrix@M$03$00$0A@$03$00@Eigen@@@std@@YA$$QEAV?$Matrix@M$03$00$0A@$03$00@Eigen@@AEAV12@@Z
	??$move@AEAV?$Matrix@M$03$03$0A@$03$03@Eigen@@@std@@YA$$QEAV?$Matrix@M$03$03$0A@$03$03@Eigen@@AEAV12@@Z
	??$move@AEAV?$_Func_class@X$$V@std@@@std@@YA$$QEAV?$_Func_class@X$$V@0@AEAV10@@Z
	??$move@AEAV?$_Func_class@XH@std@@@std@@YA$$QEAV?$_Func_class@XH@0@AEAV10@@Z
	??$move@AEAV?$_Func_class@XM@std@@@std@@YA$$QEAV?$_Func_class@XM@0@AEAV10@@Z
	??$move@AEAV?$allocator@D@std@@@std@@YA$$QEAV?$allocator@D@0@AEAV10@@Z
	??$move@AEAV?$basic_istream@DU?$char_traits@D@std@@@std@@@std@@YA$$QEAV?$basic_istream@DU?$char_traits@D@std@@@0@AEAV10@@Z
	??$move@AEAV?$basic_string@DU?$char_traits@D@std@@V?$allocator@D@2@@std@@@std@@YA$$QEAV?$basic_string@DU?$char_traits@D@std@@V?$allocator@D@2@@0@AEAV10@@Z
	??$move@AEAV?$shared_ptr@I@std@@@std@@YA$$QEAV?$shared_ptr@I@0@AEAV10@@Z
	??$move@AEAVVertexAttribute@Tucano@@@std@@YA$$QEAVVertexAttribute@Tucano@@AEAV12@@Z
	??$next@PEAVVertexAttribute@Tucano@@@std@@YAPEAVVertexAttribute@Tucano@@PEAV12@_J@Z
	??$packet@$0BA@T__m128@@@?$binary_evaluator@V?$CwiseBinaryOp@U?$scalar_quotient_op@MM@internal@Eigen@@$$CBV?$Matrix@M$03$00$0A@$03$00@3@$$CBV?$CwiseNullaryOp@U?$scalar_constant_op@M@internal@Eigen@@$$CBV?$Matrix@M$03$00$0A@$03$00@3@@3@@Eigen@@UIndexBased@internal@2@U342@MM@internal@Eigen@@QEBA?AT__m128@@_J0@Z
	??$packet@$0BA@T__m128@@@?$evaluator@V?$PlainObjectBase@V?$Matrix@M$03$00$0A@$03$00@Eigen@@@Eigen@@@internal@Eigen@@QEBA?AT__m128@@_J0@Z
	??$packet@$0BA@T__m128@@@?$evaluator@V?$PlainObjectBase@V?$Matrix@M$03$00$0A@$03$00@Eigen@@@Eigen@@@internal@Eigen@@QEBA?AT__m128@@_J@Z
	??$packet@$0BA@T__m128@@@?$evaluator@V?$PlainObjectBase@V?$Matrix@M$03$03$0A@$03$03@Eigen@@@Eigen@@@internal@Eigen@@QEBA?AT__m128@@_J0@Z
	??$packet@$0BA@T__m128@@@?$unary_evaluator@V?$CwiseUnaryOp@U?$scalar_abs2_op@M@internal@Eigen@@$$CBV?$Matrix@M$03$00$0A@$03$00@3@@Eigen@@UIndexBased@internal@2@M@internal@Eigen@@QEBA?AT__m128@@_J0@Z
	??$packet@$0BA@T__m128@@_J@?$evaluator@V?$CwiseNullaryOp@U?$scalar_constant_op@M@internal@Eigen@@$$CBV?$Matrix@M$03$00$0A@$03$00@3@@Eigen@@@internal@Eigen@@QEBA?AT__m128@@_J0@Z
	??$packet@$0BA@T__m128@@_J@?$evaluator@V?$CwiseNullaryOp@U?$scalar_constant_op@M@internal@Eigen@@V?$Matrix@M$03$00$0A@$03$00@3@@Eigen@@@internal@Eigen@@QEBA?AT__m128@@_J0@Z
	??$packet@$0BA@T__m128@@_J@?$evaluator@V?$CwiseNullaryOp@U?$scalar_constant_op@M@internal@Eigen@@V?$Matrix@M$03$03$0A@$03$03@3@@Eigen@@@internal@Eigen@@QEBA?AT__m128@@_J0@Z
	??$packetByOuterInner@$0BA@T__m128@@@?$redux_evaluator@V?$CwiseUnaryOp@U?$scalar_abs2_op@M@internal@Eigen@@$$CBV?$Matrix@M$03$00$0A@$03$00@3@@Eigen@@@internal@Eigen@@QEBA?AT__m128@@_J0@Z
	??$packetOp@T__m128@@@?$scalar_abs2_op@M@internal@Eigen@@QEBA?BT__m128@@AEBT3@@Z
	??$packetOp@T__m128@@@?$scalar_constant_op@M@internal@Eigen@@QEBA?BT__m128@@XZ
	??$packetOp@T__m128@@@?$scalar_quotient_op@MM@internal@Eigen@@QEBA?BT__m128@@AEBT3@0@Z
	??$packetOp@T__m128@@_J@?$nullary_wrapper@MU?$scalar_constant_op@M@internal@Eigen@@$00$0A@$0A@@internal@Eigen@@QEBA?AT__m128@@AEBU?$scalar_constant_op@M@12@_J1@Z
	??$packetwise_redux_empty_value@T__m128@@U?$scalar_sum_op@MM@internal@Eigen@@@internal@Eigen@@YA?AT__m128@@AEBU?$scalar_sum_op@MM@01@@Z
	??$padd@T__m128@@@internal@Eigen@@YA?AT__m128@@AEBT2@0@Z
	??$pdiv@T__m128@@@internal@Eigen@@YA?AT__m128@@AEBT2@0@Z
	??$pfirst@T__m128@@@internal@Eigen@@YAMAEBT__m128@@@Z
	??$pload@T__m128@@@internal@Eigen@@YA?AT__m128@@PEBM@Z
	??$ploadt@T__m128@@$0BA@@internal@Eigen@@YA?AT__m128@@PEBM@Z
	??$ploadu@T__m128@@@internal@Eigen@@YA?AT__m128@@PEBM@Z
	??$pmul@M@internal@Eigen@@YAMAEBM0@Z
	??$pmul@T__m128@@@internal@Eigen@@YA?AT__m128@@AEBT2@0@Z
	??$predux@T__m128@@@?$scalar_sum_op@MM@internal@Eigen@@QEBA?BMAEBT__m128@@@Z
	??$predux@T__m128@@@internal@Eigen@@YAMAEBT__m128@@@Z
	??$pset1@T__m128@@@internal@Eigen@@YA?AT__m128@@AEBM@Z
	??$pstore@MT__m128@@@internal@Eigen@@YAXPEAMAEBT__m128@@@Z
	??$pstoret@MT__m128@@$0BA@@internal@Eigen@@YAXPEAMAEBT__m128@@@Z
	??$pstoreu@MT__m128@@@internal@Eigen@@YAXPEAMAEBT__m128@@@Z
	??$psub@T__m128@@@internal@Eigen@@YA?AT__m128@@AEBT2@0@Z
	??$pxor@T__m128@@@internal@Eigen@@YA?AT__m128@@AEBT2@0@Z
	??$real@M@numext@Eigen@@YAMAEBM@Z
	??$redux@U?$scalar_sum_op@MM@internal@Eigen@@@?$DenseBase@V?$CwiseBinaryOp@U?$scalar_conj_product_op@MM@internal@Eigen@@$$CBV?$Matrix@M$02$00$0A@$02$00@3@$$CBV43@@Eigen@@@Eigen@@QEBAMAEBU?$scalar_sum_op@MM@internal@1@@Z
	??$redux@U?$scalar_sum_op@MM@internal@Eigen@@@?$DenseBase@V?$CwiseBinaryOp@U?$scalar_product_op@MM@internal@Eigen@@$$CBV?$Transpose@$$CBV?$Block@$$CBV?$Block@$$CBV?$Matrix@M$03$03$0A@$03$03@Eigen@@$02$02$0A@@Eigen@@$00$02$0A@@Eigen@@@3@$$CBV?$Block@$$CBV?$Block@$$CBV?$Matrix@M$03$03$0A@$03$03@Eigen@@$02$00$00@Eigen@@$02$00$00@3@@Eigen@@@Eigen@@QEBAMAEBU?$scalar_sum_op@MM@internal@1@@Z
	??$redux@U?$scalar_sum_op@MM@internal@Eigen@@@?$DenseBase@V?$CwiseBinaryOp@U?$scalar_product_op@MM@internal@Eigen@@$$CBV?$Transpose@$$CBV?$Block@$$CBV?$Block@$$CBV?$Matrix@M$03$03$0A@$03$03@Eigen@@$02$02$0A@@Eigen@@$00$02$0A@@Eigen@@@3@$$CBV?$Block@$$CBV?$Block@$$CBV?$Matrix@M$03$03$0A@$03$03@Eigen@@$02$02$0A@@Eigen@@$02$00$00@3@@Eigen@@@Eigen@@QEBAMAEBU?$scalar_sum_op@MM@internal@1@@Z
	??$redux@U?$scalar_sum_op@MM@internal@Eigen@@@?$DenseBase@V?$CwiseBinaryOp@U?$scalar_product_op@MM@internal@Eigen@@$$CBV?$Transpose@$$CBV?$Block@$$CBV?$Block@V?$Matrix@M$03$03$0A@$03$03@Eigen@@$02$02$0A@@Eigen@@$00$02$0A@@Eigen@@@3@$$CBV?$Block@$$CBV?$CwiseUnaryOp@U?$scalar_opposite_op@M@internal@Eigen@@$$CBV?$Matrix@M$02$00$0A@$02$00@3@@Eigen@@$02$00$00@3@@Eigen@@@Eigen@@QEBAMAEBU?$scalar_sum_op@MM@internal@1@@Z
	??$redux@U?$scalar_sum_op@MM@internal@Eigen@@@?$DenseBase@V?$CwiseBinaryOp@U?$scalar_product_op@MM@internal@Eigen@@$$CBV?$Transpose@$$CBV?$Block@$$CBV?$Block@V?$Matrix@M$03$03$0A@$03$03@Eigen@@$02$02$0A@@Eigen@@$00$02$0A@@Eigen@@@3@$$CBV?$Block@$$CBV?$Matrix@M$02$00$0A@$02$00@Eigen@@$02$00$00@3@@Eigen@@@Eigen@@QEBAMAEBU?$scalar_sum_op@MM@internal@1@@Z
	??$redux@U?$scalar_sum_op@MM@internal@Eigen@@@?$DenseBase@V?$CwiseBinaryOp@U?$scalar_product_op@MM@internal@Eigen@@$$CBV?$Transpose@$$CBV?$Block@$$CBV?$Block@V?$Matrix@M$03$03$0A@$03$03@Eigen@@$02$02$0A@@Eigen@@$00$02$0A@@Eigen@@@3@$$CBV?$Block@$$CBV?$Matrix@M$02$02$0A@$02$02@Eigen@@$02$00$00@3@@Eigen@@@Eigen@@QEBAMAEBU?$scalar_sum_op@MM@internal@1@@Z
	??$redux@U?$scalar_sum_op@MM@internal@Eigen@@@?$DenseBase@V?$CwiseUnaryOp@U?$scalar_abs2_op@M@internal@Eigen@@$$CBV?$CwiseBinaryOp@U?$scalar_difference_op@MM@internal@Eigen@@$$CBV?$Matrix@M$02$00$0A@$02$00@3@$$CBV43@@3@@Eigen@@@Eigen@@QEBAMAEBU?$scalar_sum_op@MM@internal@1@@Z
	??$redux@U?$scalar_sum_op@MM@internal@Eigen@@@?$DenseBase@V?$CwiseUnaryOp@U?$scalar_abs2_op@M@internal@Eigen@@$$CBV?$Matrix@M$02$00$0A@$02$00@3@@Eigen@@@Eigen@@QEBAMAEBU?$scalar_sum_op@MM@internal@1@@Z
	??$redux@U?$scalar_sum_op@MM@internal@Eigen@@@?$DenseBase@V?$CwiseUnaryOp@U?$scalar_abs2_op@M@internal@Eigen@@$$CBV?$Matrix@M$03$00$0A@$03$00@3@@Eigen@@@Eigen@@QEBAMAEBU?$scalar_sum_op@MM@internal@1@@Z
	??$resizeLike@V?$CwiseBinaryOp@U?$scalar_difference_op@MM@internal@Eigen@@$$CBV?$Matrix@M$01$00$0A@$01$00@3@$$CBV43@@Eigen@@@?$PlainObjectBase@V?$Matrix@M$01$00$0A@$01$00@Eigen@@@Eigen@@QEAAXAEBU?$EigenBase@V?$CwiseBinaryOp@U?$scalar_difference_op@MM@internal@Eigen@@$$CBV?$Matrix@M$01$00$0A@$01$00@3@$$CBV43@@Eigen@@@1@@Z
	??$resizeLike@V?$CwiseBinaryOp@U?$scalar_product_op@MM@internal@Eigen@@$$CBV?$CwiseNullaryOp@U?$scalar_constant_op@M@internal@Eigen@@$$CBV?$Matrix@M$02$00$0A@$02$00@3@@3@$$CBV?$Matrix@M$02$00$0A@$02$00@3@@Eigen@@@?$PlainObjectBase@V?$Matrix@M$02$00$0A@$02$00@Eigen@@@Eigen@@QEAAXAEBU?$EigenBase@V?$CwiseBinaryOp@U?$scalar_product_op@MM@internal@Eigen@@$$CBV?$CwiseNullaryOp@U?$scalar_constant_op@M@internal@Eigen@@$$CBV?$Matrix@M$02$00$0A@$02$00@3@@3@$$CBV?$Matrix@M$02$00$0A@$02$00@3@@Eigen@@@1@@Z
	??$resizeLike@V?$CwiseBinaryOp@U?$scalar_product_op@MM@internal@Eigen@@$$CBV?$Matrix@M$02$00$0A@$02$00@3@$$CBV?$CwiseNullaryOp@U?$scalar_constant_op@M@internal@Eigen@@$$CBV?$Matrix@M$02$00$0A@$02$00@3@@3@@Eigen@@@?$PlainObjectBase@V?$Matrix@M$02$00$0A@$02$00@Eigen@@@Eigen@@QEAAXAEBU?$EigenBase@V?$CwiseBinaryOp@U?$scalar_product_op@MM@internal@Eigen@@$$CBV?$Matrix@M$02$00$0A@$02$00@3@$$CBV?$CwiseNullaryOp@U?$scalar_constant_op@M@internal@Eigen@@$$CBV?$Matrix@M$02$00$0A@$02$00@3@@3@@Eigen@@@1@@Z
	??$resizeLike@V?$CwiseBinaryOp@U?$scalar_sum_op@MM@internal@Eigen@@$$CBV?$CwiseBinaryOp@U?$scalar_sum_op@MM@internal@Eigen@@$$CBV?$Matrix@M$02$00$0A@$02$00@3@$$CBV?$CwiseBinaryOp@U?$scalar_product_op@MM@internal@Eigen@@$$CBV?$CwiseNullaryOp@U?$scalar_constant_op@M@internal@Eigen@@$$CBV?$Matrix@M$02$00$0A@$02$00@3@@3@$$CBV?$Matrix@M$02$00$0A@$02$00@3@@3@@3@$$CBV?$Matrix@M$02$00$0A@$02$00@3@@Eigen@@@?$PlainObjectBase@V?$Matrix@M$02$00$0A@$02$00@Eigen@@@Eigen@@QEAAXAEBU?$EigenBase@V?$CwiseBinaryOp@U?$scalar_sum_op@MM@internal@Eigen@@$$CBV?$CwiseBinaryOp@U?$scalar_sum_op@MM@internal@Eigen@@$$CBV?$Matrix@M$02$00$0A@$02$00@3@$$CBV?$CwiseBinaryOp@U?$scalar_product_op@MM@internal@Eigen@@$$CBV?$CwiseNullaryOp@U?$scalar_constant_op@M@internal@Eigen@@$$CBV?$Matrix@M$02$00$0A@$02$00@3@@3@$$CBV?$Matrix@M$02$00$0A@$02$00@3@@3@@3@$$CBV?$Matrix@M$02$00$0A@$02$00@3@@Eigen@@@1@@Z
	??$resizeLike@V?$CwiseNullaryOp@U?$scalar_constant_op@H@internal@Eigen@@V?$Matrix@H$01$00$0A@$01$00@3@@Eigen@@@?$PlainObjectBase@V?$Matrix@H$01$00$0A@$01$00@Eigen@@@Eigen@@QEAAXAEBU?$EigenBase@V?$CwiseNullaryOp@U?$scalar_constant_op@H@internal@Eigen@@V?$Matrix@H$01$00$0A@$01$00@3@@Eigen@@@1@@Z
	??$resizeLike@V?$CwiseNullaryOp@U?$scalar_constant_op@M@internal@Eigen@@V?$Matrix@M$02$00$0A@$02$00@3@@Eigen@@@?$PlainObjectBase@V?$Matrix@M$02$00$0A@$02$00@Eigen@@@Eigen@@QEAAXAEBU?$EigenBase@V?$CwiseNullaryOp@U?$scalar_constant_op@M@internal@Eigen@@V?$Matrix@M$02$00$0A@$02$00@3@@Eigen@@@1@@Z
	??$resizeLike@V?$CwiseNullaryOp@U?$scalar_constant_op@M@internal@Eigen@@V?$Matrix@M$03$03$0A@$03$03@3@@Eigen@@@?$PlainObjectBase@V?$Matrix@M$03$03$0A@$03$03@Eigen@@@Eigen@@QEAAXAEBU?$EigenBase@V?$CwiseNullaryOp@U?$scalar_constant_op@M@internal@Eigen@@V?$Matrix@M$03$03$0A@$03$03@3@@Eigen@@@1@@Z
	??$resizeLike@V?$CwiseNullaryOp@U?$scalar_identity_op@M@internal@Eigen@@V?$Matrix@M$03$03$0A@$03$03@3@@Eigen@@@?$PlainObjectBase@V?$Matrix@M$03$03$0A@$03$03@Eigen@@@Eigen@@QEAAXAEBU?$EigenBase@V?$CwiseNullaryOp@U?$scalar_identity_op@M@internal@Eigen@@V?$Matrix@M$03$03$0A@$03$03@3@@Eigen@@@1@@Z
	??$resize_if_allowed@V?$Block@V?$Matrix@M$03$00$0A@$03$00@Eigen@@$02$00$0A@@Eigen@@V?$CwiseBinaryOp@U?$scalar_product_op@MM@internal@Eigen@@$$CBV?$CwiseNullaryOp@U?$scalar_constant_op@M@internal@Eigen@@$$CBV?$Matrix@M$02$00$0A@$02$00@3@@3@$$CBV?$Matrix@M$02$00$0A@$02$00@3@@2@MM@internal@Eigen@@YAXAEAV?$Block@V?$Matrix@M$03$00$0A@$03$00@Eigen@@$02$00$0A@@1@AEBV?$CwiseBinaryOp@U?$scalar_product_op@MM@internal@Eigen@@$$CBV?$CwiseNullaryOp@U?$scalar_constant_op@M@internal@Eigen@@$$CBV?$Matrix@M$02$00$0A@$02$00@3@@3@$$CBV?$Matrix@M$02$00$0A@$02$00@3@@1@AEBU?$assign_op@MM@01@@Z
	??$resize_if_allowed@V?$Block@V?$Matrix@M$03$03$0A@$03$03@Eigen@@$00$02$0A@@Eigen@@V?$CwiseNullaryOp@U?$scalar_constant_op@M@internal@Eigen@@V?$Matrix@M$00$02$00$00$02@3@@2@MM@internal@Eigen@@YAXAEAV?$Block@V?$Matrix@M$03$03$0A@$03$03@Eigen@@$00$02$0A@@1@AEBV?$CwiseNullaryOp@U?$scalar_constant_op@M@internal@Eigen@@V?$Matrix@M$00$02$00$00$02@3@@1@AEBU?$assign_op@MM@01@@Z
	??$resize_if_allowed@V?$Block@V?$Matrix@M$03$03$0A@$03$03@Eigen@@$02$00$00@Eigen@@V?$CwiseBinaryOp@U?$scalar_sum_op@MM@internal@Eigen@@$$CBV?$Product@V?$Block@$$CBV?$Matrix@M$03$03$0A@$03$03@Eigen@@$02$02$0A@@Eigen@@V?$Block@$$CBV?$Matrix@M$03$03$0A@$03$03@Eigen@@$02$00$00@2@$0A@@3@$$CBV?$Block@$$CBV?$Matrix@M$03$03$0A@$03$03@Eigen@@$02$00$00@3@@2@MM@internal@Eigen@@YAXAEAV?$Block@V?$Matrix@M$03$03$0A@$03$03@Eigen@@$02$00$00@1@AEBV?$CwiseBinaryOp@U?$scalar_sum_op@MM@internal@Eigen@@$$CBV?$Product@V?$Block@$$CBV?$Matrix@M$03$03$0A@$03$03@Eigen@@$02$02$0A@@Eigen@@V?$Block@$$CBV?$Matrix@M$03$03$0A@$03$03@Eigen@@$02$00$00@2@$0A@@3@$$CBV?$Block@$$CBV?$Matrix@M$03$03$0A@$03$03@Eigen@@$02$00$00@3@@1@AEBU?$assign_op@MM@01@@Z
	??$resize_if_allowed@V?$Block@V?$Matrix@M$03$03$0A@$03$03@Eigen@@$02$00$0A@@Eigen@@V?$Matrix@M$02$00$0A@$02$00@2@U?$add_assign_op@MM@internal@2@@internal@Eigen@@YAXAEAV?$Block@V?$Matrix@M$03$03$0A@$03$03@Eigen@@$02$00$0A@@1@AEBV?$Matrix@M$02$00$0A@$02$00@1@AEBU?$add_assign_op@MM@01@@Z
	??$resize_if_allowed@V?$Block@V?$Matrix@M$03$03$0A@$03$03@Eigen@@$02$02$0A@@Eigen@@V?$CwiseNullaryOp@U?$scalar_constant_op@M@internal@Eigen@@V?$Matrix@M$02$02$0A@$02$02@3@@2@U?$mul_assign_op@MM@internal@2@@internal@Eigen@@YAXAEAV?$Block@V?$Matrix@M$03$03$0A@$03$03@Eigen@@$02$02$0A@@1@AEBV?$CwiseNullaryOp@U?$scalar_constant_op@M@internal@Eigen@@V?$Matrix@M$02$02$0A@$02$02@3@@1@AEBU?$mul_assign_op@MM@01@@Z
	??$resize_if_allowed@V?$Block@V?$Matrix@M$03$03$0A@$03$03@Eigen@@$02$02$0A@@Eigen@@V?$Matrix@M$02$02$0A@$02$02@2@MM@internal@Eigen@@YAXAEAV?$Block@V?$Matrix@M$03$03$0A@$03$03@Eigen@@$02$02$0A@@1@AEBV?$Matrix@M$02$02$0A@$02$02@1@AEBU?$assign_op@MM@01@@Z
	??$resize_if_allowed@V?$Block@V?$Matrix@M$03$03$0A@$03$03@Eigen@@$02$02$0A@@Eigen@@V?$Product@V?$Block@V?$Matrix@M$03$03$0A@$03$03@Eigen@@$02$02$0A@@Eigen@@V?$DiagonalWrapper@$$CBV?$Matrix@M$02$00$0A@$02$00@Eigen@@@2@$00@2@MM@internal@Eigen@@YAXAEAV?$Block@V?$Matrix@M$03$03$0A@$03$03@Eigen@@$02$02$0A@@1@AEBV?$Product@V?$Block@V?$Matrix@M$03$03$0A@$03$03@Eigen@@$02$02$0A@@Eigen@@V?$DiagonalWrapper@$$CBV?$Matrix@M$02$00$0A@$02$00@Eigen@@@2@$00@1@AEBU?$assign_op@MM@01@@Z
	??$resize_if_allowed@V?$Diagonal@V?$Matrix@M$02$02$0A@$02$02@Eigen@@$0A@@Eigen@@V?$CwiseBinaryOp@U?$scalar_sum_op@MM@internal@Eigen@@$$CBV?$ArrayWrapper@$$CBV?$CwiseBinaryOp@U?$scalar_product_op@MM@internal@Eigen@@$$CBV?$Matrix@M$02$00$0A@$02$00@3@$$CBV43@@Eigen@@@3@$$CBV?$CwiseNullaryOp@U?$scalar_constant_op@M@internal@Eigen@@$$CBV?$Array@M$02$00$0A@$02$00@3@@3@@2@MM@internal@Eigen@@YAXAEAV?$Diagonal@V?$Matrix@M$02$02$0A@$02$02@Eigen@@$0A@@1@AEBV?$CwiseBinaryOp@U?$scalar_sum_op@MM@internal@Eigen@@$$CBV?$ArrayWrapper@$$CBV?$CwiseBinaryOp@U?$scalar_product_op@MM@internal@Eigen@@$$CBV?$Matrix@M$02$00$0A@$02$00@3@$$CBV43@@Eigen@@@3@$$CBV?$CwiseNullaryOp@U?$scalar_constant_op@M@internal@Eigen@@$$CBV?$Array@M$02$00$0A@$02$00@3@@3@@1@AEBU?$assign_op@MM@01@@Z
	??$resize_if_allowed@V?$Matrix@H$01$00$0A@$01$00@Eigen@@V12@HH@internal@Eigen@@YAXAEAV?$Matrix@H$01$00$0A@$01$00@1@AEBV21@AEBU?$assign_op@HH@01@@Z
	??$resize_if_allowed@V?$Matrix@H$01$00$0A@$01$00@Eigen@@V?$CwiseNullaryOp@U?$scalar_constant_op@H@internal@Eigen@@V?$Matrix@H$01$00$0A@$01$00@3@@2@HH@internal@Eigen@@YAXAEAV?$Matrix@H$01$00$0A@$01$00@1@AEBV?$CwiseNullaryOp@U?$scalar_constant_op@H@internal@Eigen@@V?$Matrix@H$01$00$0A@$01$00@3@@1@AEBU?$assign_op@HH@01@@Z
	??$resize_if_allowed@V?$Matrix@M$01$00$0A@$01$00@Eigen@@V12@MM@internal@Eigen@@YAXAEAV?$Matrix@M$01$00$0A@$01$00@1@AEBV21@AEBU?$assign_op@MM@01@@Z
	??$resize_if_allowed@V?$Matrix@M$01$00$0A@$01$00@Eigen@@V?$CwiseBinaryOp@U?$scalar_difference_op@MM@internal@Eigen@@$$CBV?$Matrix@M$01$00$0A@$01$00@3@$$CBV43@@2@MM@internal@Eigen@@YAXAEAV?$Matrix@M$01$00$0A@$01$00@1@AEBV?$CwiseBinaryOp@U?$scalar_difference_op@MM@internal@Eigen@@$$CBV?$Matrix@M$01$00$0A@$01$00@3@$$CBV43@@1@AEBU?$assign_op@MM@01@@Z
	??$resize_if_allowed@V?$Matrix@M$02$00$0A@$02$00@Eigen@@V12@MM@internal@Eigen@@YAXAEAV?$Matrix@M$02$00$0A@$02$00@1@AEBV21@AEBU?$assign_op@MM@01@@Z
	??$resize_if_allowed@V?$Matrix@M$02$00$0A@$02$00@Eigen@@V12@U?$add_assign_op@MM@internal@2@@internal@Eigen@@YAXAEAV?$Matrix@M$02$00$0A@$02$00@1@AEBV21@AEBU?$add_assign_op@MM@01@@Z
	??$resize_if_allowed@V?$Matrix@M$02$00$0A@$02$00@Eigen@@V12@U?$swap_assign_op@M@internal@2@@internal@Eigen@@YAXAEAV?$Matrix@M$02$00$0A@$02$00@1@AEBV21@AEBU?$swap_assign_op@M@01@@Z
	??$resize_if_allowed@V?$Matrix@M$02$00$0A@$02$00@Eigen@@V?$Block@$$CBV?$CwiseNullaryOp@U?$scalar_identity_op@M@internal@Eigen@@V?$Matrix@M$02$02$0A@$02$02@3@@Eigen@@$02$00$0A@@2@MM@internal@Eigen@@YAXAEAV?$Matrix@M$02$00$0A@$02$00@1@AEBV?$Block@$$CBV?$CwiseNullaryOp@U?$scalar_identity_op@M@internal@Eigen@@V?$Matrix@M$02$02$0A@$02$02@3@@Eigen@@$02$00$0A@@1@AEBU?$assign_op@MM@01@@Z
	??$resize_if_allowed@V?$Matrix@M$02$00$0A@$02$00@Eigen@@V?$CwiseBinaryOp@U?$scalar_product_op@MM@internal@Eigen@@$$CBV?$CwiseNullaryOp@U?$scalar_constant_op@M@internal@Eigen@@$$CBV?$Matrix@M$02$00$0A@$02$00@3@@3@$$CBV?$Matrix@M$02$00$0A@$02$00@3@@2@MM@internal@Eigen@@YAXAEAV?$Matrix@M$02$00$0A@$02$00@1@AEBV?$CwiseBinaryOp@U?$scalar_product_op@MM@internal@Eigen@@$$CBV?$CwiseNullaryOp@U?$scalar_constant_op@M@internal@Eigen@@$$CBV?$Matrix@M$02$00$0A@$02$00@3@@3@$$CBV?$Matrix@M$02$00$0A@$02$00@3@@1@AEBU?$assign_op@MM@01@@Z
	??$resize_if_allowed@V?$Matrix@M$02$00$0A@$02$00@Eigen@@V?$CwiseBinaryOp@U?$scalar_product_op@MM@internal@Eigen@@$$CBV?$Matrix@M$02$00$0A@$02$00@3@$$CBV?$CwiseNullaryOp@U?$scalar_constant_op@M@internal@Eigen@@$$CBV?$Matrix@M$02$00$0A@$02$00@3@@3@@2@MM@internal@Eigen@@YAXAEAV?$Matrix@M$02$00$0A@$02$00@1@AEBV?$CwiseBinaryOp@U?$scalar_product_op@MM@internal@Eigen@@$$CBV?$Matrix@M$02$00$0A@$02$00@3@$$CBV?$CwiseNullaryOp@U?$scalar_constant_op@M@internal@Eigen@@$$CBV?$Matrix@M$02$00$0A@$02$00@3@@3@@1@AEBU?$assign_op@MM@01@@Z
	??$resize_if_allowed@V?$Matrix@M$02$00$0A@$02$00@Eigen@@V?$CwiseBinaryOp@U?$scalar_quotient_op@MM@internal@Eigen@@$$CBV?$Matrix@M$02$00$0A@$02$00@3@$$CBV?$CwiseNullaryOp@U?$scalar_constant_op@M@internal@Eigen@@$$CBV?$Matrix@M$02$00$0A@$02$00@3@@3@@2@MM@internal@Eigen@@YAXAEAV?$Matrix@M$02$00$0A@$02$00@1@AEBV?$CwiseBinaryOp@U?$scalar_quotient_op@MM@internal@Eigen@@$$CBV?$Matrix@M$02$00$0A@$02$00@3@$$CBV?$CwiseNullaryOp@U?$scalar_constant_op@M@internal@Eigen@@$$CBV?$Matrix@M$02$00$0A@$02$00@3@@3@@1@AEBU?$assign_op@MM@01@@Z
	??$resize_if_allowed@V?$Matrix@M$02$00$0A@$02$00@Eigen@@V?$CwiseBinaryOp@U?$scalar_sum_op@MM@internal@Eigen@@$$CBV?$CwiseBinaryOp@U?$scalar_sum_op@MM@internal@Eigen@@$$CBV?$Matrix@M$02$00$0A@$02$00@3@$$CBV?$CwiseBinaryOp@U?$scalar_product_op@MM@internal@Eigen@@$$CBV?$CwiseNullaryOp@U?$scalar_constant_op@M@internal@Eigen@@$$CBV?$Matrix@M$02$00$0A@$02$00@3@@3@$$CBV?$Matrix@M$02$00$0A@$02$00@3@@3@@3@$$CBV?$Matrix@M$02$00$0A@$02$00@3@@2@MM@internal@Eigen@@YAXAEAV?$Matrix@M$02$00$0A@$02$00@1@AEBV?$CwiseBinaryOp@U?$scalar_sum_op@MM@internal@Eigen@@$$CBV?$CwiseBinaryOp@U?$scalar_sum_op@MM@internal@Eigen@@$$CBV?$Matrix@M$02$00$0A@$02$00@3@$$CBV?$CwiseBinaryOp@U?$scalar_product_op@MM@internal@Eigen@@$$CBV?$CwiseNullaryOp@U?$scalar_constant_op@M@internal@Eigen@@$$CBV?$Matrix@M$02$00$0A@$02$00@3@@3@$$CBV?$Matrix@M$02$00$0A@$02$00@3@@3@@3@$$CBV?$Matrix@M$02$00$0A@$02$00@3@@1@AEBU?$assign_op@MM@01@@Z
	??$resize_if_allowed@V?$Matrix@M$02$00$0A@$02$00@Eigen@@V?$CwiseBinaryOp@U?$scalar_sum_op@MM@internal@Eigen@@$$CBV?$Matrix@M$02$00$0A@$02$00@3@$$CBV43@@2@MM@internal@Eigen@@YAXAEAV?$Matrix@M$02$00$0A@$02$00@1@AEBV?$CwiseBinaryOp@U?$scalar_sum_op@MM@internal@Eigen@@$$CBV?$Matrix@M$02$00$0A@$02$00@3@$$CBV43@@1@AEBU?$assign_op@MM@01@@Z
	??$resize_if_allowed@V?$Matrix@M$02$00$0A@$02$00@Eigen@@V?$CwiseNullaryOp@U?$scalar_constant_op@M@internal@Eigen@@V?$Matrix@M$02$00$0A@$02$00@3@@2@MM@internal@Eigen@@YAXAEAV?$Matrix@M$02$00$0A@$02$00@1@AEBV?$CwiseNullaryOp@U?$scalar_constant_op@M@internal@Eigen@@V?$Matrix@M$02$00$0A@$02$00@3@@1@AEBU?$assign_op@MM@01@@Z
	??$resize_if_allowed@V?$Matrix@M$02$00$0A@$02$00@Eigen@@V?$CwiseNullaryOp@U?$scalar_constant_op@M@internal@Eigen@@V?$Matrix@M$02$00$0A@$02$00@3@@2@U?$div_assign_op@MM@internal@2@@internal@Eigen@@YAXAEAV?$Matrix@M$02$00$0A@$02$00@1@AEBV?$CwiseNullaryOp@U?$scalar_constant_op@M@internal@Eigen@@V?$Matrix@M$02$00$0A@$02$00@3@@1@AEBU?$div_assign_op@MM@01@@Z
	??$resize_if_allowed@V?$Matrix@M$02$00$0A@$02$00@Eigen@@V?$Product@V?$Block@$$CBV?$Matrix@M$03$03$0A@$03$03@Eigen@@$02$02$0A@@Eigen@@V?$Block@$$CBV?$Matrix@M$03$03$0A@$03$03@Eigen@@$02$00$00@2@$00@2@MM@internal@Eigen@@YAXAEAV?$Matrix@M$02$00$0A@$02$00@1@AEBV?$Product@V?$Block@$$CBV?$Matrix@M$03$03$0A@$03$03@Eigen@@$02$02$0A@@Eigen@@V?$Block@$$CBV?$Matrix@M$03$03$0A@$03$03@Eigen@@$02$00$00@2@$00@1@AEBU?$assign_op@MM@01@@Z
	??$resize_if_allowed@V?$Matrix@M$02$00$0A@$02$00@Eigen@@V?$Product@V?$Block@V?$Matrix@M$03$03$0A@$03$03@Eigen@@$02$02$0A@@Eigen@@V?$CwiseUnaryOp@U?$scalar_opposite_op@M@internal@Eigen@@$$CBV?$Matrix@M$02$00$0A@$02$00@3@@2@$00@2@MM@internal@Eigen@@YAXAEAV?$Matrix@M$02$00$0A@$02$00@1@AEBV?$Product@V?$Block@V?$Matrix@M$03$03$0A@$03$03@Eigen@@$02$02$0A@@Eigen@@V?$CwiseUnaryOp@U?$scalar_opposite_op@M@internal@Eigen@@$$CBV?$Matrix@M$02$00$0A@$02$00@3@@2@$00@1@AEBU?$assign_op@MM@01@@Z
	??$resize_if_allowed@V?$Matrix@M$02$00$0A@$02$00@Eigen@@V?$Product@V?$Block@V?$Matrix@M$03$03$0A@$03$03@Eigen@@$02$02$0A@@Eigen@@V?$Matrix@M$02$00$0A@$02$00@2@$00@2@MM@internal@Eigen@@YAXAEAV?$Matrix@M$02$00$0A@$02$00@1@AEBV?$Product@V?$Block@V?$Matrix@M$03$03$0A@$03$03@Eigen@@$02$02$0A@@Eigen@@V?$Matrix@M$02$00$0A@$02$00@2@$00@1@AEBU?$assign_op@MM@01@@Z
	??$resize_if_allowed@V?$Matrix@M$02$02$0A@$02$02@Eigen@@V?$Product@V?$Block@$$CBV?$Matrix@M$03$03$0A@$03$03@Eigen@@$02$02$0A@@Eigen@@V12@$00@2@MM@internal@Eigen@@YAXAEAV?$Matrix@M$02$02$0A@$02$02@1@AEBV?$Product@V?$Block@$$CBV?$Matrix@M$03$03$0A@$03$03@Eigen@@$02$02$0A@@Eigen@@V12@$00@1@AEBU?$assign_op@MM@01@@Z
	??$resize_if_allowed@V?$Matrix@M$02$02$0A@$02$02@Eigen@@V?$Product@V?$Block@V?$Matrix@M$03$03$0A@$03$03@Eigen@@$02$02$0A@@Eigen@@V?$Matrix@M$02$02$0A@$02$02@2@$00@2@MM@internal@Eigen@@YAXAEAV?$Matrix@M$02$02$0A@$02$02@1@AEBV?$Product@V?$Block@V?$Matrix@M$03$03$0A@$03$03@Eigen@@$02$02$0A@@Eigen@@V?$Matrix@M$02$02$0A@$02$02@2@$00@1@AEBU?$assign_op@MM@01@@Z
	??$resize_if_allowed@V?$Matrix@M$03$00$0A@$03$00@Eigen@@V12@MM@internal@Eigen@@YAXAEAV?$Matrix@M$03$00$0A@$03$00@1@AEBV21@AEBU?$assign_op@MM@01@@Z
	??$resize_if_allowed@V?$Matrix@M$03$00$0A@$03$00@Eigen@@V12@U?$swap_assign_op@M@internal@2@@internal@Eigen@@YAXAEAV?$Matrix@M$03$00$0A@$03$00@1@AEBV21@AEBU?$swap_assign_op@M@01@@Z
	??$resize_if_allowed@V?$Matrix@M$03$00$0A@$03$00@Eigen@@V?$CwiseBinaryOp@U?$scalar_quotient_op@MM@internal@Eigen@@$$CBV?$Matrix@M$03$00$0A@$03$00@3@$$CBV?$CwiseNullaryOp@U?$scalar_constant_op@M@internal@Eigen@@$$CBV?$Matrix@M$03$00$0A@$03$00@3@@3@@2@MM@internal@Eigen@@YAXAEAV?$Matrix@M$03$00$0A@$03$00@1@AEBV?$CwiseBinaryOp@U?$scalar_quotient_op@MM@internal@Eigen@@$$CBV?$Matrix@M$03$00$0A@$03$00@3@$$CBV?$CwiseNullaryOp@U?$scalar_constant_op@M@internal@Eigen@@$$CBV?$Matrix@M$03$00$0A@$03$00@3@@3@@1@AEBU?$assign_op@MM@01@@Z
	??$resize_if_allowed@V?$Matrix@M$03$00$0A@$03$00@Eigen@@V?$CwiseNullaryOp@U?$scalar_constant_op@M@internal@Eigen@@V?$Matrix@M$03$00$0A@$03$00@3@@2@MM@internal@Eigen@@YAXAEAV?$Matrix@M$03$00$0A@$03$00@1@AEBV?$CwiseNullaryOp@U?$scalar_constant_op@M@internal@Eigen@@V?$Matrix@M$03$00$0A@$03$00@3@@1@AEBU?$assign_op@MM@01@@Z
	??$resize_if_allowed@V?$Matrix@M$03$00$0A@$03$00@Eigen@@V?$CwiseNullaryOp@U?$scalar_constant_op@M@internal@Eigen@@V?$Matrix@M$03$00$0A@$03$00@3@@2@U?$div_assign_op@MM@internal@2@@internal@Eigen@@YAXAEAV?$Matrix@M$03$00$0A@$03$00@1@AEBV?$CwiseNullaryOp@U?$scalar_constant_op@M@internal@Eigen@@V?$Matrix@M$03$00$0A@$03$00@3@@1@AEBU?$div_assign_op@MM@01@@Z
	??$resize_if_allowed@V?$Matrix@M$03$03$0A@$03$03@Eigen@@V12@MM@internal@Eigen@@YAXAEAV?$Matrix@M$03$03$0A@$03$03@1@AEBV21@AEBU?$assign_op@MM@01@@Z
	??$resize_if_allowed@V?$Matrix@M$03$03$0A@$03$03@Eigen@@V?$CwiseNullaryOp@U?$scalar_constant_op@M@internal@Eigen@@V?$Matrix@M$03$03$0A@$03$03@3@@2@MM@internal@Eigen@@YAXAEAV?$Matrix@M$03$03$0A@$03$03@1@AEBV?$CwiseNullaryOp@U?$scalar_constant_op@M@internal@Eigen@@V?$Matrix@M$03$03$0A@$03$03@3@@1@AEBU?$assign_op@MM@01@@Z
	??$resize_if_allowed@V?$Matrix@M$03$03$0A@$03$03@Eigen@@V?$CwiseNullaryOp@U?$scalar_identity_op@M@internal@Eigen@@V?$Matrix@M$03$03$0A@$03$03@3@@2@MM@internal@Eigen@@YAXAEAV?$Matrix@M$03$03$0A@$03$03@1@AEBV?$CwiseNullaryOp@U?$scalar_identity_op@M@internal@Eigen@@V?$Matrix@M$03$03$0A@$03$03@3@@1@AEBU?$assign_op@MM@01@@Z
	??$rotate@V?$AngleAxis@M@Eigen@@@?$Transform@M$02$01$0A@@Eigen@@QEAAAEAV01@AEBV?$AngleAxis@M@1@@Z
	??$rotate@V?$Quaternion@M$0A@@Eigen@@@?$Transform@M$02$01$0A@@Eigen@@QEAAAEAV01@AEBV?$Quaternion@M$0A@@1@@Z
	??$run@T__m128@@@?$redux_vec_unroller@U?$scalar_sum_op@MM@internal@Eigen@@V?$redux_evaluator@V?$CwiseBinaryOp@U?$scalar_conj_product_op@MM@internal@Eigen@@$$CBV?$Matrix@M$02$00$0A@$02$00@3@$$CBV43@@Eigen@@@23@$0A@$0A@@internal@Eigen@@SA?AT__m128@@AEBV?$redux_evaluator@V?$CwiseBinaryOp@U?$scalar_conj_product_op@MM@internal@Eigen@@$$CBV?$Matrix@M$02$00$0A@$02$00@3@$$CBV43@@Eigen@@@12@AEBU?$scalar_sum_op@MM@12@@Z
	??$run@T__m128@@@?$redux_vec_unroller@U?$scalar_sum_op@MM@internal@Eigen@@V?$redux_evaluator@V?$CwiseUnaryOp@U?$scalar_abs2_op@M@internal@Eigen@@$$CBV?$CwiseBinaryOp@U?$scalar_difference_op@MM@internal@Eigen@@$$CBV?$Matrix@M$02$00$0A@$02$00@3@$$CBV43@@3@@Eigen@@@23@$0A@$0A@@internal@Eigen@@SA?AT__m128@@AEBV?$redux_evaluator@V?$CwiseUnaryOp@U?$scalar_abs2_op@M@internal@Eigen@@$$CBV?$CwiseBinaryOp@U?$scalar_difference_op@MM@internal@Eigen@@$$CBV?$Matrix@M$02$00$0A@$02$00@3@$$CBV43@@3@@Eigen@@@12@AEBU?$scalar_sum_op@MM@12@@Z
	??$run@T__m128@@@?$redux_vec_unroller@U?$scalar_sum_op@MM@internal@Eigen@@V?$redux_evaluator@V?$CwiseUnaryOp@U?$scalar_abs2_op@M@internal@Eigen@@$$CBV?$Matrix@M$02$00$0A@$02$00@3@@Eigen@@@23@$0A@$0A@@internal@Eigen@@SA?AT__m128@@AEBV?$redux_evaluator@V?$CwiseUnaryOp@U?$scalar_abs2_op@M@internal@Eigen@@$$CBV?$Matrix@M$02$00$0A@$02$00@3@@Eigen@@@12@AEBU?$scalar_sum_op@MM@12@@Z
	??$run@T__m128@@@?$redux_vec_unroller@U?$scalar_sum_op@MM@internal@Eigen@@V?$redux_evaluator@V?$CwiseUnaryOp@U?$scalar_abs2_op@M@internal@Eigen@@$$CBV?$Matrix@M$03$00$0A@$03$00@3@@Eigen@@@23@$0A@$00@internal@Eigen@@SA?AT__m128@@AEBV?$redux_evaluator@V?$CwiseUnaryOp@U?$scalar_abs2_op@M@internal@Eigen@@$$CBV?$Matrix@M$03$00$0A@$03$00@3@@Eigen@@@12@AEBU?$scalar_sum_op@MM@12@@Z
	??$run@V?$CwiseBinaryOp@U?$scalar_conj_product_op@MM@internal@Eigen@@$$CBV?$Matrix@M$02$00$0A@$02$00@3@$$CBV43@@Eigen@@@?$redux_impl@U?$scalar_sum_op@MM@internal@Eigen@@V?$redux_evaluator@V?$CwiseBinaryOp@U?$scalar_conj_product_op@MM@internal@Eigen@@$$CBV?$Matrix@M$02$00$0A@$02$00@3@$$CBV43@@Eigen@@@23@$02$01@internal@Eigen@@SAMAEBV?$redux_evaluator@V?$CwiseBinaryOp@U?$scalar_conj_product_op@MM@internal@Eigen@@$$CBV?$Matrix@M$02$00$0A@$02$00@3@$$CBV43@@Eigen@@@12@AEBU?$scalar_sum_op@MM@12@AEBV?$CwiseBinaryOp@U?$scalar_conj_product_op@MM@internal@Eigen@@$$CBV?$Matrix@M$02$00$0A@$02$00@3@$$CBV43@@2@@Z
	??$run@V?$CwiseBinaryOp@U?$scalar_product_op@MM@internal@Eigen@@$$CBV?$Transpose@$$CBV?$Block@$$CBV?$Block@$$CBV?$Matrix@M$03$03$0A@$03$03@Eigen@@$02$02$0A@@Eigen@@$00$02$0A@@Eigen@@@3@$$CBV?$Block@$$CBV?$Block@$$CBV?$Matrix@M$03$03$0A@$03$03@Eigen@@$02$00$00@Eigen@@$02$00$00@3@@Eigen@@@?$redux_impl@U?$scalar_sum_op@MM@internal@Eigen@@V?$redux_evaluator@V?$CwiseBinaryOp@U?$scalar_product_op@MM@internal@Eigen@@$$CBV?$Transpose@$$CBV?$Block@$$CBV?$Block@$$CBV?$Matrix@M$03$03$0A@$03$03@Eigen@@$02$02$0A@@Eigen@@$00$02$0A@@Eigen@@@3@$$CBV?$Block@$$CBV?$Block@$$CBV?$Matrix@M$03$03$0A@$03$03@Eigen@@$02$00$00@Eigen@@$02$00$00@3@@Eigen@@@23@$0A@$01@internal@Eigen@@SAMAEBV?$redux_evaluator@V?$CwiseBinaryOp@U?$scalar_product_op@MM@internal@Eigen@@$$CBV?$Transpose@$$CBV?$Block@$$CBV?$Block@$$CBV?$Matrix@M$03$03$0A@$03$03@Eigen@@$02$02$0A@@Eigen@@$00$02$0A@@Eigen@@@3@$$CBV?$Block@$$CBV?$Block@$$CBV?$Matrix@M$03$03$0A@$03$03@Eigen@@$02$00$00@Eigen@@$02$00$00@3@@Eigen@@@12@AEBU?$scalar_sum_op@MM@12@AEBV?$CwiseBinaryOp@U?$scalar_product_op@MM@internal@Eigen@@$$CBV?$Transpose@$$CBV?$Block@$$CBV?$Block@$$CBV?$Matrix@M$03$03$0A@$03$03@Eigen@@$02$02$0A@@Eigen@@$00$02$0A@@Eigen@@@3@$$CBV?$Block@$$CBV?$Block@$$CBV?$Matrix@M$03$03$0A@$03$03@Eigen@@$02$00$00@Eigen@@$02$00$00@3@@2@@Z
	??$run@V?$CwiseBinaryOp@U?$scalar_product_op@MM@internal@Eigen@@$$CBV?$Transpose@$$CBV?$Block@$$CBV?$Block@$$CBV?$Matrix@M$03$03$0A@$03$03@Eigen@@$02$02$0A@@Eigen@@$00$02$0A@@Eigen@@@3@$$CBV?$Block@$$CBV?$Block@$$CBV?$Matrix@M$03$03$0A@$03$03@Eigen@@$02$02$0A@@Eigen@@$02$00$00@3@@Eigen@@@?$redux_impl@U?$scalar_sum_op@MM@internal@Eigen@@V?$redux_evaluator@V?$CwiseBinaryOp@U?$scalar_product_op@MM@internal@Eigen@@$$CBV?$Transpose@$$CBV?$Block@$$CBV?$Block@$$CBV?$Matrix@M$03$03$0A@$03$03@Eigen@@$02$02$0A@@Eigen@@$00$02$0A@@Eigen@@@3@$$CBV?$Block@$$CBV?$Block@$$CBV?$Matrix@M$03$03$0A@$03$03@Eigen@@$02$02$0A@@Eigen@@$02$00$00@3@@Eigen@@@23@$0A@$01@internal@Eigen@@SAMAEBV?$redux_evaluator@V?$CwiseBinaryOp@U?$scalar_product_op@MM@internal@Eigen@@$$CBV?$Transpose@$$CBV?$Block@$$CBV?$Block@$$CBV?$Matrix@M$03$03$0A@$03$03@Eigen@@$02$02$0A@@Eigen@@$00$02$0A@@Eigen@@@3@$$CBV?$Block@$$CBV?$Block@$$CBV?$Matrix@M$03$03$0A@$03$03@Eigen@@$02$02$0A@@Eigen@@$02$00$00@3@@Eigen@@@12@AEBU?$scalar_sum_op@MM@12@AEBV?$CwiseBinaryOp@U?$scalar_product_op@MM@internal@Eigen@@$$CBV?$Transpose@$$CBV?$Block@$$CBV?$Block@$$CBV?$Matrix@M$03$03$0A@$03$03@Eigen@@$02$02$0A@@Eigen@@$00$02$0A@@Eigen@@@3@$$CBV?$Block@$$CBV?$Block@$$CBV?$Matrix@M$03$03$0A@$03$03@Eigen@@$02$02$0A@@Eigen@@$02$00$00@3@@2@@Z
	??$run@V?$CwiseBinaryOp@U?$scalar_product_op@MM@internal@Eigen@@$$CBV?$Transpose@$$CBV?$Block@$$CBV?$Block@V?$Matrix@M$03$03$0A@$03$03@Eigen@@$02$02$0A@@Eigen@@$00$02$0A@@Eigen@@@3@$$CBV?$Block@$$CBV?$CwiseUnaryOp@U?$scalar_opposite_op@M@internal@Eigen@@$$CBV?$Matrix@M$02$00$0A@$02$00@3@@Eigen@@$02$00$00@3@@Eigen@@@?$redux_impl@U?$scalar_sum_op@MM@internal@Eigen@@V?$redux_evaluator@V?$CwiseBinaryOp@U?$scalar_product_op@MM@internal@Eigen@@$$CBV?$Transpose@$$CBV?$Block@$$CBV?$Block@V?$Matrix@M$03$03$0A@$03$03@Eigen@@$02$02$0A@@Eigen@@$00$02$0A@@Eigen@@@3@$$CBV?$Block@$$CBV?$CwiseUnaryOp@U?$scalar_opposite_op@M@internal@Eigen@@$$CBV?$Matrix@M$02$00$0A@$02$00@3@@Eigen@@$02$00$00@3@@Eigen@@@23@$0A@$01@internal@Eigen@@SAMAEBV?$redux_evaluator@V?$CwiseBinaryOp@U?$scalar_product_op@MM@internal@Eigen@@$$CBV?$Transpose@$$CBV?$Block@$$CBV?$Block@V?$Matrix@M$03$03$0A@$03$03@Eigen@@$02$02$0A@@Eigen@@$00$02$0A@@Eigen@@@3@$$CBV?$Block@$$CBV?$CwiseUnaryOp@U?$scalar_opposite_op@M@internal@Eigen@@$$CBV?$Matrix@M$02$00$0A@$02$00@3@@Eigen@@$02$00$00@3@@Eigen@@@12@AEBU?$scalar_sum_op@MM@12@AEBV?$CwiseBinaryOp@U?$scalar_product_op@MM@internal@Eigen@@$$CBV?$Transpose@$$CBV?$Block@$$CBV?$Block@V?$Matrix@M$03$03$0A@$03$03@Eigen@@$02$02$0A@@Eigen@@$00$02$0A@@Eigen@@@3@$$CBV?$Block@$$CBV?$CwiseUnaryOp@U?$scalar_opposite_op@M@internal@Eigen@@$$CBV?$Matrix@M$02$00$0A@$02$00@3@@Eigen@@$02$00$00@3@@2@@Z
	??$run@V?$CwiseBinaryOp@U?$scalar_product_op@MM@internal@Eigen@@$$CBV?$Transpose@$$CBV?$Block@$$CBV?$Block@V?$Matrix@M$03$03$0A@$03$03@Eigen@@$02$02$0A@@Eigen@@$00$02$0A@@Eigen@@@3@$$CBV?$Block@$$CBV?$Matrix@M$02$00$0A@$02$00@Eigen@@$02$00$00@3@@Eigen@@@?$redux_impl@U?$scalar_sum_op@MM@internal@Eigen@@V?$redux_evaluator@V?$CwiseBinaryOp@U?$scalar_product_op@MM@internal@Eigen@@$$CBV?$Transpose@$$CBV?$Block@$$CBV?$Block@V?$Matrix@M$03$03$0A@$03$03@Eigen@@$02$02$0A@@Eigen@@$00$02$0A@@Eigen@@@3@$$CBV?$Block@$$CBV?$Matrix@M$02$00$0A@$02$00@Eigen@@$02$00$00@3@@Eigen@@@23@$0A@$01@internal@Eigen@@SAMAEBV?$redux_evaluator@V?$CwiseBinaryOp@U?$scalar_product_op@MM@internal@Eigen@@$$CBV?$Transpose@$$CBV?$Block@$$CBV?$Block@V?$Matrix@M$03$03$0A@$03$03@Eigen@@$02$02$0A@@Eigen@@$00$02$0A@@Eigen@@@3@$$CBV?$Block@$$CBV?$Matrix@M$02$00$0A@$02$00@Eigen@@$02$00$00@3@@Eigen@@@12@AEBU?$scalar_sum_op@MM@12@AEBV?$CwiseBinaryOp@U?$scalar_product_op@MM@internal@Eigen@@$$CBV?$Transpose@$$CBV?$Block@$$CBV?$Block@V?$Matrix@M$03$03$0A@$03$03@Eigen@@$02$02$0A@@Eigen@@$00$02$0A@@Eigen@@@3@$$CBV?$Block@$$CBV?$Matrix@M$02$00$0A@$02$00@Eigen@@$02$00$00@3@@2@@Z
	??$run@V?$CwiseBinaryOp@U?$scalar_product_op@MM@internal@Eigen@@$$CBV?$Transpose@$$CBV?$Block@$$CBV?$Block@V?$Matrix@M$03$03$0A@$03$03@Eigen@@$02$02$0A@@Eigen@@$00$02$0A@@Eigen@@@3@$$CBV?$Block@$$CBV?$Matrix@M$02$02$0A@$02$02@Eigen@@$02$00$00@3@@Eigen@@@?$redux_impl@U?$scalar_sum_op@MM@internal@Eigen@@V?$redux_evaluator@V?$CwiseBinaryOp@U?$scalar_product_op@MM@internal@Eigen@@$$CBV?$Transpose@$$CBV?$Block@$$CBV?$Block@V?$Matrix@M$03$03$0A@$03$03@Eigen@@$02$02$0A@@Eigen@@$00$02$0A@@Eigen@@@3@$$CBV?$Block@$$CBV?$Matrix@M$02$02$0A@$02$02@Eigen@@$02$00$00@3@@Eigen@@@23@$0A@$01@internal@Eigen@@SAMAEBV?$redux_evaluator@V?$CwiseBinaryOp@U?$scalar_product_op@MM@internal@Eigen@@$$CBV?$Transpose@$$CBV?$Block@$$CBV?$Block@V?$Matrix@M$03$03$0A@$03$03@Eigen@@$02$02$0A@@Eigen@@$00$02$0A@@Eigen@@@3@$$CBV?$Block@$$CBV?$Matrix@M$02$02$0A@$02$02@Eigen@@$02$00$00@3@@Eigen@@@12@AEBU?$scalar_sum_op@MM@12@AEBV?$CwiseBinaryOp@U?$scalar_product_op@MM@internal@Eigen@@$$CBV?$Transpose@$$CBV?$Block@$$CBV?$Block@V?$Matrix@M$03$03$0A@$03$03@Eigen@@$02$02$0A@@Eigen@@$00$02$0A@@Eigen@@@3@$$CBV?$Block@$$CBV?$Matrix@M$02$02$0A@$02$02@Eigen@@$02$00$00@3@@2@@Z
	??$run@V?$CwiseUnaryOp@U?$scalar_abs2_op@M@internal@Eigen@@$$CBV?$CwiseBinaryOp@U?$scalar_difference_op@MM@internal@Eigen@@$$CBV?$Matrix@M$02$00$0A@$02$00@3@$$CBV43@@3@@Eigen@@@?$redux_impl@U?$scalar_sum_op@MM@internal@Eigen@@V?$redux_evaluator@V?$CwiseUnaryOp@U?$scalar_abs2_op@M@internal@Eigen@@$$CBV?$CwiseBinaryOp@U?$scalar_difference_op@MM@internal@Eigen@@$$CBV?$Matrix@M$02$00$0A@$02$00@3@$$CBV43@@3@@Eigen@@@23@$02$01@internal@Eigen@@SAMAEBV?$redux_evaluator@V?$CwiseUnaryOp@U?$scalar_abs2_op@M@internal@Eigen@@$$CBV?$CwiseBinaryOp@U?$scalar_difference_op@MM@internal@Eigen@@$$CBV?$Matrix@M$02$00$0A@$02$00@3@$$CBV43@@3@@Eigen@@@12@AEBU?$scalar_sum_op@MM@12@AEBV?$CwiseUnaryOp@U?$scalar_abs2_op@M@internal@Eigen@@$$CBV?$CwiseBinaryOp@U?$scalar_difference_op@MM@internal@Eigen@@$$CBV?$Matrix@M$02$00$0A@$02$00@3@$$CBV43@@3@@2@@Z
	??$run@V?$CwiseUnaryOp@U?$scalar_abs2_op@M@internal@Eigen@@$$CBV?$Matrix@M$02$00$0A@$02$00@3@@Eigen@@@?$redux_impl@U?$scalar_sum_op@MM@internal@Eigen@@V?$redux_evaluator@V?$CwiseUnaryOp@U?$scalar_abs2_op@M@internal@Eigen@@$$CBV?$Matrix@M$02$00$0A@$02$00@3@@Eigen@@@23@$02$01@internal@Eigen@@SAMAEBV?$redux_evaluator@V?$CwiseUnaryOp@U?$scalar_abs2_op@M@internal@Eigen@@$$CBV?$Matrix@M$02$00$0A@$02$00@3@@Eigen@@@12@AEBU?$scalar_sum_op@MM@12@AEBV?$CwiseUnaryOp@U?$scalar_abs2_op@M@internal@Eigen@@$$CBV?$Matrix@M$02$00$0A@$02$00@3@@2@@Z
	??$run@V?$CwiseUnaryOp@U?$scalar_abs2_op@M@internal@Eigen@@$$CBV?$Matrix@M$03$00$0A@$03$00@3@@Eigen@@@?$redux_impl@U?$scalar_sum_op@MM@internal@Eigen@@V?$redux_evaluator@V?$CwiseUnaryOp@U?$scalar_abs2_op@M@internal@Eigen@@$$CBV?$Matrix@M$03$00$0A@$03$00@3@@Eigen@@@23@$02$01@internal@Eigen@@SAMAEBV?$redux_evaluator@V?$CwiseUnaryOp@U?$scalar_abs2_op@M@internal@Eigen@@$$CBV?$Matrix@M$03$00$0A@$03$00@3@@Eigen@@@12@AEBU?$scalar_sum_op@MM@12@AEBV?$CwiseUnaryOp@U?$scalar_abs2_op@M@internal@Eigen@@$$CBV?$Matrix@M$03$00$0A@$03$00@3@@2@@Z
	??$run@V?$Matrix@M$03$03$0A@$03$03@Eigen@@@?$transform_make_affine@$01@internal@Eigen@@SAXAEAV?$Matrix@M$03$03$0A@$03$03@2@@Z
	??$run@V?$Quaternion@M$0A@@Eigen@@@?$quaternionbase_assign_impl@V?$CwiseBinaryOp@U?$scalar_quotient_op@MM@internal@Eigen@@$$CBV?$Matrix@M$03$00$0A@$03$00@3@$$CBV?$CwiseNullaryOp@U?$scalar_constant_op@M@internal@Eigen@@$$CBV?$Matrix@M$03$00$0A@$03$00@3@@3@@Eigen@@$03$00@internal@Eigen@@SAXAEAV?$QuaternionBase@V?$Quaternion@M$0A@@Eigen@@@2@AEBV?$CwiseBinaryOp@U?$scalar_quotient_op@MM@internal@Eigen@@$$CBV?$Matrix@M$03$00$0A@$03$00@3@$$CBV?$CwiseNullaryOp@U?$scalar_constant_op@M@internal@Eigen@@$$CBV?$Matrix@M$03$00$0A@$03$00@3@@3@@2@@Z
	??$run@V?$Quaternion@M$0A@@Eigen@@@?$quaternionbase_assign_impl@V?$CwiseNullaryOp@U?$scalar_constant_op@M@internal@Eigen@@V?$Matrix@M$03$00$0A@$03$00@3@@Eigen@@$03$00@internal@Eigen@@SAXAEAV?$QuaternionBase@V?$Quaternion@M$0A@@Eigen@@@2@AEBV?$CwiseNullaryOp@U?$scalar_constant_op@M@internal@Eigen@@V?$Matrix@M$03$00$0A@$03$00@3@@2@@Z
	??$run@_J@?$check_rows_cols_for_overflow@$01@internal@Eigen@@SAX_J0@Z
	??$run@_J@?$check_rows_cols_for_overflow@$02@internal@Eigen@@SAX_J0@Z
	??$run@_J@?$check_rows_cols_for_overflow@$03@internal@Eigen@@SAX_J0@Z
	??$run@_J@?$check_rows_cols_for_overflow@$08@internal@Eigen@@SAX_J0@Z
	??$run@_J@?$check_rows_cols_for_overflow@$0BA@@internal@Eigen@@SAX_J0@Z
	??$scale@V?$Matrix@M$02$00$0A@$02$00@Eigen@@@?$Transform@M$02$01$0A@@Eigen@@QEAAAEAV01@AEBV?$MatrixBase@V?$Matrix@M$02$00$0A@$02$00@Eigen@@@1@@Z
	??$sqrt@M@numext@Eigen@@YAMAEBM@Z
	??$swap@MX@std@@YAXAEAM0@Z
	??$swap@PEAIX@std@@YAXAEAPEAI0@Z
	??$swap@PEAV_Ref_count_base@std@@X@std@@YAXAEAPEAV_Ref_count_base@0@0@Z
	??$swap@V?$Matrix@M$02$00$0A@$02$00@Eigen@@@?$DenseBase@V?$Matrix@M$02$00$0A@$02$00@Eigen@@@Eigen@@QEAAXAEAV?$PlainObjectBase@V?$Matrix@M$02$00$0A@$02$00@Eigen@@@1@@Z
	??$swap@V?$Matrix@M$02$00$0A@$02$00@Eigen@@@?$PlainObjectBase@V?$Matrix@M$02$00$0A@$02$00@Eigen@@@Eigen@@QEAAXAEAV?$DenseBase@V?$Matrix@M$02$00$0A@$02$00@Eigen@@@1@@Z
	??$swap@V?$Matrix@M$03$00$0A@$03$00@Eigen@@@?$DenseBase@V?$Matrix@M$03$00$0A@$03$00@Eigen@@@Eigen@@QEAAXAEAV?$PlainObjectBase@V?$Matrix@M$03$00$0A@$03$00@Eigen@@@1@@Z
	??$swap@V?$Matrix@M$03$00$0A@$03$00@Eigen@@@?$PlainObjectBase@V?$Matrix@M$03$00$0A@$03$00@Eigen@@@Eigen@@QEAAXAEAV?$DenseBase@V?$Matrix@M$03$00$0A@$03$00@Eigen@@@1@@Z
	??$translate@V?$CwiseUnaryOp@U?$scalar_opposite_op@M@internal@Eigen@@$$CBV?$Matrix@M$02$00$0A@$02$00@3@@Eigen@@@?$Transform@M$02$01$0A@@Eigen@@QEAAAEAV01@AEBV?$MatrixBase@V?$CwiseUnaryOp@U?$scalar_opposite_op@M@internal@Eigen@@$$CBV?$Matrix@M$02$00$0A@$02$00@3@@Eigen@@@1@@Z
	??$translate@V?$Matrix@M$02$00$0A@$02$00@Eigen@@@?$Transform@M$02$01$0A@@Eigen@@QEAAAEAV01@AEBV?$MatrixBase@V?$Matrix@M$02$00$0A@$02$00@Eigen@@@1@@Z
	??$use_facet@V?$codecvt@DDU_Mbstatet@@@std@@@std@@YAAEBV?$codecvt@DDU_Mbstatet@@@0@AEBVlocale@0@@Z
	??$use_facet@V?$ctype@D@std@@@std@@YAAEBV?$ctype@D@0@AEBVlocale@0@@Z
	??$writePacket@$0BA@T__m128@@@?$evaluator@V?$PlainObjectBase@V?$Matrix@M$03$00$0A@$03$00@Eigen@@@Eigen@@@internal@Eigen@@QEAAX_J0AEBT__m128@@@Z
	??0?$AddExpr@V?$SymbolExpr@Usymbolic_last_tag@internal@Eigen@@@symbolic@Eigen@@V?$ValueExpr@V?$FixedInt@$00@internal@Eigen@@@23@@symbolic@Eigen@@QEAA@AEBV?$SymbolExpr@Usymbolic_last_tag@internal@Eigen@@@12@AEBV?$ValueExpr@V?$FixedInt@$00@internal@Eigen@@@12@@Z
	??0?$ArrayBase@V?$ArrayWrapper@$$CBV?$CwiseBinaryOp@U?$scalar_product_op@MM@internal@Eigen@@$$CBV?$Matrix@M$02$00$0A@$02$00@3@$$CBV43@@Eigen@@@Eigen@@@Eigen@@IEAA@XZ
	??0?$ArrayBase@V?$CwiseBinaryOp@U?$scalar_sum_op@MM@internal@Eigen@@$$CBV?$ArrayWrapper@$$CBV?$CwiseBinaryOp@U?$scalar_product_op@MM@internal@Eigen@@$$CBV?$Matrix@M$02$00$0A@$02$00@3@$$CBV43@@Eigen@@@3@$$CBV?$CwiseNullaryOp@U?$scalar_constant_op@M@internal@Eigen@@$$CBV?$Array@M$02$00$0A@$02$00@3@@3@@Eigen@@@Eigen@@IEAA@XZ
	??0?$ArrayBase@V?$CwiseNullaryOp@U?$scalar_constant_op@M@internal@Eigen@@$$CBV?$Array@M$02$00$0A@$02$00@3@@Eigen@@@Eigen@@IEAA@XZ
	??0?$ArrayWrapper@$$CBV?$CwiseBinaryOp@U?$scalar_product_op@MM@internal@Eigen@@$$CBV?$Matrix@M$02$00$0A@$02$00@3@$$CBV43@@Eigen@@@Eigen@@QEAA@AEBV?$CwiseBinaryOp@U?$scalar_product_op@MM@internal@Eigen@@$$CBV?$Matrix@M$02$00$0A@$02$00@3@$$CBV43@@1@@Z
	??0?$Block@$$CBV?$Block@$$CBV?$Matrix@M$03$03$0A@$03$03@Eigen@@$02$00$00@Eigen@@$02$00$00@Eigen@@QEAA@AEBV?$Block@$$CBV?$Matrix@M$03$03$0A@$03$03@Eigen@@$02$00$00@1@_J@Z
	??0?$Block@$$CBV?$Block@$$CBV?$Matrix@M$03$03$0A@$03$03@Eigen@@$02$02$0A@@Eigen@@$00$02$0A@@Eigen@@QEAA@AEBV?$Block@$$CBV?$Matrix@M$03$03$0A@$03$03@Eigen@@$02$02$0A@@1@_J@Z
	??0?$Block@$$CBV?$Block@$$CBV?$Matrix@M$03$03$0A@$03$03@Eigen@@$02$02$0A@@Eigen@@$02$00$00@Eigen@@QEAA@AEBV?$Block@$$CBV?$Matrix@M$03$03$0A@$03$03@Eigen@@$02$02$0A@@1@_J@Z
	??0?$Block@$$CBV?$Block@V?$Matrix@M$03$03$0A@$03$03@Eigen@@$02$02$0A@@Eigen@@$00$02$0A@@Eigen@@QEAA@AEBV?$Block@V?$Matrix@M$03$03$0A@$03$03@Eigen@@$02$02$0A@@1@_J@Z
	??0?$Block@$$CBV?$CwiseNullaryOp@U?$scalar_identity_op@M@internal@Eigen@@V?$Matrix@M$02$02$0A@$02$02@3@@Eigen@@$02$00$0A@@Eigen@@QEAA@AEBV?$CwiseNullaryOp@U?$scalar_identity_op@M@internal@Eigen@@V?$Matrix@M$02$02$0A@$02$02@3@@1@_J@Z
	??0?$Block@$$CBV?$CwiseUnaryOp@U?$scalar_opposite_op@M@internal@Eigen@@$$CBV?$Matrix@M$02$00$0A@$02$00@3@@Eigen@@$02$00$00@Eigen@@QEAA@AEBV?$CwiseUnaryOp@U?$scalar_opposite_op@M@internal@Eigen@@$$CBV?$Matrix@M$02$00$0A@$02$00@3@@1@_J@Z
	??0?$Block@$$CBV?$Matrix@M$02$00$0A@$02$00@Eigen@@$02$00$00@Eigen@@QEAA@AEBV?$Matrix@M$02$00$0A@$02$00@1@_J@Z
	??0?$Block@$$CBV?$Matrix@M$02$02$0A@$02$02@Eigen@@$02$00$00@Eigen@@QEAA@AEBV?$Matrix@M$02$02$0A@$02$02@1@_J@Z
	??0?$Block@$$CBV?$Matrix@M$03$00$0A@$03$00@Eigen@@$02$00$0A@@Eigen@@QEAA@AEBV?$Matrix@M$03$00$0A@$03$00@1@_J111@Z
	??0?$Block@$$CBV?$Matrix@M$03$03$0A@$03$03@Eigen@@$02$00$00@Eigen@@QEAA@AEBV?$Matrix@M$03$03$0A@$03$03@1@_J1@Z
	??0?$Block@$$CBV?$Matrix@M$03$03$0A@$03$03@Eigen@@$02$02$0A@@Eigen@@QEAA@AEBV?$Matrix@M$03$03$0A@$03$03@1@_J1@Z
	??0?$Block@V?$Matrix@M$02$00$0A@$02$00@Eigen@@$0?0$00$0A@@Eigen@@QEAA@AEAV?$Matrix@M$02$00$0A@$02$00@1@_J111@Z
	??0?$Block@V?$Matrix@M$03$00$0A@$03$00@Eigen@@$02$00$0A@@Eigen@@QEAA@AEAV?$Matrix@M$03$00$0A@$03$00@1@_J111@Z
	??0?$Block@V?$Matrix@M$03$03$0A@$03$03@Eigen@@$00$02$0A@@Eigen@@QEAA@AEAV?$Matrix@M$03$03$0A@$03$03@1@_J1@Z
	??0?$Block@V?$Matrix@M$03$03$0A@$03$03@Eigen@@$02$00$00@Eigen@@QEAA@AEAV?$Matrix@M$03$03$0A@$03$03@1@_J1@Z
	??0?$Block@V?$Matrix@M$03$03$0A@$03$03@Eigen@@$02$00$0A@@Eigen@@QEAA@AEAV?$Matrix@M$03$03$0A@$03$03@1@_J1@Z
	??0?$Block@V?$Matrix@M$03$03$0A@$03$03@Eigen@@$02$02$0A@@Eigen@@QEAA@AEAV?$Matrix@M$03$03$0A@$03$03@1@_J1@Z
	??0?$BlockImpl@$$CBV?$Block@$$CBV?$Matrix@M$03$03$0A@$03$03@Eigen@@$02$00$00@Eigen@@$02$00$00UDense@2@@Eigen@@QEAA@AEBV?$Block@$$CBV?$Matrix@M$03$03$0A@$03$03@Eigen@@$02$00$00@1@_J@Z
	??0?$BlockImpl@$$CBV?$Block@$$CBV?$Matrix@M$03$03$0A@$03$03@Eigen@@$02$02$0A@@Eigen@@$00$02$0A@UDense@2@@Eigen@@QEAA@AEBV?$Block@$$CBV?$Matrix@M$03$03$0A@$03$03@Eigen@@$02$02$0A@@1@_J@Z
	??0?$BlockImpl@$$CBV?$Block@$$CBV?$Matrix@M$03$03$0A@$03$03@Eigen@@$02$02$0A@@Eigen@@$02$00$00UDense@2@@Eigen@@QEAA@AEBV?$Block@$$CBV?$Matrix@M$03$03$0A@$03$03@Eigen@@$02$02$0A@@1@_J@Z
	??0?$BlockImpl@$$CBV?$Block@V?$Matrix@M$03$03$0A@$03$03@Eigen@@$02$02$0A@@Eigen@@$00$02$0A@UDense@2@@Eigen@@QEAA@AEBV?$Block@V?$Matrix@M$03$03$0A@$03$03@Eigen@@$02$02$0A@@1@_J@Z
	??0?$BlockImpl@$$CBV?$CwiseNullaryOp@U?$scalar_identity_op@M@internal@Eigen@@V?$Matrix@M$02$02$0A@$02$02@3@@Eigen@@$02$00$0A@UDense@2@@Eigen@@QEAA@AEBV?$CwiseNullaryOp@U?$scalar_identity_op@M@internal@Eigen@@V?$Matrix@M$02$02$0A@$02$02@3@@1@_J@Z
	??0?$BlockImpl@$$CBV?$CwiseUnaryOp@U?$scalar_opposite_op@M@internal@Eigen@@$$CBV?$Matrix@M$02$00$0A@$02$00@3@@Eigen@@$02$00$00UDense@2@@Eigen@@QEAA@AEBV?$CwiseUnaryOp@U?$scalar_opposite_op@M@internal@Eigen@@$$CBV?$Matrix@M$02$00$0A@$02$00@3@@1@_J@Z
	??0?$BlockImpl@$$CBV?$Matrix@M$02$00$0A@$02$00@Eigen@@$02$00$00UDense@2@@Eigen@@QEAA@AEBV?$Matrix@M$02$00$0A@$02$00@1@_J@Z
	??0?$BlockImpl@$$CBV?$Matrix@M$02$02$0A@$02$02@Eigen@@$02$00$00UDense@2@@Eigen@@QEAA@AEBV?$Matrix@M$02$02$0A@$02$02@1@_J@Z
	??0?$BlockImpl@$$CBV?$Matrix@M$03$00$0A@$03$00@Eigen@@$02$00$0A@UDense@2@@Eigen@@QEAA@AEBV?$Matrix@M$03$00$0A@$03$00@1@_J111@Z
	??0?$BlockImpl@$$CBV?$Matrix@M$03$03$0A@$03$03@Eigen@@$02$00$00UDense@2@@Eigen@@QEAA@AEBV?$Matrix@M$03$03$0A@$03$03@1@_J1@Z
	??0?$BlockImpl@$$CBV?$Matrix@M$03$03$0A@$03$03@Eigen@@$02$02$0A@UDense@2@@Eigen@@QEAA@AEBV?$Matrix@M$03$03$0A@$03$03@1@_J1@Z
	??0?$BlockImpl@V?$Matrix@M$02$00$0A@$02$00@Eigen@@$0?0$00$0A@UDense@2@@Eigen@@QEAA@AEAV?$Matrix@M$02$00$0A@$02$00@1@_J111@Z
	??0?$BlockImpl@V?$Matrix@M$03$00$0A@$03$00@Eigen@@$02$00$0A@UDense@2@@Eigen@@QEAA@AEAV?$Matrix@M$03$00$0A@$03$00@1@_J111@Z
	??0?$BlockImpl@V?$Matrix@M$03$03$0A@$03$03@Eigen@@$00$02$0A@UDense@2@@Eigen@@QEAA@AEAV?$Matrix@M$03$03$0A@$03$03@1@_J1@Z
	??0?$BlockImpl@V?$Matrix@M$03$03$0A@$03$03@Eigen@@$02$00$00UDense@2@@Eigen@@QEAA@AEAV?$Matrix@M$03$03$0A@$03$03@1@_J1@Z
	??0?$BlockImpl@V?$Matrix@M$03$03$0A@$03$03@Eigen@@$02$00$0A@UDense@2@@Eigen@@QEAA@AEAV?$Matrix@M$03$03$0A@$03$03@1@_J1@Z
	??0?$BlockImpl@V?$Matrix@M$03$03$0A@$03$03@Eigen@@$02$02$0A@UDense@2@@Eigen@@QEAA@AEAV?$Matrix@M$03$03$0A@$03$03@1@_J1@Z
	??0?$BlockImpl_dense@$$CBV?$Block@$$CBV?$Matrix@M$03$03$0A@$03$03@Eigen@@$02$00$00@Eigen@@$02$00$00$00@internal@Eigen@@QEAA@AEBV?$Block@$$CBV?$Matrix@M$03$03$0A@$03$03@Eigen@@$02$00$00@2@_J@Z
	??0?$BlockImpl_dense@$$CBV?$Block@$$CBV?$Matrix@M$03$03$0A@$03$03@Eigen@@$02$02$0A@@Eigen@@$00$02$0A@$00@internal@Eigen@@QEAA@AEBV?$Block@$$CBV?$Matrix@M$03$03$0A@$03$03@Eigen@@$02$02$0A@@2@_J@Z
	??0?$BlockImpl_dense@$$CBV?$Block@$$CBV?$Matrix@M$03$03$0A@$03$03@Eigen@@$02$02$0A@@Eigen@@$02$00$00$00@internal@Eigen@@QEAA@AEBV?$Block@$$CBV?$Matrix@M$03$03$0A@$03$03@Eigen@@$02$02$0A@@2@_J@Z
	??0?$BlockImpl_dense@$$CBV?$Block@V?$Matrix@M$03$03$0A@$03$03@Eigen@@$02$02$0A@@Eigen@@$00$02$0A@$00@internal@Eigen@@QEAA@AEBV?$Block@V?$Matrix@M$03$03$0A@$03$03@Eigen@@$02$02$0A@@2@_J@Z
	??0?$BlockImpl_dense@$$CBV?$CwiseNullaryOp@U?$scalar_identity_op@M@internal@Eigen@@V?$Matrix@M$02$02$0A@$02$02@3@@Eigen@@$02$00$0A@$0A@@internal@Eigen@@QEAA@AEBV?$CwiseNullaryOp@U?$scalar_identity_op@M@internal@Eigen@@V?$Matrix@M$02$02$0A@$02$02@3@@2@_J@Z
	??0?$BlockImpl_dense@$$CBV?$CwiseUnaryOp@U?$scalar_opposite_op@M@internal@Eigen@@$$CBV?$Matrix@M$02$00$0A@$02$00@3@@Eigen@@$02$00$00$0A@@internal@Eigen@@QEAA@AEBV?$CwiseUnaryOp@U?$scalar_opposite_op@M@internal@Eigen@@$$CBV?$Matrix@M$02$00$0A@$02$00@3@@2@_J@Z
	??0?$BlockImpl_dense@$$CBV?$Matrix@M$02$00$0A@$02$00@Eigen@@$02$00$00$00@internal@Eigen@@QEAA@AEBV?$Matrix@M$02$00$0A@$02$00@2@_J@Z
	??0?$BlockImpl_dense@$$CBV?$Matrix@M$02$02$0A@$02$02@Eigen@@$02$00$00$00@internal@Eigen@@QEAA@AEBV?$Matrix@M$02$02$0A@$02$02@2@_J@Z
	??0?$BlockImpl_dense@$$CBV?$Matrix@M$03$00$0A@$03$00@Eigen@@$02$00$0A@$00@internal@Eigen@@QEAA@AEBV?$Matrix@M$03$00$0A@$03$00@2@_J111@Z
	??0?$BlockImpl_dense@$$CBV?$Matrix@M$03$03$0A@$03$03@Eigen@@$02$00$00$00@internal@Eigen@@QEAA@AEBV?$Matrix@M$03$03$0A@$03$03@2@_J1@Z
	??0?$BlockImpl_dense@$$CBV?$Matrix@M$03$03$0A@$03$03@Eigen@@$02$02$0A@$00@internal@Eigen@@QEAA@AEBV?$Matrix@M$03$03$0A@$03$03@2@_J1@Z
	??0?$BlockImpl_dense@V?$Matrix@M$02$00$0A@$02$00@Eigen@@$0?0$00$0A@$00@internal@Eigen@@QEAA@AEAV?$Matrix@M$02$00$0A@$02$00@2@_J111@Z
	??0?$BlockImpl_dense@V?$Matrix@M$03$00$0A@$03$00@Eigen@@$02$00$0A@$00@internal@Eigen@@QEAA@AEAV?$Matrix@M$03$00$0A@$03$00@2@_J111@Z
	??0?$BlockImpl_dense@V?$Matrix@M$03$03$0A@$03$03@Eigen@@$00$02$0A@$00@internal@Eigen@@QEAA@AEAV?$Matrix@M$03$03$0A@$03$03@2@_J1@Z
	??0?$BlockImpl_dense@V?$Matrix@M$03$03$0A@$03$03@Eigen@@$02$00$00$00@internal@Eigen@@QEAA@AEAV?$Matrix@M$03$03$0A@$03$03@2@_J1@Z
	??0?$BlockImpl_dense@V?$Matrix@M$03$03$0A@$03$03@Eigen@@$02$00$0A@$00@internal@Eigen@@QEAA@AEAV?$Matrix@M$03$03$0A@$03$03@2@_J1@Z
	??0?$BlockImpl_dense@V?$Matrix@M$03$03$0A@$03$03@Eigen@@$02$02$0A@$00@internal@Eigen@@QEAA@AEAV?$Matrix@M$03$03$0A@$03$03@2@_J1@Z
	??0?$CommaInitializer@V?$Matrix@H$01$00$0A@$01$00@Eigen@@@Eigen@@QEAA@AEAV?$Matrix@H$01$00$0A@$01$00@1@AEBH@Z
	??0?$CommaInitializer@V?$Matrix@M$01$00$0A@$01$00@Eigen@@@Eigen@@QEAA@AEAV?$Matrix@M$01$00$0A@$01$00@1@AEBM@Z
	??0?$CommaInitializer@V?$Matrix@M$02$00$0A@$02$00@Eigen@@@Eigen@@QEAA@AEAV?$Matrix@M$02$00$0A@$02$00@1@AEBM@Z
	??0?$CommaInitializer@V?$Matrix@M$03$00$0A@$03$00@Eigen@@@Eigen@@QEAA@AEAV?$Matrix@M$03$00$0A@$03$00@1@AEBM@Z
	??0?$CwiseBinaryOp@U?$not_equal_to@M@std@@$$CBV?$Matrix@M$01$00$0A@$01$00@Eigen@@$$CBV?$Block@V?$Matrix@M$02$00$0A@$02$00@Eigen@@$0?0$00$0A@@4@@Eigen@@QEAA@AEBV?$Matrix@M$01$00$0A@$01$00@1@AEBV?$Block@V?$Matrix@M$02$00$0A@$02$00@Eigen@@$0?0$00$0A@@1@AEBU?$not_equal_to@M@std@@@Z
	??0?$CwiseBinaryOp@U?$not_equal_to@M@std@@$$CBV?$Matrix@M$03$03$0A@$03$03@Eigen@@$$CBV?$CwiseNullaryOp@U?$scalar_identity_op@M@internal@Eigen@@V?$Matrix@M$03$03$0A@$03$03@3@@4@@Eigen@@QEAA@AEBV?$Matrix@M$03$03$0A@$03$03@1@AEBV?$CwiseNullaryOp@U?$scalar_identity_op@M@internal@Eigen@@V?$Matrix@M$03$03$0A@$03$03@3@@1@AEBU?$not_equal_to@M@std@@@Z
	??0?$CwiseBinaryOp@U?$scalar_conj_product_op@MM@internal@Eigen@@$$CBV?$Matrix@M$02$00$0A@$02$00@3@$$CBV43@@Eigen@@QEAA@AEBV?$Matrix@M$02$00$0A@$02$00@1@0AEBU?$scalar_conj_product_op@MM@internal@1@@Z
	??0?$CwiseBinaryOp@U?$scalar_difference_op@MM@internal@Eigen@@$$CBV?$Matrix@M$01$00$0A@$01$00@3@$$CBV43@@Eigen@@QEAA@AEBV?$Matrix@M$01$00$0A@$01$00@1@0AEBU?$scalar_difference_op@MM@internal@1@@Z
	??0?$CwiseBinaryOp@U?$scalar_difference_op@MM@internal@Eigen@@$$CBV?$Matrix@M$02$00$0A@$02$00@3@$$CBV43@@Eigen@@QEAA@AEBV?$Matrix@M$02$00$0A@$02$00@1@0AEBU?$scalar_difference_op@MM@internal@1@@Z
	??0?$CwiseBinaryOp@U?$scalar_product_op@MM@internal@Eigen@@$$CBV?$CwiseNullaryOp@U?$scalar_constant_op@M@internal@Eigen@@$$CBV?$Matrix@M$02$00$0A@$02$00@3@@3@$$CBV?$Matrix@M$02$00$0A@$02$00@3@@Eigen@@QEAA@AEBV01@@Z
	??0?$CwiseBinaryOp@U?$scalar_product_op@MM@internal@Eigen@@$$CBV?$CwiseNullaryOp@U?$scalar_constant_op@M@internal@Eigen@@$$CBV?$Matrix@M$02$00$0A@$02$00@3@@3@$$CBV?$Matrix@M$02$00$0A@$02$00@3@@Eigen@@QEAA@AEBV?$CwiseNullaryOp@U?$scalar_constant_op@M@internal@Eigen@@$$CBV?$Matrix@M$02$00$0A@$02$00@3@@1@AEBV?$Matrix@M$02$00$0A@$02$00@1@AEBU?$scalar_product_op@MM@internal@1@@Z
	??0?$CwiseBinaryOp@U?$scalar_product_op@MM@internal@Eigen@@$$CBV?$Matrix@M$02$00$0A@$02$00@3@$$CBV43@@Eigen@@QEAA@AEBV?$Matrix@M$02$00$0A@$02$00@1@0AEBU?$scalar_product_op@MM@internal@1@@Z
	??0?$CwiseBinaryOp@U?$scalar_product_op@MM@internal@Eigen@@$$CBV?$Matrix@M$02$00$0A@$02$00@3@$$CBV?$CwiseNullaryOp@U?$scalar_constant_op@M@internal@Eigen@@$$CBV?$Matrix@M$02$00$0A@$02$00@3@@3@@Eigen@@QEAA@AEBV?$Matrix@M$02$00$0A@$02$00@1@AEBV?$CwiseNullaryOp@U?$scalar_constant_op@M@internal@Eigen@@$$CBV?$Matrix@M$02$00$0A@$02$00@3@@1@AEBU?$scalar_product_op@MM@internal@1@@Z
	??0?$CwiseBinaryOp@U?$scalar_product_op@MM@internal@Eigen@@$$CBV?$Transpose@$$CBV?$Block@$$CBV?$Block@$$CBV?$Matrix@M$03$03$0A@$03$03@Eigen@@$02$02$0A@@Eigen@@$00$02$0A@@Eigen@@@3@$$CBV?$Block@$$CBV?$Block@$$CBV?$Matrix@M$03$03$0A@$03$03@Eigen@@$02$00$00@Eigen@@$02$00$00@3@@Eigen@@QEAA@AEBV?$Transpose@$$CBV?$Block@$$CBV?$Block@$$CBV?$Matrix@M$03$03$0A@$03$03@Eigen@@$02$02$0A@@Eigen@@$00$02$0A@@Eigen@@@1@AEBV?$Block@$$CBV?$Block@$$CBV?$Matrix@M$03$03$0A@$03$03@Eigen@@$02$00$00@Eigen@@$02$00$00@1@AEBU?$scalar_product_op@MM@internal@1@@Z
	??0?$CwiseBinaryOp@U?$scalar_product_op@MM@internal@Eigen@@$$CBV?$Transpose@$$CBV?$Block@$$CBV?$Block@$$CBV?$Matrix@M$03$03$0A@$03$03@Eigen@@$02$02$0A@@Eigen@@$00$02$0A@@Eigen@@@3@$$CBV?$Block@$$CBV?$Block@$$CBV?$Matrix@M$03$03$0A@$03$03@Eigen@@$02$02$0A@@Eigen@@$02$00$00@3@@Eigen@@QEAA@AEBV?$Transpose@$$CBV?$Block@$$CBV?$Block@$$CBV?$Matrix@M$03$03$0A@$03$03@Eigen@@$02$02$0A@@Eigen@@$00$02$0A@@Eigen@@@1@AEBV?$Block@$$CBV?$Block@$$CBV?$Matrix@M$03$03$0A@$03$03@Eigen@@$02$02$0A@@Eigen@@$02$00$00@1@AEBU?$scalar_product_op@MM@internal@1@@Z
	??0?$CwiseBinaryOp@U?$scalar_product_op@MM@internal@Eigen@@$$CBV?$Transpose@$$CBV?$Block@$$CBV?$Block@V?$Matrix@M$03$03$0A@$03$03@Eigen@@$02$02$0A@@Eigen@@$00$02$0A@@Eigen@@@3@$$CBV?$Block@$$CBV?$CwiseUnaryOp@U?$scalar_opposite_op@M@internal@Eigen@@$$CBV?$Matrix@M$02$00$0A@$02$00@3@@Eigen@@$02$00$00@3@@Eigen@@QEAA@AEBV?$Transpose@$$CBV?$Block@$$CBV?$Block@V?$Matrix@M$03$03$0A@$03$03@Eigen@@$02$02$0A@@Eigen@@$00$02$0A@@Eigen@@@1@AEBV?$Block@$$CBV?$CwiseUnaryOp@U?$scalar_opposite_op@M@internal@Eigen@@$$CBV?$Matrix@M$02$00$0A@$02$00@3@@Eigen@@$02$00$00@1@AEBU?$scalar_product_op@MM@internal@1@@Z
	??0?$CwiseBinaryOp@U?$scalar_product_op@MM@internal@Eigen@@$$CBV?$Transpose@$$CBV?$Block@$$CBV?$Block@V?$Matrix@M$03$03$0A@$03$03@Eigen@@$02$02$0A@@Eigen@@$00$02$0A@@Eigen@@@3@$$CBV?$Block@$$CBV?$Matrix@M$02$00$0A@$02$00@Eigen@@$02$00$00@3@@Eigen@@QEAA@AEBV?$Transpose@$$CBV?$Block@$$CBV?$Block@V?$Matrix@M$03$03$0A@$03$03@Eigen@@$02$02$0A@@Eigen@@$00$02$0A@@Eigen@@@1@AEBV?$Block@$$CBV?$Matrix@M$02$00$0A@$02$00@Eigen@@$02$00$00@1@AEBU?$scalar_product_op@MM@internal@1@@Z
	??0?$CwiseBinaryOp@U?$scalar_product_op@MM@internal@Eigen@@$$CBV?$Transpose@$$CBV?$Block@$$CBV?$Block@V?$Matrix@M$03$03$0A@$03$03@Eigen@@$02$02$0A@@Eigen@@$00$02$0A@@Eigen@@@3@$$CBV?$Block@$$CBV?$Matrix@M$02$02$0A@$02$02@Eigen@@$02$00$00@3@@Eigen@@QEAA@AEBV?$Transpose@$$CBV?$Block@$$CBV?$Block@V?$Matrix@M$03$03$0A@$03$03@Eigen@@$02$02$0A@@Eigen@@$00$02$0A@@Eigen@@@1@AEBV?$Block@$$CBV?$Matrix@M$02$02$0A@$02$02@Eigen@@$02$00$00@1@AEBU?$scalar_product_op@MM@internal@1@@Z
	??0?$CwiseBinaryOp@U?$scalar_quotient_op@MM@internal@Eigen@@$$CBV?$Matrix@M$02$00$0A@$02$00@3@$$CBV?$CwiseNullaryOp@U?$scalar_constant_op@M@internal@Eigen@@$$CBV?$Matrix@M$02$00$0A@$02$00@3@@3@@Eigen@@QEAA@AEBV?$Matrix@M$02$00$0A@$02$00@1@AEBV?$CwiseNullaryOp@U?$scalar_constant_op@M@internal@Eigen@@$$CBV?$Matrix@M$02$00$0A@$02$00@3@@1@AEBU?$scalar_quotient_op@MM@internal@1@@Z
	??0?$CwiseBinaryOp@U?$scalar_quotient_op@MM@internal@Eigen@@$$CBV?$Matrix@M$03$00$0A@$03$00@3@$$CBV?$CwiseNullaryOp@U?$scalar_constant_op@M@internal@Eigen@@$$CBV?$Matrix@M$03$00$0A@$03$00@3@@3@@Eigen@@QEAA@AEBV?$Matrix@M$03$00$0A@$03$00@1@AEBV?$CwiseNullaryOp@U?$scalar_constant_op@M@internal@Eigen@@$$CBV?$Matrix@M$03$00$0A@$03$00@3@@1@AEBU?$scalar_quotient_op@MM@internal@1@@Z
	??0?$CwiseBinaryOp@U?$scalar_sum_op@MM@internal@Eigen@@$$CBV?$ArrayWrapper@$$CBV?$CwiseBinaryOp@U?$scalar_product_op@MM@internal@Eigen@@$$CBV?$Matrix@M$02$00$0A@$02$00@3@$$CBV43@@Eigen@@@3@$$CBV?$CwiseNullaryOp@U?$scalar_constant_op@M@internal@Eigen@@$$CBV?$Array@M$02$00$0A@$02$00@3@@3@@Eigen@@QEAA@AEBV?$ArrayWrapper@$$CBV?$CwiseBinaryOp@U?$scalar_product_op@MM@internal@Eigen@@$$CBV?$Matrix@M$02$00$0A@$02$00@3@$$CBV43@@Eigen@@@1@AEBV?$CwiseNullaryOp@U?$scalar_constant_op@M@internal@Eigen@@$$CBV?$Array@M$02$00$0A@$02$00@3@@1@AEBU?$scalar_sum_op@MM@internal@1@@Z
	??0?$CwiseBinaryOp@U?$scalar_sum_op@MM@internal@Eigen@@$$CBV?$CwiseBinaryOp@U?$scalar_sum_op@MM@internal@Eigen@@$$CBV?$Matrix@M$02$00$0A@$02$00@3@$$CBV?$CwiseBinaryOp@U?$scalar_product_op@MM@internal@Eigen@@$$CBV?$CwiseNullaryOp@U?$scalar_constant_op@M@internal@Eigen@@$$CBV?$Matrix@M$02$00$0A@$02$00@3@@3@$$CBV?$Matrix@M$02$00$0A@$02$00@3@@3@@3@$$CBV?$Matrix@M$02$00$0A@$02$00@3@@Eigen@@QEAA@AEBV?$CwiseBinaryOp@U?$scalar_sum_op@MM@internal@Eigen@@$$CBV?$Matrix@M$02$00$0A@$02$00@3@$$CBV?$CwiseBinaryOp@U?$scalar_product_op@MM@internal@Eigen@@$$CBV?$CwiseNullaryOp@U?$scalar_constant_op@M@internal@Eigen@@$$CBV?$Matrix@M$02$00$0A@$02$00@3@@3@$$CBV?$Matrix@M$02$00$0A@$02$00@3@@3@@1@AEBV?$Matrix@M$02$00$0A@$02$00@1@AEBU?$scalar_sum_op@MM@internal@1@@Z
	??0?$CwiseBinaryOp@U?$scalar_sum_op@MM@internal@Eigen@@$$CBV?$Matrix@M$02$00$0A@$02$00@3@$$CBV43@@Eigen@@QEAA@AEBV?$Matrix@M$02$00$0A@$02$00@1@0AEBU?$scalar_sum_op@MM@internal@1@@Z
	??0?$CwiseBinaryOp@U?$scalar_sum_op@MM@internal@Eigen@@$$CBV?$Matrix@M$02$00$0A@$02$00@3@$$CBV?$CwiseBinaryOp@U?$scalar_product_op@MM@internal@Eigen@@$$CBV?$CwiseNullaryOp@U?$scalar_constant_op@M@internal@Eigen@@$$CBV?$Matrix@M$02$00$0A@$02$00@3@@3@$$CBV?$Matrix@M$02$00$0A@$02$00@3@@3@@Eigen@@QEAA@AEBV01@@Z
	??0?$CwiseBinaryOp@U?$scalar_sum_op@MM@internal@Eigen@@$$CBV?$Matrix@M$02$00$0A@$02$00@3@$$CBV?$CwiseBinaryOp@U?$scalar_product_op@MM@internal@Eigen@@$$CBV?$CwiseNullaryOp@U?$scalar_constant_op@M@internal@Eigen@@$$CBV?$Matrix@M$02$00$0A@$02$00@3@@3@$$CBV?$Matrix@M$02$00$0A@$02$00@3@@3@@Eigen@@QEAA@AEBV?$Matrix@M$02$00$0A@$02$00@1@AEBV?$CwiseBinaryOp@U?$scalar_product_op@MM@internal@Eigen@@$$CBV?$CwiseNullaryOp@U?$scalar_constant_op@M@internal@Eigen@@$$CBV?$Matrix@M$02$00$0A@$02$00@3@@3@$$CBV?$Matrix@M$02$00$0A@$02$00@3@@1@AEBU?$scalar_sum_op@MM@internal@1@@Z
	??0?$CwiseBinaryOp@U?$scalar_sum_op@MM@internal@Eigen@@$$CBV?$Product@V?$Block@$$CBV?$Matrix@M$03$03$0A@$03$03@Eigen@@$02$02$0A@@Eigen@@V?$Block@$$CBV?$Matrix@M$03$03$0A@$03$03@Eigen@@$02$00$00@2@$0A@@3@$$CBV?$Block@$$CBV?$Matrix@M$03$03$0A@$03$03@Eigen@@$02$00$00@3@@Eigen@@QEAA@AEBV?$Product@V?$Block@$$CBV?$Matrix@M$03$03$0A@$03$03@Eigen@@$02$02$0A@@Eigen@@V?$Block@$$CBV?$Matrix@M$03$03$0A@$03$03@Eigen@@$02$00$00@2@$0A@@1@AEBV?$Block@$$CBV?$Matrix@M$03$03$0A@$03$03@Eigen@@$02$00$00@1@AEBU?$scalar_sum_op@MM@internal@1@@Z
	??0?$CwiseBinaryOpImpl@U?$not_equal_to@M@std@@$$CBV?$Matrix@M$01$00$0A@$01$00@Eigen@@$$CBV?$Block@V?$Matrix@M$02$00$0A@$02$00@Eigen@@$0?0$00$0A@@4@UDense@4@@Eigen@@QEAA@XZ
	??0?$CwiseBinaryOpImpl@U?$not_equal_to@M@std@@$$CBV?$Matrix@M$03$03$0A@$03$03@Eigen@@$$CBV?$CwiseNullaryOp@U?$scalar_identity_op@M@internal@Eigen@@V?$Matrix@M$03$03$0A@$03$03@3@@4@UDense@4@@Eigen@@QEAA@XZ
	??0?$CwiseBinaryOpImpl@U?$scalar_conj_product_op@MM@internal@Eigen@@$$CBV?$Matrix@M$02$00$0A@$02$00@3@$$CBV43@UDense@3@@Eigen@@QEAA@XZ
	??0?$CwiseBinaryOpImpl@U?$scalar_difference_op@MM@internal@Eigen@@$$CBV?$Matrix@M$01$00$0A@$01$00@3@$$CBV43@UDense@3@@Eigen@@QEAA@XZ
	??0?$CwiseBinaryOpImpl@U?$scalar_difference_op@MM@internal@Eigen@@$$CBV?$Matrix@M$02$00$0A@$02$00@3@$$CBV43@UDense@3@@Eigen@@QEAA@XZ
	??0?$CwiseBinaryOpImpl@U?$scalar_product_op@MM@internal@Eigen@@$$CBV?$CwiseNullaryOp@U?$scalar_constant_op@M@internal@Eigen@@$$CBV?$Matrix@M$02$00$0A@$02$00@3@@3@$$CBV?$Matrix@M$02$00$0A@$02$00@3@UDense@3@@Eigen@@QEAA@XZ
	??0?$CwiseBinaryOpImpl@U?$scalar_product_op@MM@internal@Eigen@@$$CBV?$Matrix@M$02$00$0A@$02$00@3@$$CBV43@UDense@3@@Eigen@@QEAA@XZ
	??0?$CwiseBinaryOpImpl@U?$scalar_product_op@MM@internal@Eigen@@$$CBV?$Matrix@M$02$00$0A@$02$00@3@$$CBV?$CwiseNullaryOp@U?$scalar_constant_op@M@internal@Eigen@@$$CBV?$Matrix@M$02$00$0A@$02$00@3@@3@UDense@3@@Eigen@@QEAA@XZ
	??0?$CwiseBinaryOpImpl@U?$scalar_product_op@MM@internal@Eigen@@$$CBV?$Transpose@$$CBV?$Block@$$CBV?$Block@$$CBV?$Matrix@M$03$03$0A@$03$03@Eigen@@$02$02$0A@@Eigen@@$00$02$0A@@Eigen@@@3@$$CBV?$Block@$$CBV?$Block@$$CBV?$Matrix@M$03$03$0A@$03$03@Eigen@@$02$00$00@Eigen@@$02$00$00@3@UDense@3@@Eigen@@QEAA@XZ
	??0?$CwiseBinaryOpImpl@U?$scalar_product_op@MM@internal@Eigen@@$$CBV?$Transpose@$$CBV?$Block@$$CBV?$Block@$$CBV?$Matrix@M$03$03$0A@$03$03@Eigen@@$02$02$0A@@Eigen@@$00$02$0A@@Eigen@@@3@$$CBV?$Block@$$CBV?$Block@$$CBV?$Matrix@M$03$03$0A@$03$03@Eigen@@$02$02$0A@@Eigen@@$02$00$00@3@UDense@3@@Eigen@@QEAA@XZ
	??0?$CwiseBinaryOpImpl@U?$scalar_product_op@MM@internal@Eigen@@$$CBV?$Transpose@$$CBV?$Block@$$CBV?$Block@V?$Matrix@M$03$03$0A@$03$03@Eigen@@$02$02$0A@@Eigen@@$00$02$0A@@Eigen@@@3@$$CBV?$Block@$$CBV?$CwiseUnaryOp@U?$scalar_opposite_op@M@internal@Eigen@@$$CBV?$Matrix@M$02$00$0A@$02$00@3@@Eigen@@$02$00$00@3@UDense@3@@Eigen@@QEAA@XZ
	??0?$CwiseBinaryOpImpl@U?$scalar_product_op@MM@internal@Eigen@@$$CBV?$Transpose@$$CBV?$Block@$$CBV?$Block@V?$Matrix@M$03$03$0A@$03$03@Eigen@@$02$02$0A@@Eigen@@$00$02$0A@@Eigen@@@3@$$CBV?$Block@$$CBV?$Matrix@M$02$00$0A@$02$00@Eigen@@$02$00$00@3@UDense@3@@Eigen@@QEAA@XZ
	??0?$CwiseBinaryOpImpl@U?$scalar_product_op@MM@internal@Eigen@@$$CBV?$Transpose@$$CBV?$Block@$$CBV?$Block@V?$Matrix@M$03$03$0A@$03$03@Eigen@@$02$02$0A@@Eigen@@$00$02$0A@@Eigen@@@3@$$CBV?$Block@$$CBV?$Matrix@M$02$02$0A@$02$02@Eigen@@$02$00$00@3@UDense@3@@Eigen@@QEAA@XZ
	??0?$CwiseBinaryOpImpl@U?$scalar_quotient_op@MM@internal@Eigen@@$$CBV?$Matrix@M$02$00$0A@$02$00@3@$$CBV?$CwiseNullaryOp@U?$scalar_constant_op@M@internal@Eigen@@$$CBV?$Matrix@M$02$00$0A@$02$00@3@@3@UDense@3@@Eigen@@QEAA@XZ
	??0?$CwiseBinaryOpImpl@U?$scalar_quotient_op@MM@internal@Eigen@@$$CBV?$Matrix@M$03$00$0A@$03$00@3@$$CBV?$CwiseNullaryOp@U?$scalar_constant_op@M@internal@Eigen@@$$CBV?$Matrix@M$03$00$0A@$03$00@3@@3@UDense@3@@Eigen@@QEAA@XZ
	??0?$CwiseBinaryOpImpl@U?$scalar_sum_op@MM@internal@Eigen@@$$CBV?$ArrayWrapper@$$CBV?$CwiseBinaryOp@U?$scalar_product_op@MM@internal@Eigen@@$$CBV?$Matrix@M$02$00$0A@$02$00@3@$$CBV43@@Eigen@@@3@$$CBV?$CwiseNullaryOp@U?$scalar_constant_op@M@internal@Eigen@@$$CBV?$Array@M$02$00$0A@$02$00@3@@3@UDense@3@@Eigen@@QEAA@XZ
	??0?$CwiseBinaryOpImpl@U?$scalar_sum_op@MM@internal@Eigen@@$$CBV?$CwiseBinaryOp@U?$scalar_sum_op@MM@internal@Eigen@@$$CBV?$Matrix@M$02$00$0A@$02$00@3@$$CBV?$CwiseBinaryOp@U?$scalar_product_op@MM@internal@Eigen@@$$CBV?$CwiseNullaryOp@U?$scalar_constant_op@M@internal@Eigen@@$$CBV?$Matrix@M$02$00$0A@$02$00@3@@3@$$CBV?$Matrix@M$02$00$0A@$02$00@3@@3@@3@$$CBV?$Matrix@M$02$00$0A@$02$00@3@UDense@3@@Eigen@@QEAA@XZ
	??0?$CwiseBinaryOpImpl@U?$scalar_sum_op@MM@internal@Eigen@@$$CBV?$Matrix@M$02$00$0A@$02$00@3@$$CBV43@UDense@3@@Eigen@@QEAA@XZ
	??0?$CwiseBinaryOpImpl@U?$scalar_sum_op@MM@internal@Eigen@@$$CBV?$Matrix@M$02$00$0A@$02$00@3@$$CBV?$CwiseBinaryOp@U?$scalar_product_op@MM@internal@Eigen@@$$CBV?$CwiseNullaryOp@U?$scalar_constant_op@M@internal@Eigen@@$$CBV?$Matrix@M$02$00$0A@$02$00@3@@3@$$CBV?$Matrix@M$02$00$0A@$02$00@3@@3@UDense@3@@Eigen@@QEAA@XZ
	??0?$CwiseBinaryOpImpl@U?$scalar_sum_op@MM@internal@Eigen@@$$CBV?$Product@V?$Block@$$CBV?$Matrix@M$03$03$0A@$03$03@Eigen@@$02$02$0A@@Eigen@@V?$Block@$$CBV?$Matrix@M$03$03$0A@$03$03@Eigen@@$02$00$00@2@$0A@@3@$$CBV?$Block@$$CBV?$Matrix@M$03$03$0A@$03$03@Eigen@@$02$00$00@3@UDense@3@@Eigen@@QEAA@XZ
	??0?$CwiseNullaryOp@U?$scalar_constant_op@H@internal@Eigen@@V?$Matrix@H$01$00$0A@$01$00@3@@Eigen@@QEAA@_J0AEBU?$scalar_constant_op@H@internal@1@@Z
	??0?$CwiseNullaryOp@U?$scalar_constant_op@M@internal@Eigen@@$$CBV?$Array@M$02$00$0A@$02$00@3@@Eigen@@QEAA@AEBV01@@Z
	??0?$CwiseNullaryOp@U?$scalar_constant_op@M@internal@Eigen@@$$CBV?$Array@M$02$00$0A@$02$00@3@@Eigen@@QEAA@_J0AEBU?$scalar_constant_op@M@internal@1@@Z
	??0?$CwiseNullaryOp@U?$scalar_constant_op@M@internal@Eigen@@$$CBV?$Matrix@M$02$00$0A@$02$00@3@@Eigen@@QEAA@AEBV01@@Z
	??0?$CwiseNullaryOp@U?$scalar_constant_op@M@internal@Eigen@@$$CBV?$Matrix@M$02$00$0A@$02$00@3@@Eigen@@QEAA@_J0AEBU?$scalar_constant_op@M@internal@1@@Z
	??0?$CwiseNullaryOp@U?$scalar_constant_op@M@internal@Eigen@@$$CBV?$Matrix@M$03$00$0A@$03$00@3@@Eigen@@QEAA@AEBV01@@Z
	??0?$CwiseNullaryOp@U?$scalar_constant_op@M@internal@Eigen@@$$CBV?$Matrix@M$03$00$0A@$03$00@3@@Eigen@@QEAA@_J0AEBU?$scalar_constant_op@M@internal@1@@Z
	??0?$CwiseNullaryOp@U?$scalar_constant_op@M@internal@Eigen@@V?$Matrix@M$00$02$00$00$02@3@@Eigen@@QEAA@_J0AEBU?$scalar_constant_op@M@internal@1@@Z
	??0?$CwiseNullaryOp@U?$scalar_constant_op@M@internal@Eigen@@V?$Matrix@M$02$00$0A@$02$00@3@@Eigen@@QEAA@_J0AEBU?$scalar_constant_op@M@internal@1@@Z
	??0?$CwiseNullaryOp@U?$scalar_constant_op@M@internal@Eigen@@V?$Matrix@M$02$02$0A@$02$02@3@@Eigen@@QEAA@_J0AEBU?$scalar_constant_op@M@internal@1@@Z
	??0?$CwiseNullaryOp@U?$scalar_constant_op@M@internal@Eigen@@V?$Matrix@M$03$00$0A@$03$00@3@@Eigen@@QEAA@_J0AEBU?$scalar_constant_op@M@internal@1@@Z
	??0?$CwiseNullaryOp@U?$scalar_constant_op@M@internal@Eigen@@V?$Matrix@M$03$03$0A@$03$03@3@@Eigen@@QEAA@_J0AEBU?$scalar_constant_op@M@internal@1@@Z
	??0?$CwiseNullaryOp@U?$scalar_identity_op@M@internal@Eigen@@V?$Matrix@M$02$02$0A@$02$02@3@@Eigen@@QEAA@_J0AEBU?$scalar_identity_op@M@internal@1@@Z
	??0?$CwiseNullaryOp@U?$scalar_identity_op@M@internal@Eigen@@V?$Matrix@M$03$03$0A@$03$03@3@@Eigen@@QEAA@_J0AEBU?$scalar_identity_op@M@internal@1@@Z
	??0?$CwiseUnaryOp@U?$scalar_abs2_op@M@internal@Eigen@@$$CBV?$CwiseBinaryOp@U?$scalar_difference_op@MM@internal@Eigen@@$$CBV?$Matrix@M$02$00$0A@$02$00@3@$$CBV43@@3@@Eigen@@QEAA@AEBV?$CwiseBinaryOp@U?$scalar_difference_op@MM@internal@Eigen@@$$CBV?$Matrix@M$02$00$0A@$02$00@3@$$CBV43@@1@AEBU?$scalar_abs2_op@M@internal@1@@Z
	??0?$CwiseUnaryOp@U?$scalar_abs2_op@M@internal@Eigen@@$$CBV?$Matrix@M$02$00$0A@$02$00@3@@Eigen@@QEAA@AEBV?$Matrix@M$02$00$0A@$02$00@1@AEBU?$scalar_abs2_op@M@internal@1@@Z
	??0?$CwiseUnaryOp@U?$scalar_abs2_op@M@internal@Eigen@@$$CBV?$Matrix@M$03$00$0A@$03$00@3@@Eigen@@QEAA@AEBV?$Matrix@M$03$00$0A@$03$00@1@AEBU?$scalar_abs2_op@M@internal@1@@Z
	??0?$CwiseUnaryOp@U?$scalar_opposite_op@M@internal@Eigen@@$$CBV?$Matrix@M$02$00$0A@$02$00@3@@Eigen@@QEAA@AEBV?$Matrix@M$02$00$0A@$02$00@1@AEBU?$scalar_opposite_op@M@internal@1@@Z
	??0?$CwiseUnaryOpImpl@U?$scalar_abs2_op@M@internal@Eigen@@$$CBV?$CwiseBinaryOp@U?$scalar_difference_op@MM@internal@Eigen@@$$CBV?$Matrix@M$02$00$0A@$02$00@3@$$CBV43@@3@UDense@3@@Eigen@@QEAA@XZ
	??0?$CwiseUnaryOpImpl@U?$scalar_abs2_op@M@internal@Eigen@@$$CBV?$Matrix@M$02$00$0A@$02$00@3@UDense@3@@Eigen@@QEAA@XZ
	??0?$CwiseUnaryOpImpl@U?$scalar_abs2_op@M@internal@Eigen@@$$CBV?$Matrix@M$03$00$0A@$03$00@3@UDense@3@@Eigen@@QEAA@XZ
	??0?$CwiseUnaryOpImpl@U?$scalar_opposite_op@M@internal@Eigen@@$$CBV?$Matrix@M$02$00$0A@$02$00@3@UDense@3@@Eigen@@QEAA@XZ
	??0?$DenseBase@V?$ArrayWrapper@$$CBV?$CwiseBinaryOp@U?$scalar_product_op@MM@internal@Eigen@@$$CBV?$Matrix@M$02$00$0A@$02$00@3@$$CBV43@@Eigen@@@Eigen@@@Eigen@@IEAA@XZ
	??0?$DenseBase@V?$Block@$$CBV?$Block@$$CBV?$Matrix@M$03$03$0A@$03$03@Eigen@@$02$00$00@Eigen@@$02$00$00@Eigen@@@Eigen@@IEAA@XZ
	??0?$DenseBase@V?$Block@$$CBV?$Block@$$CBV?$Matrix@M$03$03$0A@$03$03@Eigen@@$02$02$0A@@Eigen@@$00$02$0A@@Eigen@@@Eigen@@IEAA@XZ
	??0?$DenseBase@V?$Block@$$CBV?$Block@$$CBV?$Matrix@M$03$03$0A@$03$03@Eigen@@$02$02$0A@@Eigen@@$02$00$00@Eigen@@@Eigen@@IEAA@XZ
	??0?$DenseBase@V?$Block@$$CBV?$Block@V?$Matrix@M$03$03$0A@$03$03@Eigen@@$02$02$0A@@Eigen@@$00$02$0A@@Eigen@@@Eigen@@IEAA@XZ
	??0?$DenseBase@V?$Block@$$CBV?$CwiseNullaryOp@U?$scalar_identity_op@M@internal@Eigen@@V?$Matrix@M$02$02$0A@$02$02@3@@Eigen@@$02$00$0A@@Eigen@@@Eigen@@IEAA@XZ
	??0?$DenseBase@V?$Block@$$CBV?$CwiseUnaryOp@U?$scalar_opposite_op@M@internal@Eigen@@$$CBV?$Matrix@M$02$00$0A@$02$00@3@@Eigen@@$02$00$00@Eigen@@@Eigen@@IEAA@XZ
	??0?$DenseBase@V?$Block@$$CBV?$Matrix@M$02$00$0A@$02$00@Eigen@@$02$00$00@Eigen@@@Eigen@@IEAA@XZ
	??0?$DenseBase@V?$Block@$$CBV?$Matrix@M$02$02$0A@$02$02@Eigen@@$02$00$00@Eigen@@@Eigen@@IEAA@XZ
	??0?$DenseBase@V?$Block@$$CBV?$Matrix@M$03$00$0A@$03$00@Eigen@@$02$00$0A@@Eigen@@@Eigen@@IEAA@XZ
	??0?$DenseBase@V?$Block@$$CBV?$Matrix@M$03$03$0A@$03$03@Eigen@@$02$00$00@Eigen@@@Eigen@@IEAA@XZ
	??0?$DenseBase@V?$Block@$$CBV?$Matrix@M$03$03$0A@$03$03@Eigen@@$02$02$0A@@Eigen@@@Eigen@@IEAA@XZ
	??0?$DenseBase@V?$Block@V?$Matrix@M$02$00$0A@$02$00@Eigen@@$0?0$00$0A@@Eigen@@@Eigen@@IEAA@XZ
	??0?$DenseBase@V?$Block@V?$Matrix@M$03$00$0A@$03$00@Eigen@@$02$00$0A@@Eigen@@@Eigen@@IEAA@XZ
	??0?$DenseBase@V?$Block@V?$Matrix@M$03$03$0A@$03$03@Eigen@@$00$02$0A@@Eigen@@@Eigen@@IEAA@XZ
	??0?$DenseBase@V?$Block@V?$Matrix@M$03$03$0A@$03$03@Eigen@@$02$00$00@Eigen@@@Eigen@@IEAA@XZ
	??0?$DenseBase@V?$Block@V?$Matrix@M$03$03$0A@$03$03@Eigen@@$02$00$0A@@Eigen@@@Eigen@@IEAA@XZ
	??0?$DenseBase@V?$Block@V?$Matrix@M$03$03$0A@$03$03@Eigen@@$02$02$0A@@Eigen@@@Eigen@@IEAA@XZ
	??0?$DenseBase@V?$CwiseBinaryOp@U?$not_equal_to@M@std@@$$CBV?$Matrix@M$01$00$0A@$01$00@Eigen@@$$CBV?$Block@V?$Matrix@M$02$00$0A@$02$00@Eigen@@$0?0$00$0A@@4@@Eigen@@@Eigen@@IEAA@XZ
	??0?$DenseBase@V?$CwiseBinaryOp@U?$not_equal_to@M@std@@$$CBV?$Matrix@M$03$03$0A@$03$03@Eigen@@$$CBV?$CwiseNullaryOp@U?$scalar_identity_op@M@internal@Eigen@@V?$Matrix@M$03$03$0A@$03$03@3@@4@@Eigen@@@Eigen@@IEAA@XZ
	??0?$DenseBase@V?$CwiseBinaryOp@U?$scalar_conj_product_op@MM@internal@Eigen@@$$CBV?$Matrix@M$02$00$0A@$02$00@3@$$CBV43@@Eigen@@@Eigen@@IEAA@XZ
	??0?$DenseBase@V?$CwiseBinaryOp@U?$scalar_difference_op@MM@internal@Eigen@@$$CBV?$Matrix@M$01$00$0A@$01$00@3@$$CBV43@@Eigen@@@Eigen@@IEAA@XZ
	??0?$DenseBase@V?$CwiseBinaryOp@U?$scalar_difference_op@MM@internal@Eigen@@$$CBV?$Matrix@M$02$00$0A@$02$00@3@$$CBV43@@Eigen@@@Eigen@@IEAA@XZ
	??0?$DenseBase@V?$CwiseBinaryOp@U?$scalar_product_op@MM@internal@Eigen@@$$CBV?$CwiseNullaryOp@U?$scalar_constant_op@M@internal@Eigen@@$$CBV?$Matrix@M$02$00$0A@$02$00@3@@3@$$CBV?$Matrix@M$02$00$0A@$02$00@3@@Eigen@@@Eigen@@IEAA@XZ
	??0?$DenseBase@V?$CwiseBinaryOp@U?$scalar_product_op@MM@internal@Eigen@@$$CBV?$Matrix@M$02$00$0A@$02$00@3@$$CBV43@@Eigen@@@Eigen@@IEAA@XZ
	??0?$DenseBase@V?$CwiseBinaryOp@U?$scalar_product_op@MM@internal@Eigen@@$$CBV?$Matrix@M$02$00$0A@$02$00@3@$$CBV?$CwiseNullaryOp@U?$scalar_constant_op@M@internal@Eigen@@$$CBV?$Matrix@M$02$00$0A@$02$00@3@@3@@Eigen@@@Eigen@@IEAA@XZ
	??0?$DenseBase@V?$CwiseBinaryOp@U?$scalar_product_op@MM@internal@Eigen@@$$CBV?$Transpose@$$CBV?$Block@$$CBV?$Block@$$CBV?$Matrix@M$03$03$0A@$03$03@Eigen@@$02$02$0A@@Eigen@@$00$02$0A@@Eigen@@@3@$$CBV?$Block@$$CBV?$Block@$$CBV?$Matrix@M$03$03$0A@$03$03@Eigen@@$02$00$00@Eigen@@$02$00$00@3@@Eigen@@@Eigen@@IEAA@XZ
	??0?$DenseBase@V?$CwiseBinaryOp@U?$scalar_product_op@MM@internal@Eigen@@$$CBV?$Transpose@$$CBV?$Block@$$CBV?$Block@$$CBV?$Matrix@M$03$03$0A@$03$03@Eigen@@$02$02$0A@@Eigen@@$00$02$0A@@Eigen@@@3@$$CBV?$Block@$$CBV?$Block@$$CBV?$Matrix@M$03$03$0A@$03$03@Eigen@@$02$02$0A@@Eigen@@$02$00$00@3@@Eigen@@@Eigen@@IEAA@XZ
	??0?$DenseBase@V?$CwiseBinaryOp@U?$scalar_product_op@MM@internal@Eigen@@$$CBV?$Transpose@$$CBV?$Block@$$CBV?$Block@V?$Matrix@M$03$03$0A@$03$03@Eigen@@$02$02$0A@@Eigen@@$00$02$0A@@Eigen@@@3@$$CBV?$Block@$$CBV?$CwiseUnaryOp@U?$scalar_opposite_op@M@internal@Eigen@@$$CBV?$Matrix@M$02$00$0A@$02$00@3@@Eigen@@$02$00$00@3@@Eigen@@@Eigen@@IEAA@XZ
	??0?$DenseBase@V?$CwiseBinaryOp@U?$scalar_product_op@MM@internal@Eigen@@$$CBV?$Transpose@$$CBV?$Block@$$CBV?$Block@V?$Matrix@M$03$03$0A@$03$03@Eigen@@$02$02$0A@@Eigen@@$00$02$0A@@Eigen@@@3@$$CBV?$Block@$$CBV?$Matrix@M$02$00$0A@$02$00@Eigen@@$02$00$00@3@@Eigen@@@Eigen@@IEAA@XZ
	??0?$DenseBase@V?$CwiseBinaryOp@U?$scalar_product_op@MM@internal@Eigen@@$$CBV?$Transpose@$$CBV?$Block@$$CBV?$Block@V?$Matrix@M$03$03$0A@$03$03@Eigen@@$02$02$0A@@Eigen@@$00$02$0A@@Eigen@@@3@$$CBV?$Block@$$CBV?$Matrix@M$02$02$0A@$02$02@Eigen@@$02$00$00@3@@Eigen@@@Eigen@@IEAA@XZ
	??0?$DenseBase@V?$CwiseBinaryOp@U?$scalar_quotient_op@MM@internal@Eigen@@$$CBV?$Matrix@M$02$00$0A@$02$00@3@$$CBV?$CwiseNullaryOp@U?$scalar_constant_op@M@internal@Eigen@@$$CBV?$Matrix@M$02$00$0A@$02$00@3@@3@@Eigen@@@Eigen@@IEAA@XZ
	??0?$DenseBase@V?$CwiseBinaryOp@U?$scalar_quotient_op@MM@internal@Eigen@@$$CBV?$Matrix@M$03$00$0A@$03$00@3@$$CBV?$CwiseNullaryOp@U?$scalar_constant_op@M@internal@Eigen@@$$CBV?$Matrix@M$03$00$0A@$03$00@3@@3@@Eigen@@@Eigen@@IEAA@XZ
	??0?$DenseBase@V?$CwiseBinaryOp@U?$scalar_sum_op@MM@internal@Eigen@@$$CBV?$ArrayWrapper@$$CBV?$CwiseBinaryOp@U?$scalar_product_op@MM@internal@Eigen@@$$CBV?$Matrix@M$02$00$0A@$02$00@3@$$CBV43@@Eigen@@@3@$$CBV?$CwiseNullaryOp@U?$scalar_constant_op@M@internal@Eigen@@$$CBV?$Array@M$02$00$0A@$02$00@3@@3@@Eigen@@@Eigen@@IEAA@XZ
	??0?$DenseBase@V?$CwiseBinaryOp@U?$scalar_sum_op@MM@internal@Eigen@@$$CBV?$CwiseBinaryOp@U?$scalar_sum_op@MM@internal@Eigen@@$$CBV?$Matrix@M$02$00$0A@$02$00@3@$$CBV?$CwiseBinaryOp@U?$scalar_product_op@MM@internal@Eigen@@$$CBV?$CwiseNullaryOp@U?$scalar_constant_op@M@internal@Eigen@@$$CBV?$Matrix@M$02$00$0A@$02$00@3@@3@$$CBV?$Matrix@M$02$00$0A@$02$00@3@@3@@3@$$CBV?$Matrix@M$02$00$0A@$02$00@3@@Eigen@@@Eigen@@IEAA@XZ
	??0?$DenseBase@V?$CwiseBinaryOp@U?$scalar_sum_op@MM@internal@Eigen@@$$CBV?$Matrix@M$02$00$0A@$02$00@3@$$CBV43@@Eigen@@@Eigen@@IEAA@XZ
	??0?$DenseBase@V?$CwiseBinaryOp@U?$scalar_sum_op@MM@internal@Eigen@@$$CBV?$Matrix@M$02$00$0A@$02$00@3@$$CBV?$CwiseBinaryOp@U?$scalar_product_op@MM@internal@Eigen@@$$CBV?$CwiseNullaryOp@U?$scalar_constant_op@M@internal@Eigen@@$$CBV?$Matrix@M$02$00$0A@$02$00@3@@3@$$CBV?$Matrix@M$02$00$0A@$02$00@3@@3@@Eigen@@@Eigen@@IEAA@XZ
	??0?$DenseBase@V?$CwiseBinaryOp@U?$scalar_sum_op@MM@internal@Eigen@@$$CBV?$Product@V?$Block@$$CBV?$Matrix@M$03$03$0A@$03$03@Eigen@@$02$02$0A@@Eigen@@V?$Block@$$CBV?$Matrix@M$03$03$0A@$03$03@Eigen@@$02$00$00@2@$0A@@3@$$CBV?$Block@$$CBV?$Matrix@M$03$03$0A@$03$03@Eigen@@$02$00$00@3@@Eigen@@@Eigen@@IEAA@XZ
	??0?$DenseBase@V?$CwiseNullaryOp@U?$scalar_constant_op@H@internal@Eigen@@V?$Matrix@H$01$00$0A@$01$00@3@@Eigen@@@Eigen@@IEAA@XZ
	??0?$DenseBase@V?$CwiseNullaryOp@U?$scalar_constant_op@M@internal@Eigen@@$$CBV?$Array@M$02$00$0A@$02$00@3@@Eigen@@@Eigen@@IEAA@XZ
	??0?$DenseBase@V?$CwiseNullaryOp@U?$scalar_constant_op@M@internal@Eigen@@$$CBV?$Matrix@M$02$00$0A@$02$00@3@@Eigen@@@Eigen@@IEAA@XZ
	??0?$DenseBase@V?$CwiseNullaryOp@U?$scalar_constant_op@M@internal@Eigen@@$$CBV?$Matrix@M$03$00$0A@$03$00@3@@Eigen@@@Eigen@@IEAA@XZ
	??0?$DenseBase@V?$CwiseNullaryOp@U?$scalar_constant_op@M@internal@Eigen@@V?$Matrix@M$00$02$00$00$02@3@@Eigen@@@Eigen@@IEAA@XZ
	??0?$DenseBase@V?$CwiseNullaryOp@U?$scalar_constant_op@M@internal@Eigen@@V?$Matrix@M$02$00$0A@$02$00@3@@Eigen@@@Eigen@@IEAA@XZ
	??0?$DenseBase@V?$CwiseNullaryOp@U?$scalar_constant_op@M@internal@Eigen@@V?$Matrix@M$02$02$0A@$02$02@3@@Eigen@@@Eigen@@IEAA@XZ
	??0?$DenseBase@V?$CwiseNullaryOp@U?$scalar_constant_op@M@internal@Eigen@@V?$Matrix@M$03$00$0A@$03$00@3@@Eigen@@@Eigen@@IEAA@XZ
	??0?$DenseBase@V?$CwiseNullaryOp@U?$scalar_constant_op@M@internal@Eigen@@V?$Matrix@M$03$03$0A@$03$03@3@@Eigen@@@Eigen@@IEAA@XZ
	??0?$DenseBase@V?$CwiseNullaryOp@U?$scalar_identity_op@M@internal@Eigen@@V?$Matrix@M$02$02$0A@$02$02@3@@Eigen@@@Eigen@@IEAA@XZ
	??0?$DenseBase@V?$CwiseNullaryOp@U?$scalar_identity_op@M@internal@Eigen@@V?$Matrix@M$03$03$0A@$03$03@3@@Eigen@@@Eigen@@IEAA@XZ
	??0?$DenseBase@V?$CwiseUnaryOp@U?$scalar_abs2_op@M@internal@Eigen@@$$CBV?$CwiseBinaryOp@U?$scalar_difference_op@MM@internal@Eigen@@$$CBV?$Matrix@M$02$00$0A@$02$00@3@$$CBV43@@3@@Eigen@@@Eigen@@IEAA@XZ
	??0?$DenseBase@V?$CwiseUnaryOp@U?$scalar_abs2_op@M@internal@Eigen@@$$CBV?$Matrix@M$02$00$0A@$02$00@3@@Eigen@@@Eigen@@IEAA@XZ
	??0?$DenseBase@V?$CwiseUnaryOp@U?$scalar_abs2_op@M@internal@Eigen@@$$CBV?$Matrix@M$03$00$0A@$03$00@3@@Eigen@@@Eigen@@IEAA@XZ
	??0?$DenseBase@V?$CwiseUnaryOp@U?$scalar_opposite_op@M@internal@Eigen@@$$CBV?$Matrix@M$02$00$0A@$02$00@3@@Eigen@@@Eigen@@IEAA@XZ
	??0?$DenseBase@V?$Diagonal@V?$Matrix@M$02$02$0A@$02$02@Eigen@@$0A@@Eigen@@@Eigen@@IEAA@XZ
	??0?$DenseBase@V?$Matrix@H$01$00$0A@$01$00@Eigen@@@Eigen@@IEAA@XZ
	??0?$DenseBase@V?$Matrix@M$01$00$0A@$01$00@Eigen@@@Eigen@@IEAA@XZ
	??0?$DenseBase@V?$Matrix@M$02$00$0A@$02$00@Eigen@@@Eigen@@IEAA@XZ
	??0?$DenseBase@V?$Matrix@M$02$02$0A@$02$02@Eigen@@@Eigen@@IEAA@XZ
	??0?$DenseBase@V?$Matrix@M$03$00$0A@$03$00@Eigen@@@Eigen@@IEAA@XZ
	??0?$DenseBase@V?$Matrix@M$03$03$0A@$03$03@Eigen@@@Eigen@@IEAA@XZ
	??0?$DenseBase@V?$Product@V?$Block@$$CBV?$Matrix@M$03$03$0A@$03$03@Eigen@@$02$02$0A@@Eigen@@V12@$00@Eigen@@@Eigen@@IEAA@XZ
	??0?$DenseBase@V?$Product@V?$Block@$$CBV?$Matrix@M$03$03$0A@$03$03@Eigen@@$02$02$0A@@Eigen@@V12@$0A@@Eigen@@@Eigen@@IEAA@XZ
	??0?$DenseBase@V?$Product@V?$Block@$$CBV?$Matrix@M$03$03$0A@$03$03@Eigen@@$02$02$0A@@Eigen@@V?$Block@$$CBV?$Matrix@M$03$03$0A@$03$03@Eigen@@$02$00$00@2@$00@Eigen@@@Eigen@@IEAA@XZ
	??0?$DenseBase@V?$Product@V?$Block@$$CBV?$Matrix@M$03$03$0A@$03$03@Eigen@@$02$02$0A@@Eigen@@V?$Block@$$CBV?$Matrix@M$03$03$0A@$03$03@Eigen@@$02$00$00@2@$0A@@Eigen@@@Eigen@@IEAA@XZ
	??0?$DenseBase@V?$Product@V?$Block@V?$Matrix@M$03$03$0A@$03$03@Eigen@@$02$02$0A@@Eigen@@V?$CwiseUnaryOp@U?$scalar_opposite_op@M@internal@Eigen@@$$CBV?$Matrix@M$02$00$0A@$02$00@3@@2@$00@Eigen@@@Eigen@@IEAA@XZ
	??0?$DenseBase@V?$Product@V?$Block@V?$Matrix@M$03$03$0A@$03$03@Eigen@@$02$02$0A@@Eigen@@V?$CwiseUnaryOp@U?$scalar_opposite_op@M@internal@Eigen@@$$CBV?$Matrix@M$02$00$0A@$02$00@3@@2@$0A@@Eigen@@@Eigen@@IEAA@XZ
	??0?$DenseBase@V?$Product@V?$Block@V?$Matrix@M$03$03$0A@$03$03@Eigen@@$02$02$0A@@Eigen@@V?$DiagonalWrapper@$$CBV?$Matrix@M$02$00$0A@$02$00@Eigen@@@2@$00@Eigen@@@Eigen@@IEAA@XZ
	??0?$DenseBase@V?$Product@V?$Block@V?$Matrix@M$03$03$0A@$03$03@Eigen@@$02$02$0A@@Eigen@@V?$Matrix@M$02$00$0A@$02$00@2@$00@Eigen@@@Eigen@@IEAA@XZ
	??0?$DenseBase@V?$Product@V?$Block@V?$Matrix@M$03$03$0A@$03$03@Eigen@@$02$02$0A@@Eigen@@V?$Matrix@M$02$00$0A@$02$00@2@$0A@@Eigen@@@Eigen@@IEAA@XZ
	??0?$DenseBase@V?$Product@V?$Block@V?$Matrix@M$03$03$0A@$03$03@Eigen@@$02$02$0A@@Eigen@@V?$Matrix@M$02$02$0A@$02$02@2@$00@Eigen@@@Eigen@@IEAA@XZ
	??0?$DenseBase@V?$Product@V?$Block@V?$Matrix@M$03$03$0A@$03$03@Eigen@@$02$02$0A@@Eigen@@V?$Matrix@M$02$02$0A@$02$02@2@$0A@@Eigen@@@Eigen@@IEAA@XZ
	??0?$DenseBase@V?$Transpose@$$CBV?$Block@$$CBV?$Block@$$CBV?$Matrix@M$03$03$0A@$03$03@Eigen@@$02$02$0A@@Eigen@@$00$02$0A@@Eigen@@@Eigen@@@Eigen@@IEAA@XZ
	??0?$DenseBase@V?$Transpose@$$CBV?$Block@$$CBV?$Block@V?$Matrix@M$03$03$0A@$03$03@Eigen@@$02$02$0A@@Eigen@@$00$02$0A@@Eigen@@@Eigen@@@Eigen@@IEAA@XZ
	??0?$DenseStorage@H$01$01$00$0A@@Eigen@@QEAA@XZ
	??0?$DenseStorage@M$01$01$00$0A@@Eigen@@QEAA@AEBV01@@Z
	??0?$DenseStorage@M$01$01$00$0A@@Eigen@@QEAA@XZ
	??0?$DenseStorage@M$02$02$00$0A@@Eigen@@QEAA@AEBV01@@Z
	??0?$DenseStorage@M$02$02$00$0A@@Eigen@@QEAA@XZ
	??0?$DenseStorage@M$03$03$00$0A@@Eigen@@QEAA@AEBV01@@Z
	??0?$DenseStorage@M$03$03$00$0A@@Eigen@@QEAA@XZ
	??0?$DenseStorage@M$08$02$02$0A@@Eigen@@QEAA@AEBV01@@Z
	??0?$DenseStorage@M$08$02$02$0A@@Eigen@@QEAA@XZ
	??0?$DenseStorage@M$0BA@$03$03$0A@@Eigen@@QEAA@AEBV01@@Z
	??0?$DenseStorage@M$0BA@$03$03$0A@@Eigen@@QEAA@XZ
	??0?$Diagonal@V?$Matrix@M$02$02$0A@$02$02@Eigen@@$0A@@Eigen@@QEAA@AEAV?$Matrix@M$02$02$0A@$02$02@1@_J@Z
	??0?$DiagonalWrapper@$$CBV?$Matrix@M$02$00$0A@$02$00@Eigen@@@Eigen@@QEAA@AEBV?$Matrix@M$02$00$0A@$02$00@1@@Z
	??0?$FixedInt@$00@internal@Eigen@@QEAA@XZ
	??0?$MapBase@V?$Block@$$CBV?$Block@$$CBV?$Matrix@M$03$03$0A@$03$03@Eigen@@$02$00$00@Eigen@@$02$00$00@Eigen@@$0A@@Eigen@@QEAA@PEBM_J1@Z
	??0?$MapBase@V?$Block@$$CBV?$Block@$$CBV?$Matrix@M$03$03$0A@$03$03@Eigen@@$02$02$0A@@Eigen@@$00$02$0A@@Eigen@@$0A@@Eigen@@QEAA@PEBM_J1@Z
	??0?$MapBase@V?$Block@$$CBV?$Block@$$CBV?$Matrix@M$03$03$0A@$03$03@Eigen@@$02$02$0A@@Eigen@@$02$00$00@Eigen@@$0A@@Eigen@@QEAA@PEBM_J1@Z
	??0?$MapBase@V?$Block@$$CBV?$Block@V?$Matrix@M$03$03$0A@$03$03@Eigen@@$02$02$0A@@Eigen@@$00$02$0A@@Eigen@@$0A@@Eigen@@QEAA@PEBM_J1@Z
	??0?$MapBase@V?$Block@$$CBV?$Matrix@M$02$00$0A@$02$00@Eigen@@$02$00$00@Eigen@@$0A@@Eigen@@QEAA@PEBM_J1@Z
	??0?$MapBase@V?$Block@$$CBV?$Matrix@M$02$02$0A@$02$02@Eigen@@$02$00$00@Eigen@@$0A@@Eigen@@QEAA@PEBM_J1@Z
	??0?$MapBase@V?$Block@$$CBV?$Matrix@M$03$00$0A@$03$00@Eigen@@$02$00$0A@@Eigen@@$0A@@Eigen@@QEAA@PEBM_J1@Z
	??0?$MapBase@V?$Block@$$CBV?$Matrix@M$03$03$0A@$03$03@Eigen@@$02$00$00@Eigen@@$0A@@Eigen@@QEAA@PEBM@Z
	??0?$MapBase@V?$Block@$$CBV?$Matrix@M$03$03$0A@$03$03@Eigen@@$02$02$0A@@Eigen@@$0A@@Eigen@@QEAA@PEBM@Z
	??0?$MapBase@V?$Block@V?$Matrix@M$02$00$0A@$02$00@Eigen@@$0?0$00$0A@@Eigen@@$00@Eigen@@QEAA@PEAM_J1@Z
	??0?$MapBase@V?$Block@V?$Matrix@M$02$00$0A@$02$00@Eigen@@$0?0$00$0A@@Eigen@@$0A@@Eigen@@QEAA@PEAM_J1@Z
	??0?$MapBase@V?$Block@V?$Matrix@M$03$00$0A@$03$00@Eigen@@$02$00$0A@@Eigen@@$00@Eigen@@QEAA@PEAM_J1@Z
	??0?$MapBase@V?$Block@V?$Matrix@M$03$00$0A@$03$00@Eigen@@$02$00$0A@@Eigen@@$0A@@Eigen@@QEAA@PEAM_J1@Z
	??0?$MapBase@V?$Block@V?$Matrix@M$03$03$0A@$03$03@Eigen@@$00$02$0A@@Eigen@@$00@Eigen@@QEAA@PEAM@Z
	??0?$MapBase@V?$Block@V?$Matrix@M$03$03$0A@$03$03@Eigen@@$00$02$0A@@Eigen@@$0A@@Eigen@@QEAA@PEAM@Z
	??0?$MapBase@V?$Block@V?$Matrix@M$03$03$0A@$03$03@Eigen@@$02$00$00@Eigen@@$00@Eigen@@QEAA@PEAM@Z
	??0?$MapBase@V?$Block@V?$Matrix@M$03$03$0A@$03$03@Eigen@@$02$00$00@Eigen@@$0A@@Eigen@@QEAA@PEAM@Z
	??0?$MapBase@V?$Block@V?$Matrix@M$03$03$0A@$03$03@Eigen@@$02$00$0A@@Eigen@@$00@Eigen@@QEAA@PEAM@Z
	??0?$MapBase@V?$Block@V?$Matrix@M$03$03$0A@$03$03@Eigen@@$02$00$0A@@Eigen@@$0A@@Eigen@@QEAA@PEAM@Z
	??0?$MapBase@V?$Block@V?$Matrix@M$03$03$0A@$03$03@Eigen@@$02$02$0A@@Eigen@@$00@Eigen@@QEAA@PEAM@Z
	??0?$MapBase@V?$Block@V?$Matrix@M$03$03$0A@$03$03@Eigen@@$02$02$0A@@Eigen@@$0A@@Eigen@@QEAA@PEAM@Z
	??0?$Matrix@H$01$00$0A@$01$00@Eigen@@QEAA@XZ
	??0?$Matrix@M$01$00$0A@$01$00@Eigen@@QEAA@$$QEAV01@@Z
	??0?$Matrix@M$01$00$0A@$01$00@Eigen@@QEAA@AEBV01@@Z
	??0?$Matrix@M$01$00$0A@$01$00@Eigen@@QEAA@XZ
	??0?$Matrix@M$02$00$0A@$02$00@Eigen@@QEAA@$$QEAV01@@Z
	??0?$Matrix@M$02$00$0A@$02$00@Eigen@@QEAA@AEBM00@Z
	??0?$Matrix@M$02$00$0A@$02$00@Eigen@@QEAA@AEBV01@@Z
	??0?$Matrix@M$02$00$0A@$02$00@Eigen@@QEAA@XZ
	??0?$Matrix@M$02$02$0A@$02$02@Eigen@@QEAA@$$QEAV01@@Z
	??0?$Matrix@M$02$02$0A@$02$02@Eigen@@QEAA@XZ
	??0?$Matrix@M$03$00$0A@$03$00@Eigen@@QEAA@$$QEAV01@@Z
	??0?$Matrix@M$03$00$0A@$03$00@Eigen@@QEAA@AEBM000@Z
	??0?$Matrix@M$03$00$0A@$03$00@Eigen@@QEAA@AEBV01@@Z
	??0?$Matrix@M$03$00$0A@$03$00@Eigen@@QEAA@XZ
	??0?$Matrix@M$03$03$0A@$03$03@Eigen@@QEAA@$$QEAV01@@Z
	??0?$Matrix@M$03$03$0A@$03$03@Eigen@@QEAA@AEBV01@@Z
	??0?$Matrix@M$03$03$0A@$03$03@Eigen@@QEAA@XZ
	??0?$MatrixBase@V?$Block@$$CBV?$Block@$$CBV?$Matrix@M$03$03$0A@$03$03@Eigen@@$02$00$00@Eigen@@$02$00$00@Eigen@@@Eigen@@IEAA@XZ
	??0?$MatrixBase@V?$Block@$$CBV?$Block@$$CBV?$Matrix@M$03$03$0A@$03$03@Eigen@@$02$02$0A@@Eigen@@$00$02$0A@@Eigen@@@Eigen@@IEAA@XZ
	??0?$MatrixBase@V?$Block@$$CBV?$Block@$$CBV?$Matrix@M$03$03$0A@$03$03@Eigen@@$02$02$0A@@Eigen@@$02$00$00@Eigen@@@Eigen@@IEAA@XZ
	??0?$MatrixBase@V?$Block@$$CBV?$Block@V?$Matrix@M$03$03$0A@$03$03@Eigen@@$02$02$0A@@Eigen@@$00$02$0A@@Eigen@@@Eigen@@IEAA@XZ
	??0?$MatrixBase@V?$Block@$$CBV?$CwiseNullaryOp@U?$scalar_identity_op@M@internal@Eigen@@V?$Matrix@M$02$02$0A@$02$02@3@@Eigen@@$02$00$0A@@Eigen@@@Eigen@@IEAA@XZ
	??0?$MatrixBase@V?$Block@$$CBV?$CwiseUnaryOp@U?$scalar_opposite_op@M@internal@Eigen@@$$CBV?$Matrix@M$02$00$0A@$02$00@3@@Eigen@@$02$00$00@Eigen@@@Eigen@@IEAA@XZ
	??0?$MatrixBase@V?$Block@$$CBV?$Matrix@M$02$00$0A@$02$00@Eigen@@$02$00$00@Eigen@@@Eigen@@IEAA@XZ
	??0?$MatrixBase@V?$Block@$$CBV?$Matrix@M$02$02$0A@$02$02@Eigen@@$02$00$00@Eigen@@@Eigen@@IEAA@XZ
	??0?$MatrixBase@V?$Block@$$CBV?$Matrix@M$03$00$0A@$03$00@Eigen@@$02$00$0A@@Eigen@@@Eigen@@IEAA@XZ
	??0?$MatrixBase@V?$Block@$$CBV?$Matrix@M$03$03$0A@$03$03@Eigen@@$02$00$00@Eigen@@@Eigen@@IEAA@XZ
	??0?$MatrixBase@V?$Block@$$CBV?$Matrix@M$03$03$0A@$03$03@Eigen@@$02$02$0A@@Eigen@@@Eigen@@IEAA@XZ
	??0?$MatrixBase@V?$Block@V?$Matrix@M$02$00$0A@$02$00@Eigen@@$0?0$00$0A@@Eigen@@@Eigen@@IEAA@XZ
	??0?$MatrixBase@V?$Block@V?$Matrix@M$03$00$0A@$03$00@Eigen@@$02$00$0A@@Eigen@@@Eigen@@IEAA@XZ
	??0?$MatrixBase@V?$Block@V?$Matrix@M$03$03$0A@$03$03@Eigen@@$00$02$0A@@Eigen@@@Eigen@@IEAA@XZ
	??0?$MatrixBase@V?$Block@V?$Matrix@M$03$03$0A@$03$03@Eigen@@$02$00$00@Eigen@@@Eigen@@IEAA@XZ
	??0?$MatrixBase@V?$Block@V?$Matrix@M$03$03$0A@$03$03@Eigen@@$02$00$0A@@Eigen@@@Eigen@@IEAA@XZ
	??0?$MatrixBase@V?$Block@V?$Matrix@M$03$03$0A@$03$03@Eigen@@$02$02$0A@@Eigen@@@Eigen@@IEAA@XZ
	??0?$MatrixBase@V?$CwiseBinaryOp@U?$not_equal_to@M@std@@$$CBV?$Matrix@M$01$00$0A@$01$00@Eigen@@$$CBV?$Block@V?$Matrix@M$02$00$0A@$02$00@Eigen@@$0?0$00$0A@@4@@Eigen@@@Eigen@@IEAA@XZ
	??0?$MatrixBase@V?$CwiseBinaryOp@U?$not_equal_to@M@std@@$$CBV?$Matrix@M$03$03$0A@$03$03@Eigen@@$$CBV?$CwiseNullaryOp@U?$scalar_identity_op@M@internal@Eigen@@V?$Matrix@M$03$03$0A@$03$03@3@@4@@Eigen@@@Eigen@@IEAA@XZ
	??0?$MatrixBase@V?$CwiseBinaryOp@U?$scalar_conj_product_op@MM@internal@Eigen@@$$CBV?$Matrix@M$02$00$0A@$02$00@3@$$CBV43@@Eigen@@@Eigen@@IEAA@XZ
	??0?$MatrixBase@V?$CwiseBinaryOp@U?$scalar_difference_op@MM@internal@Eigen@@$$CBV?$Matrix@M$01$00$0A@$01$00@3@$$CBV43@@Eigen@@@Eigen@@IEAA@XZ
	??0?$MatrixBase@V?$CwiseBinaryOp@U?$scalar_difference_op@MM@internal@Eigen@@$$CBV?$Matrix@M$02$00$0A@$02$00@3@$$CBV43@@Eigen@@@Eigen@@IEAA@XZ
	??0?$MatrixBase@V?$CwiseBinaryOp@U?$scalar_product_op@MM@internal@Eigen@@$$CBV?$CwiseNullaryOp@U?$scalar_constant_op@M@internal@Eigen@@$$CBV?$Matrix@M$02$00$0A@$02$00@3@@3@$$CBV?$Matrix@M$02$00$0A@$02$00@3@@Eigen@@@Eigen@@IEAA@XZ
	??0?$MatrixBase@V?$CwiseBinaryOp@U?$scalar_product_op@MM@internal@Eigen@@$$CBV?$Matrix@M$02$00$0A@$02$00@3@$$CBV43@@Eigen@@@Eigen@@IEAA@XZ
	??0?$MatrixBase@V?$CwiseBinaryOp@U?$scalar_product_op@MM@internal@Eigen@@$$CBV?$Matrix@M$02$00$0A@$02$00@3@$$CBV?$CwiseNullaryOp@U?$scalar_constant_op@M@internal@Eigen@@$$CBV?$Matrix@M$02$00$0A@$02$00@3@@3@@Eigen@@@Eigen@@IEAA@XZ
	??0?$MatrixBase@V?$CwiseBinaryOp@U?$scalar_product_op@MM@internal@Eigen@@$$CBV?$Transpose@$$CBV?$Block@$$CBV?$Block@$$CBV?$Matrix@M$03$03$0A@$03$03@Eigen@@$02$02$0A@@Eigen@@$00$02$0A@@Eigen@@@3@$$CBV?$Block@$$CBV?$Block@$$CBV?$Matrix@M$03$03$0A@$03$03@Eigen@@$02$00$00@Eigen@@$02$00$00@3@@Eigen@@@Eigen@@IEAA@XZ
	??0?$MatrixBase@V?$CwiseBinaryOp@U?$scalar_product_op@MM@internal@Eigen@@$$CBV?$Transpose@$$CBV?$Block@$$CBV?$Block@$$CBV?$Matrix@M$03$03$0A@$03$03@Eigen@@$02$02$0A@@Eigen@@$00$02$0A@@Eigen@@@3@$$CBV?$Block@$$CBV?$Block@$$CBV?$Matrix@M$03$03$0A@$03$03@Eigen@@$02$02$0A@@Eigen@@$02$00$00@3@@Eigen@@@Eigen@@IEAA@XZ
	??0?$MatrixBase@V?$CwiseBinaryOp@U?$scalar_product_op@MM@internal@Eigen@@$$CBV?$Transpose@$$CBV?$Block@$$CBV?$Block@V?$Matrix@M$03$03$0A@$03$03@Eigen@@$02$02$0A@@Eigen@@$00$02$0A@@Eigen@@@3@$$CBV?$Block@$$CBV?$CwiseUnaryOp@U?$scalar_opposite_op@M@internal@Eigen@@$$CBV?$Matrix@M$02$00$0A@$02$00@3@@Eigen@@$02$00$00@3@@Eigen@@@Eigen@@IEAA@XZ
	??0?$MatrixBase@V?$CwiseBinaryOp@U?$scalar_product_op@MM@internal@Eigen@@$$CBV?$Transpose@$$CBV?$Block@$$CBV?$Block@V?$Matrix@M$03$03$0A@$03$03@Eigen@@$02$02$0A@@Eigen@@$00$02$0A@@Eigen@@@3@$$CBV?$Block@$$CBV?$Matrix@M$02$00$0A@$02$00@Eigen@@$02$00$00@3@@Eigen@@@Eigen@@IEAA@XZ
	??0?$MatrixBase@V?$CwiseBinaryOp@U?$scalar_product_op@MM@internal@Eigen@@$$CBV?$Transpose@$$CBV?$Block@$$CBV?$Block@V?$Matrix@M$03$03$0A@$03$03@Eigen@@$02$02$0A@@Eigen@@$00$02$0A@@Eigen@@@3@$$CBV?$Block@$$CBV?$Matrix@M$02$02$0A@$02$02@Eigen@@$02$00$00@3@@Eigen@@@Eigen@@IEAA@XZ
	??0?$MatrixBase@V?$CwiseBinaryOp@U?$scalar_quotient_op@MM@internal@Eigen@@$$CBV?$Matrix@M$02$00$0A@$02$00@3@$$CBV?$CwiseNullaryOp@U?$scalar_constant_op@M@internal@Eigen@@$$CBV?$Matrix@M$02$00$0A@$02$00@3@@3@@Eigen@@@Eigen@@IEAA@XZ
	??0?$MatrixBase@V?$CwiseBinaryOp@U?$scalar_quotient_op@MM@internal@Eigen@@$$CBV?$Matrix@M$03$00$0A@$03$00@3@$$CBV?$CwiseNullaryOp@U?$scalar_constant_op@M@internal@Eigen@@$$CBV?$Matrix@M$03$00$0A@$03$00@3@@3@@Eigen@@@Eigen@@IEAA@XZ
	??0?$MatrixBase@V?$CwiseBinaryOp@U?$scalar_sum_op@MM@internal@Eigen@@$$CBV?$CwiseBinaryOp@U?$scalar_sum_op@MM@internal@Eigen@@$$CBV?$Matrix@M$02$00$0A@$02$00@3@$$CBV?$CwiseBinaryOp@U?$scalar_product_op@MM@internal@Eigen@@$$CBV?$CwiseNullaryOp@U?$scalar_constant_op@M@internal@Eigen@@$$CBV?$Matrix@M$02$00$0A@$02$00@3@@3@$$CBV?$Matrix@M$02$00$0A@$02$00@3@@3@@3@$$CBV?$Matrix@M$02$00$0A@$02$00@3@@Eigen@@@Eigen@@IEAA@XZ
	??0?$MatrixBase@V?$CwiseBinaryOp@U?$scalar_sum_op@MM@internal@Eigen@@$$CBV?$Matrix@M$02$00$0A@$02$00@3@$$CBV43@@Eigen@@@Eigen@@IEAA@XZ
	??0?$MatrixBase@V?$CwiseBinaryOp@U?$scalar_sum_op@MM@internal@Eigen@@$$CBV?$Matrix@M$02$00$0A@$02$00@3@$$CBV?$CwiseBinaryOp@U?$scalar_product_op@MM@internal@Eigen@@$$CBV?$CwiseNullaryOp@U?$scalar_constant_op@M@internal@Eigen@@$$CBV?$Matrix@M$02$00$0A@$02$00@3@@3@$$CBV?$Matrix@M$02$00$0A@$02$00@3@@3@@Eigen@@@Eigen@@IEAA@XZ
	??0?$MatrixBase@V?$CwiseBinaryOp@U?$scalar_sum_op@MM@internal@Eigen@@$$CBV?$Product@V?$Block@$$CBV?$Matrix@M$03$03$0A@$03$03@Eigen@@$02$02$0A@@Eigen@@V?$Block@$$CBV?$Matrix@M$03$03$0A@$03$03@Eigen@@$02$00$00@2@$0A@@3@$$CBV?$Block@$$CBV?$Matrix@M$03$03$0A@$03$03@Eigen@@$02$00$00@3@@Eigen@@@Eigen@@IEAA@XZ
	??0?$MatrixBase@V?$CwiseNullaryOp@U?$scalar_constant_op@H@internal@Eigen@@V?$Matrix@H$01$00$0A@$01$00@3@@Eigen@@@Eigen@@IEAA@XZ
	??0?$MatrixBase@V?$CwiseNullaryOp@U?$scalar_constant_op@M@internal@Eigen@@$$CBV?$Matrix@M$02$00$0A@$02$00@3@@Eigen@@@Eigen@@IEAA@XZ
	??0?$MatrixBase@V?$CwiseNullaryOp@U?$scalar_constant_op@M@internal@Eigen@@$$CBV?$Matrix@M$03$00$0A@$03$00@3@@Eigen@@@Eigen@@IEAA@XZ
	??0?$MatrixBase@V?$CwiseNullaryOp@U?$scalar_constant_op@M@internal@Eigen@@V?$Matrix@M$00$02$00$00$02@3@@Eigen@@@Eigen@@IEAA@XZ
	??0?$MatrixBase@V?$CwiseNullaryOp@U?$scalar_constant_op@M@internal@Eigen@@V?$Matrix@M$02$00$0A@$02$00@3@@Eigen@@@Eigen@@IEAA@XZ
	??0?$MatrixBase@V?$CwiseNullaryOp@U?$scalar_constant_op@M@internal@Eigen@@V?$Matrix@M$02$02$0A@$02$02@3@@Eigen@@@Eigen@@IEAA@XZ
	??0?$MatrixBase@V?$CwiseNullaryOp@U?$scalar_constant_op@M@internal@Eigen@@V?$Matrix@M$03$00$0A@$03$00@3@@Eigen@@@Eigen@@IEAA@XZ
	??0?$MatrixBase@V?$CwiseNullaryOp@U?$scalar_constant_op@M@internal@Eigen@@V?$Matrix@M$03$03$0A@$03$03@3@@Eigen@@@Eigen@@IEAA@XZ
	??0?$MatrixBase@V?$CwiseNullaryOp@U?$scalar_identity_op@M@internal@Eigen@@V?$Matrix@M$02$02$0A@$02$02@3@@Eigen@@@Eigen@@IEAA@XZ
	??0?$MatrixBase@V?$CwiseNullaryOp@U?$scalar_identity_op@M@internal@Eigen@@V?$Matrix@M$03$03$0A@$03$03@3@@Eigen@@@Eigen@@IEAA@XZ
	??0?$MatrixBase@V?$CwiseUnaryOp@U?$scalar_abs2_op@M@internal@Eigen@@$$CBV?$CwiseBinaryOp@U?$scalar_difference_op@MM@internal@Eigen@@$$CBV?$Matrix@M$02$00$0A@$02$00@3@$$CBV43@@3@@Eigen@@@Eigen@@IEAA@XZ
	??0?$MatrixBase@V?$CwiseUnaryOp@U?$scalar_abs2_op@M@internal@Eigen@@$$CBV?$Matrix@M$02$00$0A@$02$00@3@@Eigen@@@Eigen@@IEAA@XZ
	??0?$MatrixBase@V?$CwiseUnaryOp@U?$scalar_abs2_op@M@internal@Eigen@@$$CBV?$Matrix@M$03$00$0A@$03$00@3@@Eigen@@@Eigen@@IEAA@XZ
	??0?$MatrixBase@V?$CwiseUnaryOp@U?$scalar_opposite_op@M@internal@Eigen@@$$CBV?$Matrix@M$02$00$0A@$02$00@3@@Eigen@@@Eigen@@IEAA@XZ
	??0?$MatrixBase@V?$Diagonal@V?$Matrix@M$02$02$0A@$02$02@Eigen@@$0A@@Eigen@@@Eigen@@IEAA@XZ
	??0?$MatrixBase@V?$Matrix@H$01$00$0A@$01$00@Eigen@@@Eigen@@IEAA@XZ
	??0?$MatrixBase@V?$Matrix@M$01$00$0A@$01$00@Eigen@@@Eigen@@IEAA@XZ
	??0?$MatrixBase@V?$Matrix@M$02$00$0A@$02$00@Eigen@@@Eigen@@IEAA@XZ
	??0?$MatrixBase@V?$Matrix@M$02$02$0A@$02$02@Eigen@@@Eigen@@IEAA@XZ
	??0?$MatrixBase@V?$Matrix@M$03$00$0A@$03$00@Eigen@@@Eigen@@IEAA@XZ
	??0?$MatrixBase@V?$Matrix@M$03$03$0A@$03$03@Eigen@@@Eigen@@IEAA@XZ
	??0?$MatrixBase@V?$Product@V?$Block@$$CBV?$Matrix@M$03$03$0A@$03$03@Eigen@@$02$02$0A@@Eigen@@V12@$00@Eigen@@@Eigen@@IEAA@XZ
	??0?$MatrixBase@V?$Product@V?$Block@$$CBV?$Matrix@M$03$03$0A@$03$03@Eigen@@$02$02$0A@@Eigen@@V12@$0A@@Eigen@@@Eigen@@IEAA@XZ
	??0?$MatrixBase@V?$Product@V?$Block@$$CBV?$Matrix@M$03$03$0A@$03$03@Eigen@@$02$02$0A@@Eigen@@V?$Block@$$CBV?$Matrix@M$03$03$0A@$03$03@Eigen@@$02$00$00@2@$00@Eigen@@@Eigen@@IEAA@XZ
	??0?$MatrixBase@V?$Product@V?$Block@$$CBV?$Matrix@M$03$03$0A@$03$03@Eigen@@$02$02$0A@@Eigen@@V?$Block@$$CBV?$Matrix@M$03$03$0A@$03$03@Eigen@@$02$00$00@2@$0A@@Eigen@@@Eigen@@IEAA@XZ
	??0?$MatrixBase@V?$Product@V?$Block@V?$Matrix@M$03$03$0A@$03$03@Eigen@@$02$02$0A@@Eigen@@V?$CwiseUnaryOp@U?$scalar_opposite_op@M@internal@Eigen@@$$CBV?$Matrix@M$02$00$0A@$02$00@3@@2@$00@Eigen@@@Eigen@@IEAA@XZ
	??0?$MatrixBase@V?$Product@V?$Block@V?$Matrix@M$03$03$0A@$03$03@Eigen@@$02$02$0A@@Eigen@@V?$CwiseUnaryOp@U?$scalar_opposite_op@M@internal@Eigen@@$$CBV?$Matrix@M$02$00$0A@$02$00@3@@2@$0A@@Eigen@@@Eigen@@IEAA@XZ
	??0?$MatrixBase@V?$Product@V?$Block@V?$Matrix@M$03$03$0A@$03$03@Eigen@@$02$02$0A@@Eigen@@V?$DiagonalWrapper@$$CBV?$Matrix@M$02$00$0A@$02$00@Eigen@@@2@$00@Eigen@@@Eigen@@IEAA@XZ
	??0?$MatrixBase@V?$Product@V?$Block@V?$Matrix@M$03$03$0A@$03$03@Eigen@@$02$02$0A@@Eigen@@V?$Matrix@M$02$00$0A@$02$00@2@$00@Eigen@@@Eigen@@IEAA@XZ
	??0?$MatrixBase@V?$Product@V?$Block@V?$Matrix@M$03$03$0A@$03$03@Eigen@@$02$02$0A@@Eigen@@V?$Matrix@M$02$00$0A@$02$00@2@$0A@@Eigen@@@Eigen@@IEAA@XZ
	??0?$MatrixBase@V?$Product@V?$Block@V?$Matrix@M$03$03$0A@$03$03@Eigen@@$02$02$0A@@Eigen@@V?$Matrix@M$02$02$0A@$02$02@2@$00@Eigen@@@Eigen@@IEAA@XZ
	??0?$MatrixBase@V?$Product@V?$Block@V?$Matrix@M$03$03$0A@$03$03@Eigen@@$02$02$0A@@Eigen@@V?$Matrix@M$02$02$0A@$02$02@2@$0A@@Eigen@@@Eigen@@IEAA@XZ
	??0?$MatrixBase@V?$Transpose@$$CBV?$Block@$$CBV?$Block@$$CBV?$Matrix@M$03$03$0A@$03$03@Eigen@@$02$02$0A@@Eigen@@$00$02$0A@@Eigen@@@Eigen@@@Eigen@@IEAA@XZ
	??0?$MatrixBase@V?$Transpose@$$CBV?$Block@$$CBV?$Block@V?$Matrix@M$03$03$0A@$03$03@Eigen@@$02$02$0A@@Eigen@@$00$02$0A@@Eigen@@@Eigen@@@Eigen@@IEAA@XZ
	??0?$NoAlias@V?$Block@V?$Matrix@M$03$03$0A@$03$03@Eigen@@$02$02$0A@@Eigen@@VMatrixBase@2@@Eigen@@QEAA@AEAV?$Block@V?$Matrix@M$03$03$0A@$03$03@Eigen@@$02$02$0A@@1@@Z
	??0?$PlainObjectBase@V?$Matrix@H$01$00$0A@$01$00@Eigen@@@Eigen@@IEAA@XZ
	??0?$PlainObjectBase@V?$Matrix@M$01$00$0A@$01$00@Eigen@@@Eigen@@IEAA@$$QEAV01@@Z
	??0?$PlainObjectBase@V?$Matrix@M$01$00$0A@$01$00@Eigen@@@Eigen@@IEAA@AEBV01@@Z
	??0?$PlainObjectBase@V?$Matrix@M$01$00$0A@$01$00@Eigen@@@Eigen@@IEAA@XZ
	??0?$PlainObjectBase@V?$Matrix@M$02$00$0A@$02$00@Eigen@@@Eigen@@IEAA@$$QEAV01@@Z
	??0?$PlainObjectBase@V?$Matrix@M$02$00$0A@$02$00@Eigen@@@Eigen@@IEAA@AEBV01@@Z
	??0?$PlainObjectBase@V?$Matrix@M$02$00$0A@$02$00@Eigen@@@Eigen@@IEAA@XZ
	??0?$PlainObjectBase@V?$Matrix@M$02$02$0A@$02$02@Eigen@@@Eigen@@IEAA@$$QEAV01@@Z
	??0?$PlainObjectBase@V?$Matrix@M$02$02$0A@$02$02@Eigen@@@Eigen@@IEAA@XZ
	??0?$PlainObjectBase@V?$Matrix@M$03$00$0A@$03$00@Eigen@@@Eigen@@IEAA@$$QEAV01@@Z
	??0?$PlainObjectBase@V?$Matrix@M$03$00$0A@$03$00@Eigen@@@Eigen@@IEAA@AEBV01@@Z
	??0?$PlainObjectBase@V?$Matrix@M$03$00$0A@$03$00@Eigen@@@Eigen@@IEAA@XZ
	??0?$PlainObjectBase@V?$Matrix@M$03$03$0A@$03$03@Eigen@@@Eigen@@IEAA@$$QEAV01@@Z
	??0?$PlainObjectBase@V?$Matrix@M$03$03$0A@$03$03@Eigen@@@Eigen@@IEAA@AEBV01@@Z
	??0?$PlainObjectBase@V?$Matrix@M$03$03$0A@$03$03@Eigen@@@Eigen@@IEAA@XZ
	??0?$Product@V?$Block@$$CBV?$Matrix@M$03$03$0A@$03$03@Eigen@@$02$02$0A@@Eigen@@V12@$00@Eigen@@QEAA@AEBV?$Block@$$CBV?$Matrix@M$03$03$0A@$03$03@Eigen@@$02$02$0A@@1@0@Z
	??0?$Product@V?$Block@$$CBV?$Matrix@M$03$03$0A@$03$03@Eigen@@$02$02$0A@@Eigen@@V12@$0A@@Eigen@@QEAA@AEBV?$Block@$$CBV?$Matrix@M$03$03$0A@$03$03@Eigen@@$02$02$0A@@1@0@Z
	??0?$Product@V?$Block@$$CBV?$Matrix@M$03$03$0A@$03$03@Eigen@@$02$02$0A@@Eigen@@V?$Block@$$CBV?$Matrix@M$03$03$0A@$03$03@Eigen@@$02$00$00@2@$00@Eigen@@QEAA@AEBV?$Block@$$CBV?$Matrix@M$03$03$0A@$03$03@Eigen@@$02$02$0A@@1@AEBV?$Block@$$CBV?$Matrix@M$03$03$0A@$03$03@Eigen@@$02$00$00@1@@Z
	??0?$Product@V?$Block@$$CBV?$Matrix@M$03$03$0A@$03$03@Eigen@@$02$02$0A@@Eigen@@V?$Block@$$CBV?$Matrix@M$03$03$0A@$03$03@Eigen@@$02$00$00@2@$0A@@Eigen@@QEAA@AEBV?$Block@$$CBV?$Matrix@M$03$03$0A@$03$03@Eigen@@$02$02$0A@@1@AEBV?$Block@$$CBV?$Matrix@M$03$03$0A@$03$03@Eigen@@$02$00$00@1@@Z
	??0?$Product@V?$Block@V?$Matrix@M$03$03$0A@$03$03@Eigen@@$02$02$0A@@Eigen@@V?$CwiseUnaryOp@U?$scalar_opposite_op@M@internal@Eigen@@$$CBV?$Matrix@M$02$00$0A@$02$00@3@@2@$00@Eigen@@QEAA@AEBV?$Block@V?$Matrix@M$03$03$0A@$03$03@Eigen@@$02$02$0A@@1@AEBV?$CwiseUnaryOp@U?$scalar_opposite_op@M@internal@Eigen@@$$CBV?$Matrix@M$02$00$0A@$02$00@3@@1@@Z
	??0?$Product@V?$Block@V?$Matrix@M$03$03$0A@$03$03@Eigen@@$02$02$0A@@Eigen@@V?$CwiseUnaryOp@U?$scalar_opposite_op@M@internal@Eigen@@$$CBV?$Matrix@M$02$00$0A@$02$00@3@@2@$0A@@Eigen@@QEAA@AEBV?$Block@V?$Matrix@M$03$03$0A@$03$03@Eigen@@$02$02$0A@@1@AEBV?$CwiseUnaryOp@U?$scalar_opposite_op@M@internal@Eigen@@$$CBV?$Matrix@M$02$00$0A@$02$00@3@@1@@Z
	??0?$Product@V?$Block@V?$Matrix@M$03$03$0A@$03$03@Eigen@@$02$02$0A@@Eigen@@V?$DiagonalWrapper@$$CBV?$Matrix@M$02$00$0A@$02$00@Eigen@@@2@$00@Eigen@@QEAA@AEBV?$Block@V?$Matrix@M$03$03$0A@$03$03@Eigen@@$02$02$0A@@1@AEBV?$DiagonalWrapper@$$CBV?$Matrix@M$02$00$0A@$02$00@Eigen@@@1@@Z
	??0?$Product@V?$Block@V?$Matrix@M$03$03$0A@$03$03@Eigen@@$02$02$0A@@Eigen@@V?$Matrix@M$02$00$0A@$02$00@2@$00@Eigen@@QEAA@AEBV?$Block@V?$Matrix@M$03$03$0A@$03$03@Eigen@@$02$02$0A@@1@AEBV?$Matrix@M$02$00$0A@$02$00@1@@Z
	??0?$Product@V?$Block@V?$Matrix@M$03$03$0A@$03$03@Eigen@@$02$02$0A@@Eigen@@V?$Matrix@M$02$00$0A@$02$00@2@$0A@@Eigen@@QEAA@AEBV?$Block@V?$Matrix@M$03$03$0A@$03$03@Eigen@@$02$02$0A@@1@AEBV?$Matrix@M$02$00$0A@$02$00@1@@Z
	??0?$Product@V?$Block@V?$Matrix@M$03$03$0A@$03$03@Eigen@@$02$02$0A@@Eigen@@V?$Matrix@M$02$02$0A@$02$02@2@$00@Eigen@@QEAA@AEBV?$Block@V?$Matrix@M$03$03$0A@$03$03@Eigen@@$02$02$0A@@1@AEBV?$Matrix@M$02$02$0A@$02$02@1@@Z
	??0?$Product@V?$Block@V?$Matrix@M$03$03$0A@$03$03@Eigen@@$02$02$0A@@Eigen@@V?$Matrix@M$02$02$0A@$02$02@2@$0A@@Eigen@@QEAA@AEBV?$Block@V?$Matrix@M$03$03$0A@$03$03@Eigen@@$02$02$0A@@1@AEBV?$Matrix@M$02$02$0A@$02$02@1@@Z
	??0?$ProductImpl@V?$Block@$$CBV?$Matrix@M$03$03$0A@$03$03@Eigen@@$02$02$0A@@Eigen@@V12@$00UDense@2@@Eigen@@QEAA@XZ
	??0?$ProductImpl@V?$Block@$$CBV?$Matrix@M$03$03$0A@$03$03@Eigen@@$02$02$0A@@Eigen@@V12@$0A@UDense@2@@Eigen@@QEAA@XZ
	??0?$ProductImpl@V?$Block@$$CBV?$Matrix@M$03$03$0A@$03$03@Eigen@@$02$02$0A@@Eigen@@V?$Block@$$CBV?$Matrix@M$03$03$0A@$03$03@Eigen@@$02$00$00@2@$00UDense@2@@Eigen@@QEAA@XZ
	??0?$ProductImpl@V?$Block@$$CBV?$Matrix@M$03$03$0A@$03$03@Eigen@@$02$02$0A@@Eigen@@V?$Block@$$CBV?$Matrix@M$03$03$0A@$03$03@Eigen@@$02$00$00@2@$0A@UDense@2@@Eigen@@QEAA@XZ
	??0?$ProductImpl@V?$Block@V?$Matrix@M$03$03$0A@$03$03@Eigen@@$02$02$0A@@Eigen@@V?$CwiseUnaryOp@U?$scalar_opposite_op@M@internal@Eigen@@$$CBV?$Matrix@M$02$00$0A@$02$00@3@@2@$00UDense@2@@Eigen@@QEAA@XZ
	??0?$ProductImpl@V?$Block@V?$Matrix@M$03$03$0A@$03$03@Eigen@@$02$02$0A@@Eigen@@V?$CwiseUnaryOp@U?$scalar_opposite_op@M@internal@Eigen@@$$CBV?$Matrix@M$02$00$0A@$02$00@3@@2@$0A@UDense@2@@Eigen@@QEAA@XZ
	??0?$ProductImpl@V?$Block@V?$Matrix@M$03$03$0A@$03$03@Eigen@@$02$02$0A@@Eigen@@V?$DiagonalWrapper@$$CBV?$Matrix@M$02$00$0A@$02$00@Eigen@@@2@$00UDense@2@@Eigen@@QEAA@XZ
	??0?$ProductImpl@V?$Block@V?$Matrix@M$03$03$0A@$03$03@Eigen@@$02$02$0A@@Eigen@@V?$Matrix@M$02$00$0A@$02$00@2@$00UDense@2@@Eigen@@QEAA@XZ
	??0?$ProductImpl@V?$Block@V?$Matrix@M$03$03$0A@$03$03@Eigen@@$02$02$0A@@Eigen@@V?$Matrix@M$02$00$0A@$02$00@2@$0A@UDense@2@@Eigen@@QEAA@XZ
	??0?$ProductImpl@V?$Block@V?$Matrix@M$03$03$0A@$03$03@Eigen@@$02$02$0A@@Eigen@@V?$Matrix@M$02$02$0A@$02$02@2@$00UDense@2@@Eigen@@QEAA@XZ
	??0?$ProductImpl@V?$Block@V?$Matrix@M$03$03$0A@$03$03@Eigen@@$02$02$0A@@Eigen@@V?$Matrix@M$02$02$0A@$02$02@2@$0A@UDense@2@@Eigen@@QEAA@XZ
	??0?$Quaternion@M$0A@@Eigen@@QEAA@$$QEAV01@@Z
	??0?$Quaternion@M$0A@@Eigen@@QEAA@AEBM000@Z
	??0?$Quaternion@M$0A@@Eigen@@QEAA@AEBV?$AngleAxis@M@1@@Z
	??0?$Quaternion@M$0A@@Eigen@@QEAA@XZ
	??0?$SymbolExpr@Usymbolic_last_tag@internal@Eigen@@@symbolic@Eigen@@QEAA@XZ
	??0?$Transform@M$02$01$0A@@Eigen@@QEAA@AEBV01@@Z
	??0?$Transform@M$02$01$0A@@Eigen@@QEAA@XZ
	??0?$Transpose@$$CBV?$Block@$$CBV?$Block@$$CBV?$Matrix@M$03$03$0A@$03$03@Eigen@@$02$02$0A@@Eigen@@$00$02$0A@@Eigen@@@Eigen@@QEAA@AEBV?$Block@$$CBV?$Block@$$CBV?$Matrix@M$03$03$0A@$03$03@Eigen@@$02$02$0A@@Eigen@@$00$02$0A@@1@@Z
	??0?$Transpose@$$CBV?$Block@$$CBV?$Block@V?$Matrix@M$03$03$0A@$03$03@Eigen@@$02$02$0A@@Eigen@@$00$02$0A@@Eigen@@@Eigen@@QEAA@AEBV?$Block@$$CBV?$Block@V?$Matrix@M$03$03$0A@$03$03@Eigen@@$02$02$0A@@Eigen@@$00$02$0A@@1@@Z
	??0?$TransposeImpl@$$CBV?$Block@$$CBV?$Block@$$CBV?$Matrix@M$03$03$0A@$03$03@Eigen@@$02$02$0A@@Eigen@@$00$02$0A@@Eigen@@UDense@2@@Eigen@@QEAA@XZ
	??0?$TransposeImpl@$$CBV?$Block@$$CBV?$Block@V?$Matrix@M$03$03$0A@$03$03@Eigen@@$02$02$0A@@Eigen@@$00$02$0A@@Eigen@@UDense@2@@Eigen@@QEAA@XZ
	??0?$ValueExpr@V?$FixedInt@$00@internal@Eigen@@@symbolic@Eigen@@QEAA@XZ
	??0?$VectorBlock@$$CBV?$Matrix@M$03$00$0A@$03$00@Eigen@@$02@Eigen@@QEAA@AEBV?$Matrix@M$03$00$0A@$03$00@1@_J1@Z
	??0?$VectorBlock@V?$Matrix@M$02$00$0A@$02$00@Eigen@@$0?0@Eigen@@QEAA@AEAV?$Matrix@M$02$00$0A@$02$00@1@_J1@Z
	??0?$VectorBlock@V?$Matrix@M$03$00$0A@$03$00@Eigen@@$02@Eigen@@QEAA@AEAV?$Matrix@M$03$00$0A@$03$00@1@_J1@Z
	??0?$_Func_base@X$$V@std@@QEAA@XZ
	??0?$_Func_base@XM@std@@QEAA@XZ
	??0?$_Func_class@X$$V@std@@QEAA@XZ
	??0?$_Func_class@XH@std@@QEAA@XZ
	??0?$_Func_class@XM@std@@QEAA@XZ
	??0?$_Ptr_base@I@std@@IEAA@XZ
	??0?$_Ref_count_resource@PEAIV<lambda_0eb331034ec64f284d3276d5eb9bc498>@@@std@@QEAA@PEAIV<lambda_0eb331034ec64f284d3276d5eb9bc498>@@@Z
	??0?$_Ref_count_resource@PEAIV<lambda_1d192c76f25f01443164c3008efd2f7a>@@@std@@QEAA@PEAIV<lambda_1d192c76f25f01443164c3008efd2f7a>@@@Z
	??0?$_Ref_count_resource@PEAIV<lambda_20810bc6c307e6c094ca4ad02a7e2c1b>@@@std@@QEAA@PEAIV<lambda_20810bc6c307e6c094ca4ad02a7e2c1b>@@@Z
	??0?$_Ref_count_resource@PEAIV<lambda_297a8ab7031fb168e0f42b0ceacfb411>@@@std@@QEAA@PEAIV<lambda_297a8ab7031fb168e0f42b0ceacfb411>@@@Z
	??0?$_Ref_count_resource@PEAIV<lambda_3a3d10b6c3efd1a8679460d8f1128bfe>@@@std@@QEAA@PEAIV<lambda_3a3d10b6c3efd1a8679460d8f1128bfe>@@@Z
	??0?$_Ref_count_resource@PEAIV<lambda_42565b2b1ff40c7ec619f6b0eefb855d>@@@std@@QEAA@PEAIV<lambda_42565b2b1ff40c7ec619f6b0eefb855d>@@@Z
	??0?$_Ref_count_resource@PEAIV<lambda_59114e1161731b809247c9c49615e8bc>@@@std@@QEAA@PEAIV<lambda_59114e1161731b809247c9c49615e8bc>@@@Z
	??0?$_Ref_count_resource@PEAIV<lambda_7817004a68f0dccb72be0e8c40851883>@@@std@@QEAA@PEAIV<lambda_7817004a68f0dccb72be0e8c40851883>@@@Z
	??0?$_Ref_count_resource@PEAIV<lambda_b660b692aa17cad6c64c8293c384ce89>@@@std@@QEAA@PEAIV<lambda_b660b692aa17cad6c64c8293c384ce89>@@@Z
	??0?$_Ref_count_resource@PEAIV<lambda_ce9ec88a1648543eec0dbc746d8a6173>@@@std@@QEAA@PEAIV<lambda_ce9ec88a1648543eec0dbc746d8a6173>@@@Z
	??0?$_Ref_count_resource@PEAIV<lambda_ef956bcedf99c3666c1c91f23b99b48b>@@@std@@QEAA@PEAIV<lambda_ef956bcedf99c3666c1c91f23b99b48b>@@@Z
	??0?$_String_alloc@U?$_String_base_types@DV?$allocator@D@std@@@std@@@std@@QEAA@XZ
	??0?$_String_bitmap@D$00@std@@QEAA@XZ
	??0?$_String_const_iterator@V?$_String_val@U?$_Simple_types@D@std@@@std@@@std@@QEAA@PEBDPEBU_Container_base12@1@@Z
	??0?$_String_iterator@V?$_String_val@U?$_Simple_types@D@std@@@std@@@std@@QEAA@PEADPEBU_Container_base12@1@@Z
	??0?$_String_val@U?$_Simple_types@D@std@@@std@@QEAA@XZ
	??0?$_Uninitialized_backout_al@PEAV?$Matrix@M$01$00$0A@$01$00@Eigen@@V?$allocator@V?$Matrix@M$01$00$0A@$01$00@Eigen@@@std@@@std@@QEAA@PEAV?$Matrix@M$01$00$0A@$01$00@Eigen@@AEAV?$allocator@V?$Matrix@M$01$00$0A@$01$00@Eigen@@@1@@Z
	??0?$_Uninitialized_backout_al@PEAV?$Matrix@M$02$00$0A@$02$00@Eigen@@V?$allocator@V?$Matrix@M$02$00$0A@$02$00@Eigen@@@std@@@std@@QEAA@PEAV?$Matrix@M$02$00$0A@$02$00@Eigen@@AEAV?$allocator@V?$Matrix@M$02$00$0A@$02$00@Eigen@@@1@@Z
	??0?$_Uninitialized_backout_al@PEAV?$Matrix@M$03$00$0A@$03$00@Eigen@@V?$allocator@V?$Matrix@M$03$00$0A@$03$00@Eigen@@@std@@@std@@QEAA@PEAV?$Matrix@M$03$00$0A@$03$00@Eigen@@AEAV?$allocator@V?$Matrix@M$03$00$0A@$03$00@Eigen@@@1@@Z
	??0?$_Uninitialized_backout_al@PEAVVertexAttribute@Tucano@@V?$allocator@VVertexAttribute@Tucano@@@std@@@std@@QEAA@PEAVVertexAttribute@Tucano@@AEAV?$allocator@VVertexAttribute@Tucano@@@1@@Z
	??0?$_Vector_alloc@U?$_Vec_base_types@HV?$allocator@H@std@@@std@@@std@@QEAA@XZ
	??0?$_Vector_alloc@U?$_Vec_base_types@IV?$allocator@I@std@@@std@@@std@@QEAA@XZ
	??0?$_Vector_alloc@U?$_Vec_base_types@MV?$allocator@M@std@@@std@@@std@@QEAA@XZ
	??0?$_Vector_alloc@U?$_Vec_base_types@PEAVElement@GUI@Tucano@@V?$allocator@PEAVElement@GUI@Tucano@@@std@@@std@@@std@@QEAA@XZ
	??0?$_Vector_alloc@U?$_Vec_base_types@PEAVShader@Tucano@@V?$allocator@PEAVShader@Tucano@@@std@@@std@@@std@@QEAA@XZ
	??0?$_Vector_alloc@U?$_Vec_base_types@V?$Matrix@M$01$00$0A@$01$00@Eigen@@V?$allocator@V?$Matrix@M$01$00$0A@$01$00@Eigen@@@std@@@std@@@std@@QEAA@XZ
	??0?$_Vector_alloc@U?$_Vec_base_types@V?$Matrix@M$02$00$0A@$02$00@Eigen@@V?$allocator@V?$Matrix@M$02$00$0A@$02$00@Eigen@@@std@@@std@@@std@@QEAA@XZ
	??0?$_Vector_alloc@U?$_Vec_base_types@V?$Matrix@M$03$00$0A@$03$00@Eigen@@V?$allocator@V?$Matrix@M$03$00$0A@$03$00@Eigen@@@std@@@std@@@std@@QEAA@XZ
	??0?$_Vector_alloc@U?$_Vec_base_types@VVertexAttribute@Tucano@@V?$allocator@VVertexAttribute@Tucano@@@std@@@std@@@std@@QEAA@XZ
	??0?$_Vector_val@U?$_Simple_types@H@std@@@std@@QEAA@XZ
	??0?$_Vector_val@U?$_Simple_types@I@std@@@std@@QEAA@XZ
	??0?$_Vector_val@U?$_Simple_types@M@std@@@std@@QEAA@XZ
	??0?$_Vector_val@U?$_Simple_types@PEAVElement@GUI@Tucano@@@std@@@std@@QEAA@XZ
	??0?$_Vector_val@U?$_Simple_types@PEAVShader@Tucano@@@std@@@std@@QEAA@XZ
	??0?$_Vector_val@U?$_Simple_types@V?$Matrix@M$01$00$0A@$01$00@Eigen@@@std@@@std@@QEAA@XZ
	??0?$_Vector_val@U?$_Simple_types@V?$Matrix@M$02$00$0A@$02$00@Eigen@@@std@@@std@@QEAA@XZ
	??0?$_Vector_val@U?$_Simple_types@V?$Matrix@M$03$00$0A@$03$00@Eigen@@@std@@@std@@QEAA@XZ
	??0?$_Vector_val@U?$_Simple_types@VVertexAttribute@Tucano@@@std@@@std@@QEAA@XZ
	??0?$allocator@D@std@@QEAA@XZ
	??0?$allocator@H@std@@QEAA@XZ
	??0?$allocator@I@std@@QEAA@XZ
	??0?$allocator@M@std@@QEAA@XZ
	??0?$allocator@PEAVElement@GUI@Tucano@@@std@@QEAA@XZ
	??0?$allocator@PEAVShader@Tucano@@@std@@QEAA@XZ
	??0?$allocator@V?$Matrix@M$01$00$0A@$01$00@Eigen@@@std@@QEAA@XZ
	??0?$allocator@V?$Matrix@M$02$00$0A@$02$00@Eigen@@@std@@QEAA@XZ
	??0?$allocator@V?$Matrix@M$03$00$0A@$03$00@Eigen@@@std@@QEAA@XZ
	??0?$allocator@VVertexAttribute@Tucano@@@std@@QEAA@XZ
	??0?$basic_filebuf@DU?$char_traits@D@std@@@std@@QEAA@PEAU_iobuf@@@Z
	??0?$basic_ifstream@DU?$char_traits@D@std@@@std@@QEAA@AEBV?$basic_string@DU?$char_traits@D@std@@V?$allocator@D@2@@1@HH@Z
	??0?$basic_ifstream@DU?$char_traits@D@std@@@std@@QEAA@PEBDHH@Z
	??0?$basic_string@DU?$char_traits@D@std@@V?$allocator@D@2@@std@@QEAA@$$QEAV01@@Z
	??0?$basic_string@DU?$char_traits@D@std@@V?$allocator@D@2@@std@@QEAA@AEBV01@@Z
	??0?$basic_string@DU?$char_traits@D@std@@V?$allocator@D@2@@std@@QEAA@AEBV01@_K1AEBV?$allocator@D@1@@Z
	??0?$basic_string@DU?$char_traits@D@std@@V?$allocator@D@2@@std@@QEAA@QEBD@Z
	??0?$basic_string@DU?$char_traits@D@std@@V?$allocator@D@2@@std@@QEAA@XZ
	??0?$binary_evaluator@V?$CwiseBinaryOp@U?$not_equal_to@M@std@@$$CBV?$Matrix@M$01$00$0A@$01$00@Eigen@@$$CBV?$Block@V?$Matrix@M$02$00$0A@$02$00@Eigen@@$0?0$00$0A@@4@@Eigen@@UIndexBased@internal@2@U342@MM@internal@Eigen@@QEAA@AEBV?$CwiseBinaryOp@U?$not_equal_to@M@std@@$$CBV?$Matrix@M$01$00$0A@$01$00@Eigen@@$$CBV?$Block@V?$Matrix@M$02$00$0A@$02$00@Eigen@@$0?0$00$0A@@4@@2@@Z
	??0?$binary_evaluator@V?$CwiseBinaryOp@U?$not_equal_to@M@std@@$$CBV?$Matrix@M$03$03$0A@$03$03@Eigen@@$$CBV?$CwiseNullaryOp@U?$scalar_identity_op@M@internal@Eigen@@V?$Matrix@M$03$03$0A@$03$03@3@@4@@Eigen@@UIndexBased@internal@2@U342@MM@internal@Eigen@@QEAA@AEBV?$CwiseBinaryOp@U?$not_equal_to@M@std@@$$CBV?$Matrix@M$03$03$0A@$03$03@Eigen@@$$CBV?$CwiseNullaryOp@U?$scalar_identity_op@M@internal@Eigen@@V?$Matrix@M$03$03$0A@$03$03@3@@4@@2@@Z
	??0?$binary_evaluator@V?$CwiseBinaryOp@U?$scalar_conj_product_op@MM@internal@Eigen@@$$CBV?$Matrix@M$02$00$0A@$02$00@3@$$CBV43@@Eigen@@UIndexBased@internal@2@U342@MM@internal@Eigen@@QEAA@AEBV?$CwiseBinaryOp@U?$scalar_conj_product_op@MM@internal@Eigen@@$$CBV?$Matrix@M$02$00$0A@$02$00@3@$$CBV43@@2@@Z
	??0?$binary_evaluator@V?$CwiseBinaryOp@U?$scalar_difference_op@MM@internal@Eigen@@$$CBV?$Matrix@M$01$00$0A@$01$00@3@$$CBV43@@Eigen@@UIndexBased@internal@2@U342@MM@internal@Eigen@@QEAA@AEBV?$CwiseBinaryOp@U?$scalar_difference_op@MM@internal@Eigen@@$$CBV?$Matrix@M$01$00$0A@$01$00@3@$$CBV43@@2@@Z
	??0?$binary_evaluator@V?$CwiseBinaryOp@U?$scalar_difference_op@MM@internal@Eigen@@$$CBV?$Matrix@M$02$00$0A@$02$00@3@$$CBV43@@Eigen@@UIndexBased@internal@2@U342@MM@internal@Eigen@@QEAA@AEBV?$CwiseBinaryOp@U?$scalar_difference_op@MM@internal@Eigen@@$$CBV?$Matrix@M$02$00$0A@$02$00@3@$$CBV43@@2@@Z
	??0?$binary_evaluator@V?$CwiseBinaryOp@U?$scalar_product_op@MM@internal@Eigen@@$$CBV?$CwiseNullaryOp@U?$scalar_constant_op@M@internal@Eigen@@$$CBV?$Matrix@M$02$00$0A@$02$00@3@@3@$$CBV?$Matrix@M$02$00$0A@$02$00@3@@Eigen@@UIndexBased@internal@2@U342@MM@internal@Eigen@@QEAA@AEBV?$CwiseBinaryOp@U?$scalar_product_op@MM@internal@Eigen@@$$CBV?$CwiseNullaryOp@U?$scalar_constant_op@M@internal@Eigen@@$$CBV?$Matrix@M$02$00$0A@$02$00@3@@3@$$CBV?$Matrix@M$02$00$0A@$02$00@3@@2@@Z
	??0?$binary_evaluator@V?$CwiseBinaryOp@U?$scalar_product_op@MM@internal@Eigen@@$$CBV?$Matrix@M$02$00$0A@$02$00@3@$$CBV43@@Eigen@@UIndexBased@internal@2@U342@MM@internal@Eigen@@QEAA@AEBV?$CwiseBinaryOp@U?$scalar_product_op@MM@internal@Eigen@@$$CBV?$Matrix@M$02$00$0A@$02$00@3@$$CBV43@@2@@Z
	??0?$binary_evaluator@V?$CwiseBinaryOp@U?$scalar_product_op@MM@internal@Eigen@@$$CBV?$Matrix@M$02$00$0A@$02$00@3@$$CBV?$CwiseNullaryOp@U?$scalar_constant_op@M@internal@Eigen@@$$CBV?$Matrix@M$02$00$0A@$02$00@3@@3@@Eigen@@UIndexBased@internal@2@U342@MM@internal@Eigen@@QEAA@AEBV?$CwiseBinaryOp@U?$scalar_product_op@MM@internal@Eigen@@$$CBV?$Matrix@M$02$00$0A@$02$00@3@$$CBV?$CwiseNullaryOp@U?$scalar_constant_op@M@internal@Eigen@@$$CBV?$Matrix@M$02$00$0A@$02$00@3@@3@@2@@Z
	??0?$binary_evaluator@V?$CwiseBinaryOp@U?$scalar_product_op@MM@internal@Eigen@@$$CBV?$Transpose@$$CBV?$Block@$$CBV?$Block@$$CBV?$Matrix@M$03$03$0A@$03$03@Eigen@@$02$02$0A@@Eigen@@$00$02$0A@@Eigen@@@3@$$CBV?$Block@$$CBV?$Block@$$CBV?$Matrix@M$03$03$0A@$03$03@Eigen@@$02$00$00@Eigen@@$02$00$00@3@@Eigen@@UIndexBased@internal@2@U342@MM@internal@Eigen@@QEAA@AEBV?$CwiseBinaryOp@U?$scalar_product_op@MM@internal@Eigen@@$$CBV?$Transpose@$$CBV?$Block@$$CBV?$Block@$$CBV?$Matrix@M$03$03$0A@$03$03@Eigen@@$02$02$0A@@Eigen@@$00$02$0A@@Eigen@@@3@$$CBV?$Block@$$CBV?$Block@$$CBV?$Matrix@M$03$03$0A@$03$03@Eigen@@$02$00$00@Eigen@@$02$00$00@3@@2@@Z
	??0?$binary_evaluator@V?$CwiseBinaryOp@U?$scalar_product_op@MM@internal@Eigen@@$$CBV?$Transpose@$$CBV?$Block@$$CBV?$Block@$$CBV?$Matrix@M$03$03$0A@$03$03@Eigen@@$02$02$0A@@Eigen@@$00$02$0A@@Eigen@@@3@$$CBV?$Block@$$CBV?$Block@$$CBV?$Matrix@M$03$03$0A@$03$03@Eigen@@$02$02$0A@@Eigen@@$02$00$00@3@@Eigen@@UIndexBased@internal@2@U342@MM@internal@Eigen@@QEAA@AEBV?$CwiseBinaryOp@U?$scalar_product_op@MM@internal@Eigen@@$$CBV?$Transpose@$$CBV?$Block@$$CBV?$Block@$$CBV?$Matrix@M$03$03$0A@$03$03@Eigen@@$02$02$0A@@Eigen@@$00$02$0A@@Eigen@@@3@$$CBV?$Block@$$CBV?$Block@$$CBV?$Matrix@M$03$03$0A@$03$03@Eigen@@$02$02$0A@@Eigen@@$02$00$00@3@@2@@Z
	??0?$binary_evaluator@V?$CwiseBinaryOp@U?$scalar_product_op@MM@internal@Eigen@@$$CBV?$Transpose@$$CBV?$Block@$$CBV?$Block@V?$Matrix@M$03$03$0A@$03$03@Eigen@@$02$02$0A@@Eigen@@$00$02$0A@@Eigen@@@3@$$CBV?$Block@$$CBV?$CwiseUnaryOp@U?$scalar_opposite_op@M@internal@Eigen@@$$CBV?$Matrix@M$02$00$0A@$02$00@3@@Eigen@@$02$00$00@3@@Eigen@@UIndexBased@internal@2@U342@MM@internal@Eigen@@QEAA@AEBV?$CwiseBinaryOp@U?$scalar_product_op@MM@internal@Eigen@@$$CBV?$Transpose@$$CBV?$Block@$$CBV?$Block@V?$Matrix@M$03$03$0A@$03$03@Eigen@@$02$02$0A@@Eigen@@$00$02$0A@@Eigen@@@3@$$CBV?$Block@$$CBV?$CwiseUnaryOp@U?$scalar_opposite_op@M@internal@Eigen@@$$CBV?$Matrix@M$02$00$0A@$02$00@3@@Eigen@@$02$00$00@3@@2@@Z
	??0?$binary_evaluator@V?$CwiseBinaryOp@U?$scalar_product_op@MM@internal@Eigen@@$$CBV?$Transpose@$$CBV?$Block@$$CBV?$Block@V?$Matrix@M$03$03$0A@$03$03@Eigen@@$02$02$0A@@Eigen@@$00$02$0A@@Eigen@@@3@$$CBV?$Block@$$CBV?$Matrix@M$02$00$0A@$02$00@Eigen@@$02$00$00@3@@Eigen@@UIndexBased@internal@2@U342@MM@internal@Eigen@@QEAA@AEBV?$CwiseBinaryOp@U?$scalar_product_op@MM@internal@Eigen@@$$CBV?$Transpose@$$CBV?$Block@$$CBV?$Block@V?$Matrix@M$03$03$0A@$03$03@Eigen@@$02$02$0A@@Eigen@@$00$02$0A@@Eigen@@@3@$$CBV?$Block@$$CBV?$Matrix@M$02$00$0A@$02$00@Eigen@@$02$00$00@3@@2@@Z
	??0?$binary_evaluator@V?$CwiseBinaryOp@U?$scalar_product_op@MM@internal@Eigen@@$$CBV?$Transpose@$$CBV?$Block@$$CBV?$Block@V?$Matrix@M$03$03$0A@$03$03@Eigen@@$02$02$0A@@Eigen@@$00$02$0A@@Eigen@@@3@$$CBV?$Block@$$CBV?$Matrix@M$02$02$0A@$02$02@Eigen@@$02$00$00@3@@Eigen@@UIndexBased@internal@2@U342@MM@internal@Eigen@@QEAA@AEBV?$CwiseBinaryOp@U?$scalar_product_op@MM@internal@Eigen@@$$CBV?$Transpose@$$CBV?$Block@$$CBV?$Block@V?$Matrix@M$03$03$0A@$03$03@Eigen@@$02$02$0A@@Eigen@@$00$02$0A@@Eigen@@@3@$$CBV?$Block@$$CBV?$Matrix@M$02$02$0A@$02$02@Eigen@@$02$00$00@3@@2@@Z
	??0?$binary_evaluator@V?$CwiseBinaryOp@U?$scalar_quotient_op@MM@internal@Eigen@@$$CBV?$Matrix@M$02$00$0A@$02$00@3@$$CBV?$CwiseNullaryOp@U?$scalar_constant_op@M@internal@Eigen@@$$CBV?$Matrix@M$02$00$0A@$02$00@3@@3@@Eigen@@UIndexBased@internal@2@U342@MM@internal@Eigen@@QEAA@AEBV?$CwiseBinaryOp@U?$scalar_quotient_op@MM@internal@Eigen@@$$CBV?$Matrix@M$02$00$0A@$02$00@3@$$CBV?$CwiseNullaryOp@U?$scalar_constant_op@M@internal@Eigen@@$$CBV?$Matrix@M$02$00$0A@$02$00@3@@3@@2@@Z
	??0?$binary_evaluator@V?$CwiseBinaryOp@U?$scalar_quotient_op@MM@internal@Eigen@@$$CBV?$Matrix@M$03$00$0A@$03$00@3@$$CBV?$CwiseNullaryOp@U?$scalar_constant_op@M@internal@Eigen@@$$CBV?$Matrix@M$03$00$0A@$03$00@3@@3@@Eigen@@UIndexBased@internal@2@U342@MM@internal@Eigen@@QEAA@AEBV?$CwiseBinaryOp@U?$scalar_quotient_op@MM@internal@Eigen@@$$CBV?$Matrix@M$03$00$0A@$03$00@3@$$CBV?$CwiseNullaryOp@U?$scalar_constant_op@M@internal@Eigen@@$$CBV?$Matrix@M$03$00$0A@$03$00@3@@3@@2@@Z
	??0?$binary_evaluator@V?$CwiseBinaryOp@U?$scalar_sum_op@MM@internal@Eigen@@$$CBV?$ArrayWrapper@$$CBV?$CwiseBinaryOp@U?$scalar_product_op@MM@internal@Eigen@@$$CBV?$Matrix@M$02$00$0A@$02$00@3@$$CBV43@@Eigen@@@3@$$CBV?$CwiseNullaryOp@U?$scalar_constant_op@M@internal@Eigen@@$$CBV?$Array@M$02$00$0A@$02$00@3@@3@@Eigen@@UIndexBased@internal@2@U342@MM@internal@Eigen@@QEAA@AEBV?$CwiseBinaryOp@U?$scalar_sum_op@MM@internal@Eigen@@$$CBV?$ArrayWrapper@$$CBV?$CwiseBinaryOp@U?$scalar_product_op@MM@internal@Eigen@@$$CBV?$Matrix@M$02$00$0A@$02$00@3@$$CBV43@@Eigen@@@3@$$CBV?$CwiseNullaryOp@U?$scalar_constant_op@M@internal@Eigen@@$$CBV?$Array@M$02$00$0A@$02$00@3@@3@@2@@Z
	??0?$binary_evaluator@V?$CwiseBinaryOp@U?$scalar_sum_op@MM@internal@Eigen@@$$CBV?$CwiseBinaryOp@U?$scalar_sum_op@MM@internal@Eigen@@$$CBV?$Matrix@M$02$00$0A@$02$00@3@$$CBV?$CwiseBinaryOp@U?$scalar_product_op@MM@internal@Eigen@@$$CBV?$CwiseNullaryOp@U?$scalar_constant_op@M@internal@Eigen@@$$CBV?$Matrix@M$02$00$0A@$02$00@3@@3@$$CBV?$Matrix@M$02$00$0A@$02$00@3@@3@@3@$$CBV?$Matrix@M$02$00$0A@$02$00@3@@Eigen@@UIndexBased@internal@2@U342@MM@internal@Eigen@@QEAA@AEBV?$CwiseBinaryOp@U?$scalar_sum_op@MM@internal@Eigen@@$$CBV?$CwiseBinaryOp@U?$scalar_sum_op@MM@internal@Eigen@@$$CBV?$Matrix@M$02$00$0A@$02$00@3@$$CBV?$CwiseBinaryOp@U?$scalar_product_op@MM@internal@Eigen@@$$CBV?$CwiseNullaryOp@U?$scalar_constant_op@M@internal@Eigen@@$$CBV?$Matrix@M$02$00$0A@$02$00@3@@3@$$CBV?$Matrix@M$02$00$0A@$02$00@3@@3@@3@$$CBV?$Matrix@M$02$00$0A@$02$00@3@@2@@Z
	??0?$binary_evaluator@V?$CwiseBinaryOp@U?$scalar_sum_op@MM@internal@Eigen@@$$CBV?$Matrix@M$02$00$0A@$02$00@3@$$CBV43@@Eigen@@UIndexBased@internal@2@U342@MM@internal@Eigen@@QEAA@AEBV?$CwiseBinaryOp@U?$scalar_sum_op@MM@internal@Eigen@@$$CBV?$Matrix@M$02$00$0A@$02$00@3@$$CBV43@@2@@Z
	??0?$binary_evaluator@V?$CwiseBinaryOp@U?$scalar_sum_op@MM@internal@Eigen@@$$CBV?$Matrix@M$02$00$0A@$02$00@3@$$CBV?$CwiseBinaryOp@U?$scalar_product_op@MM@internal@Eigen@@$$CBV?$CwiseNullaryOp@U?$scalar_constant_op@M@internal@Eigen@@$$CBV?$Matrix@M$02$00$0A@$02$00@3@@3@$$CBV?$Matrix@M$02$00$0A@$02$00@3@@3@@Eigen@@UIndexBased@internal@2@U342@MM@internal@Eigen@@QEAA@AEBV?$CwiseBinaryOp@U?$scalar_sum_op@MM@internal@Eigen@@$$CBV?$Matrix@M$02$00$0A@$02$00@3@$$CBV?$CwiseBinaryOp@U?$scalar_product_op@MM@internal@Eigen@@$$CBV?$CwiseNullaryOp@U?$scalar_constant_op@M@internal@Eigen@@$$CBV?$Matrix@M$02$00$0A@$02$00@3@@3@$$CBV?$Matrix@M$02$00$0A@$02$00@3@@3@@2@@Z
	??0?$binary_evaluator@V?$CwiseBinaryOp@U?$scalar_sum_op@MM@internal@Eigen@@$$CBV?$Product@V?$Block@$$CBV?$Matrix@M$03$03$0A@$03$03@Eigen@@$02$02$0A@@Eigen@@V?$Block@$$CBV?$Matrix@M$03$03$0A@$03$03@Eigen@@$02$00$00@2@$0A@@3@$$CBV?$Block@$$CBV?$Matrix@M$03$03$0A@$03$03@Eigen@@$02$00$00@3@@Eigen@@UIndexBased@internal@2@U342@MM@internal@Eigen@@QEAA@AEBV?$CwiseBinaryOp@U?$scalar_sum_op@MM@internal@Eigen@@$$CBV?$Product@V?$Block@$$CBV?$Matrix@M$03$03$0A@$03$03@Eigen@@$02$02$0A@@Eigen@@V?$Block@$$CBV?$Matrix@M$03$03$0A@$03$03@Eigen@@$02$00$00@2@$0A@@3@$$CBV?$Block@$$CBV?$Matrix@M$03$03$0A@$03$03@Eigen@@$02$00$00@3@@2@@Z
	??0?$block_evaluator@$$CBV?$Block@$$CBV?$Matrix@M$03$03$0A@$03$03@Eigen@@$02$00$00@Eigen@@$02$00$00$00@internal@Eigen@@QEAA@AEBV?$Block@$$CBV?$Block@$$CBV?$Matrix@M$03$03$0A@$03$03@Eigen@@$02$00$00@Eigen@@$02$00$00@2@@Z
	??0?$block_evaluator@$$CBV?$Block@$$CBV?$Matrix@M$03$03$0A@$03$03@Eigen@@$02$02$0A@@Eigen@@$00$02$0A@$00@internal@Eigen@@QEAA@AEBV?$Block@$$CBV?$Block@$$CBV?$Matrix@M$03$03$0A@$03$03@Eigen@@$02$02$0A@@Eigen@@$00$02$0A@@2@@Z
	??0?$block_evaluator@$$CBV?$Block@$$CBV?$Matrix@M$03$03$0A@$03$03@Eigen@@$02$02$0A@@Eigen@@$02$00$00$00@internal@Eigen@@QEAA@AEBV?$Block@$$CBV?$Block@$$CBV?$Matrix@M$03$03$0A@$03$03@Eigen@@$02$02$0A@@Eigen@@$02$00$00@2@@Z
	??0?$block_evaluator@$$CBV?$Block@V?$Matrix@M$03$03$0A@$03$03@Eigen@@$02$02$0A@@Eigen@@$00$02$0A@$00@internal@Eigen@@QEAA@AEBV?$Block@$$CBV?$Block@V?$Matrix@M$03$03$0A@$03$03@Eigen@@$02$02$0A@@Eigen@@$00$02$0A@@2@@Z
	??0?$block_evaluator@$$CBV?$CwiseNullaryOp@U?$scalar_identity_op@M@internal@Eigen@@V?$Matrix@M$02$02$0A@$02$02@3@@Eigen@@$02$00$0A@$0A@@internal@Eigen@@QEAA@AEBV?$Block@$$CBV?$CwiseNullaryOp@U?$scalar_identity_op@M@internal@Eigen@@V?$Matrix@M$02$02$0A@$02$02@3@@Eigen@@$02$00$0A@@2@@Z
	??0?$block_evaluator@$$CBV?$CwiseUnaryOp@U?$scalar_opposite_op@M@internal@Eigen@@$$CBV?$Matrix@M$02$00$0A@$02$00@3@@Eigen@@$02$00$00$0A@@internal@Eigen@@QEAA@AEBV?$Block@$$CBV?$CwiseUnaryOp@U?$scalar_opposite_op@M@internal@Eigen@@$$CBV?$Matrix@M$02$00$0A@$02$00@3@@Eigen@@$02$00$00@2@@Z
	??0?$block_evaluator@$$CBV?$Matrix@M$02$00$0A@$02$00@Eigen@@$02$00$00$00@internal@Eigen@@QEAA@AEBV?$Block@$$CBV?$Matrix@M$02$00$0A@$02$00@Eigen@@$02$00$00@2@@Z
	??0?$block_evaluator@$$CBV?$Matrix@M$02$02$0A@$02$02@Eigen@@$02$00$00$00@internal@Eigen@@QEAA@AEBV?$Block@$$CBV?$Matrix@M$02$02$0A@$02$02@Eigen@@$02$00$00@2@@Z
	??0?$block_evaluator@$$CBV?$Matrix@M$03$03$0A@$03$03@Eigen@@$02$00$00$00@internal@Eigen@@QEAA@AEBV?$Block@$$CBV?$Matrix@M$03$03$0A@$03$03@Eigen@@$02$00$00@2@@Z
	??0?$block_evaluator@$$CBV?$Matrix@M$03$03$0A@$03$03@Eigen@@$02$02$0A@$00@internal@Eigen@@QEAA@AEBV?$Block@$$CBV?$Matrix@M$03$03$0A@$03$03@Eigen@@$02$02$0A@@2@@Z
	??0?$block_evaluator@V?$Matrix@M$02$00$0A@$02$00@Eigen@@$0?0$00$0A@$00@internal@Eigen@@QEAA@AEBV?$Block@V?$Matrix@M$02$00$0A@$02$00@Eigen@@$0?0$00$0A@@2@@Z
	??0?$block_evaluator@V?$Matrix@M$03$00$0A@$03$00@Eigen@@$02$00$0A@$00@internal@Eigen@@QEAA@AEBV?$Block@V?$Matrix@M$03$00$0A@$03$00@Eigen@@$02$00$0A@@2@@Z
	??0?$block_evaluator@V?$Matrix@M$03$03$0A@$03$03@Eigen@@$00$02$0A@$00@internal@Eigen@@QEAA@AEBV?$Block@V?$Matrix@M$03$03$0A@$03$03@Eigen@@$00$02$0A@@2@@Z
	??0?$block_evaluator@V?$Matrix@M$03$03$0A@$03$03@Eigen@@$02$00$00$00@internal@Eigen@@QEAA@AEBV?$Block@V?$Matrix@M$03$03$0A@$03$03@Eigen@@$02$00$00@2@@Z
	??0?$block_evaluator@V?$Matrix@M$03$03$0A@$03$03@Eigen@@$02$00$0A@$00@internal@Eigen@@QEAA@AEBV?$Block@V?$Matrix@M$03$03$0A@$03$03@Eigen@@$02$00$0A@@2@@Z
	??0?$block_evaluator@V?$Matrix@M$03$03$0A@$03$03@Eigen@@$02$02$0A@$00@internal@Eigen@@QEAA@AEBV?$Block@V?$Matrix@M$03$03$0A@$03$03@Eigen@@$02$02$0A@@2@@Z
	??0?$dense_product_base@V?$Block@$$CBV?$Matrix@M$03$03$0A@$03$03@Eigen@@$02$02$0A@@Eigen@@V12@$00$02@internal@Eigen@@QEAA@XZ
	??0?$dense_product_base@V?$Block@$$CBV?$Matrix@M$03$03$0A@$03$03@Eigen@@$02$02$0A@@Eigen@@V12@$0A@$02@internal@Eigen@@QEAA@XZ
	??0?$dense_product_base@V?$Block@$$CBV?$Matrix@M$03$03$0A@$03$03@Eigen@@$02$02$0A@@Eigen@@V?$Block@$$CBV?$Matrix@M$03$03$0A@$03$03@Eigen@@$02$00$00@2@$00$02@internal@Eigen@@QEAA@XZ
	??0?$dense_product_base@V?$Block@$$CBV?$Matrix@M$03$03$0A@$03$03@Eigen@@$02$02$0A@@Eigen@@V?$Block@$$CBV?$Matrix@M$03$03$0A@$03$03@Eigen@@$02$00$00@2@$0A@$02@internal@Eigen@@QEAA@XZ
	??0?$dense_product_base@V?$Block@V?$Matrix@M$03$03$0A@$03$03@Eigen@@$02$02$0A@@Eigen@@V?$CwiseUnaryOp@U?$scalar_opposite_op@M@internal@Eigen@@$$CBV?$Matrix@M$02$00$0A@$02$00@3@@2@$00$02@internal@Eigen@@QEAA@XZ
	??0?$dense_product_base@V?$Block@V?$Matrix@M$03$03$0A@$03$03@Eigen@@$02$02$0A@@Eigen@@V?$CwiseUnaryOp@U?$scalar_opposite_op@M@internal@Eigen@@$$CBV?$Matrix@M$02$00$0A@$02$00@3@@2@$0A@$02@internal@Eigen@@QEAA@XZ
	??0?$dense_product_base@V?$Block@V?$Matrix@M$03$03$0A@$03$03@Eigen@@$02$02$0A@@Eigen@@V?$DiagonalWrapper@$$CBV?$Matrix@M$02$00$0A@$02$00@Eigen@@@2@$00$02@internal@Eigen@@QEAA@XZ
	??0?$dense_product_base@V?$Block@V?$Matrix@M$03$03$0A@$03$03@Eigen@@$02$02$0A@@Eigen@@V?$Matrix@M$02$00$0A@$02$00@2@$00$02@internal@Eigen@@QEAA@XZ
	??0?$dense_product_base@V?$Block@V?$Matrix@M$03$03$0A@$03$03@Eigen@@$02$02$0A@@Eigen@@V?$Matrix@M$02$00$0A@$02$00@2@$0A@$02@internal@Eigen@@QEAA@XZ
	??0?$dense_product_base@V?$Block@V?$Matrix@M$03$03$0A@$03$03@Eigen@@$02$02$0A@@Eigen@@V?$Matrix@M$02$02$0A@$02$02@2@$00$02@internal@Eigen@@QEAA@XZ
	??0?$dense_product_base@V?$Block@V?$Matrix@M$03$03$0A@$03$03@Eigen@@$02$02$0A@@Eigen@@V?$Matrix@M$02$02$0A@$02$02@2@$0A@$02@internal@Eigen@@QEAA@XZ
	??0?$diagonal_product_evaluator_base@V?$Block@V?$Matrix@M$03$03$0A@$03$03@Eigen@@$02$02$0A@@Eigen@@$$CBV?$Matrix@M$02$00$0A@$02$00@2@V?$Product@V?$Block@V?$Matrix@M$03$03$0A@$03$03@Eigen@@$02$02$0A@@Eigen@@V?$DiagonalWrapper@$$CBV?$Matrix@M$02$00$0A@$02$00@Eigen@@@2@$00@2@$01@internal@Eigen@@QEAA@AEBV?$Block@V?$Matrix@M$03$03$0A@$03$03@Eigen@@$02$02$0A@@2@AEBV?$Matrix@M$02$00$0A@$02$00@2@@Z
	??0?$evaluator@$$CBV?$ArrayWrapper@$$CBV?$CwiseBinaryOp@U?$scalar_product_op@MM@internal@Eigen@@$$CBV?$Matrix@M$02$00$0A@$02$00@3@$$CBV43@@Eigen@@@Eigen@@@internal@Eigen@@QEAA@AEBV?$ArrayWrapper@$$CBV?$CwiseBinaryOp@U?$scalar_product_op@MM@internal@Eigen@@$$CBV?$Matrix@M$02$00$0A@$02$00@3@$$CBV43@@Eigen@@@2@@Z
	??0?$evaluator@$$CBV?$Block@$$CBV?$Block@$$CBV?$Matrix@M$03$03$0A@$03$03@Eigen@@$02$00$00@Eigen@@$02$00$00@Eigen@@@internal@Eigen@@QEAA@AEBV?$Block@$$CBV?$Block@$$CBV?$Matrix@M$03$03$0A@$03$03@Eigen@@$02$00$00@Eigen@@$02$00$00@2@@Z
	??0?$evaluator@$$CBV?$Block@$$CBV?$Block@$$CBV?$Matrix@M$03$03$0A@$03$03@Eigen@@$02$02$0A@@Eigen@@$00$02$0A@@Eigen@@@internal@Eigen@@QEAA@AEBV?$Block@$$CBV?$Block@$$CBV?$Matrix@M$03$03$0A@$03$03@Eigen@@$02$02$0A@@Eigen@@$00$02$0A@@2@@Z
	??0?$evaluator@$$CBV?$Block@$$CBV?$Block@$$CBV?$Matrix@M$03$03$0A@$03$03@Eigen@@$02$02$0A@@Eigen@@$02$00$00@Eigen@@@internal@Eigen@@QEAA@AEBV?$Block@$$CBV?$Block@$$CBV?$Matrix@M$03$03$0A@$03$03@Eigen@@$02$02$0A@@Eigen@@$02$00$00@2@@Z
	??0?$evaluator@$$CBV?$Block@$$CBV?$Block@V?$Matrix@M$03$03$0A@$03$03@Eigen@@$02$02$0A@@Eigen@@$00$02$0A@@Eigen@@@internal@Eigen@@QEAA@AEBV?$Block@$$CBV?$Block@V?$Matrix@M$03$03$0A@$03$03@Eigen@@$02$02$0A@@Eigen@@$00$02$0A@@2@@Z
	??0?$evaluator@$$CBV?$Block@$$CBV?$CwiseUnaryOp@U?$scalar_opposite_op@M@internal@Eigen@@$$CBV?$Matrix@M$02$00$0A@$02$00@3@@Eigen@@$02$00$00@Eigen@@@internal@Eigen@@QEAA@AEBV?$Block@$$CBV?$CwiseUnaryOp@U?$scalar_opposite_op@M@internal@Eigen@@$$CBV?$Matrix@M$02$00$0A@$02$00@3@@Eigen@@$02$00$00@2@@Z
	??0?$evaluator@$$CBV?$Block@$$CBV?$Matrix@M$02$00$0A@$02$00@Eigen@@$02$00$00@Eigen@@@internal@Eigen@@QEAA@AEBV?$Block@$$CBV?$Matrix@M$02$00$0A@$02$00@Eigen@@$02$00$00@2@@Z
	??0?$evaluator@$$CBV?$Block@$$CBV?$Matrix@M$02$02$0A@$02$02@Eigen@@$02$00$00@Eigen@@@internal@Eigen@@QEAA@AEBV?$Block@$$CBV?$Matrix@M$02$02$0A@$02$02@Eigen@@$02$00$00@2@@Z
	??0?$evaluator@$$CBV?$Block@$$CBV?$Matrix@M$03$03$0A@$03$03@Eigen@@$02$00$00@Eigen@@@internal@Eigen@@QEAA@AEBV?$Block@$$CBV?$Matrix@M$03$03$0A@$03$03@Eigen@@$02$00$00@2@@Z
	??0?$evaluator@$$CBV?$Block@V?$Matrix@M$02$00$0A@$02$00@Eigen@@$0?0$00$0A@@Eigen@@@internal@Eigen@@QEAA@AEBV?$Block@V?$Matrix@M$02$00$0A@$02$00@Eigen@@$0?0$00$0A@@2@@Z
	??0?$evaluator@$$CBV?$CwiseBinaryOp@U?$scalar_difference_op@MM@internal@Eigen@@$$CBV?$Matrix@M$02$00$0A@$02$00@3@$$CBV43@@Eigen@@@internal@Eigen@@QEAA@AEBV?$CwiseBinaryOp@U?$scalar_difference_op@MM@internal@Eigen@@$$CBV?$Matrix@M$02$00$0A@$02$00@3@$$CBV43@@2@@Z
	??0?$evaluator@$$CBV?$CwiseBinaryOp@U?$scalar_product_op@MM@internal@Eigen@@$$CBV?$CwiseNullaryOp@U?$scalar_constant_op@M@internal@Eigen@@$$CBV?$Matrix@M$02$00$0A@$02$00@3@@3@$$CBV?$Matrix@M$02$00$0A@$02$00@3@@Eigen@@@internal@Eigen@@QEAA@AEBV?$CwiseBinaryOp@U?$scalar_product_op@MM@internal@Eigen@@$$CBV?$CwiseNullaryOp@U?$scalar_constant_op@M@internal@Eigen@@$$CBV?$Matrix@M$02$00$0A@$02$00@3@@3@$$CBV?$Matrix@M$02$00$0A@$02$00@3@@2@@Z
	??0?$evaluator@$$CBV?$CwiseBinaryOp@U?$scalar_sum_op@MM@internal@Eigen@@$$CBV?$Matrix@M$02$00$0A@$02$00@3@$$CBV?$CwiseBinaryOp@U?$scalar_product_op@MM@internal@Eigen@@$$CBV?$CwiseNullaryOp@U?$scalar_constant_op@M@internal@Eigen@@$$CBV?$Matrix@M$02$00$0A@$02$00@3@@3@$$CBV?$Matrix@M$02$00$0A@$02$00@3@@3@@Eigen@@@internal@Eigen@@QEAA@AEBV?$CwiseBinaryOp@U?$scalar_sum_op@MM@internal@Eigen@@$$CBV?$Matrix@M$02$00$0A@$02$00@3@$$CBV?$CwiseBinaryOp@U?$scalar_product_op@MM@internal@Eigen@@$$CBV?$CwiseNullaryOp@U?$scalar_constant_op@M@internal@Eigen@@$$CBV?$Matrix@M$02$00$0A@$02$00@3@@3@$$CBV?$Matrix@M$02$00$0A@$02$00@3@@3@@2@@Z
	??0?$evaluator@$$CBV?$CwiseNullaryOp@U?$scalar_constant_op@M@internal@Eigen@@$$CBV?$Array@M$02$00$0A@$02$00@3@@Eigen@@@internal@Eigen@@QEAA@AEBV?$CwiseNullaryOp@U?$scalar_constant_op@M@internal@Eigen@@$$CBV?$Array@M$02$00$0A@$02$00@3@@2@@Z
	??0?$evaluator@$$CBV?$CwiseNullaryOp@U?$scalar_constant_op@M@internal@Eigen@@$$CBV?$Matrix@M$02$00$0A@$02$00@3@@Eigen@@@internal@Eigen@@QEAA@AEBV?$CwiseNullaryOp@U?$scalar_constant_op@M@internal@Eigen@@$$CBV?$Matrix@M$02$00$0A@$02$00@3@@2@@Z
	??0?$evaluator@$$CBV?$CwiseNullaryOp@U?$scalar_constant_op@M@internal@Eigen@@$$CBV?$Matrix@M$03$00$0A@$03$00@3@@Eigen@@@internal@Eigen@@QEAA@AEBV?$CwiseNullaryOp@U?$scalar_constant_op@M@internal@Eigen@@$$CBV?$Matrix@M$03$00$0A@$03$00@3@@2@@Z
	??0?$evaluator@$$CBV?$CwiseNullaryOp@U?$scalar_identity_op@M@internal@Eigen@@V?$Matrix@M$02$02$0A@$02$02@3@@Eigen@@@internal@Eigen@@QEAA@AEBV?$CwiseNullaryOp@U?$scalar_identity_op@M@internal@Eigen@@V?$Matrix@M$02$02$0A@$02$02@3@@2@@Z
	??0?$evaluator@$$CBV?$CwiseNullaryOp@U?$scalar_identity_op@M@internal@Eigen@@V?$Matrix@M$03$03$0A@$03$03@3@@Eigen@@@internal@Eigen@@QEAA@AEBV?$CwiseNullaryOp@U?$scalar_identity_op@M@internal@Eigen@@V?$Matrix@M$03$03$0A@$03$03@3@@2@@Z
	??0?$evaluator@$$CBV?$CwiseUnaryOp@U?$scalar_opposite_op@M@internal@Eigen@@$$CBV?$Matrix@M$02$00$0A@$02$00@3@@Eigen@@@internal@Eigen@@QEAA@AEBV?$CwiseUnaryOp@U?$scalar_opposite_op@M@internal@Eigen@@$$CBV?$Matrix@M$02$00$0A@$02$00@3@@2@@Z
	??0?$evaluator@$$CBV?$Matrix@M$01$00$0A@$01$00@Eigen@@@internal@Eigen@@QEAA@AEBV?$Matrix@M$01$00$0A@$01$00@2@@Z
	??0?$evaluator@$$CBV?$Matrix@M$02$00$0A@$02$00@Eigen@@@internal@Eigen@@QEAA@AEBV?$Matrix@M$02$00$0A@$02$00@2@@Z
	??0?$evaluator@$$CBV?$Matrix@M$03$00$0A@$03$00@Eigen@@@internal@Eigen@@QEAA@AEBV?$Matrix@M$03$00$0A@$03$00@2@@Z
	??0?$evaluator@$$CBV?$Matrix@M$03$03$0A@$03$03@Eigen@@@internal@Eigen@@QEAA@AEBV?$Matrix@M$03$03$0A@$03$03@2@@Z
	??0?$evaluator@$$CBV?$Product@V?$Block@$$CBV?$Matrix@M$03$03$0A@$03$03@Eigen@@$02$02$0A@@Eigen@@V?$Block@$$CBV?$Matrix@M$03$03$0A@$03$03@Eigen@@$02$00$00@2@$0A@@Eigen@@@internal@Eigen@@QEAA@AEBV?$Product@V?$Block@$$CBV?$Matrix@M$03$03$0A@$03$03@Eigen@@$02$02$0A@@Eigen@@V?$Block@$$CBV?$Matrix@M$03$03$0A@$03$03@Eigen@@$02$00$00@2@$0A@@2@@Z
	??0?$evaluator@$$CBV?$Transpose@$$CBV?$Block@$$CBV?$Block@$$CBV?$Matrix@M$03$03$0A@$03$03@Eigen@@$02$02$0A@@Eigen@@$00$02$0A@@Eigen@@@Eigen@@@internal@Eigen@@QEAA@AEBV?$Transpose@$$CBV?$Block@$$CBV?$Block@$$CBV?$Matrix@M$03$03$0A@$03$03@Eigen@@$02$02$0A@@Eigen@@$00$02$0A@@Eigen@@@2@@Z
	??0?$evaluator@$$CBV?$Transpose@$$CBV?$Block@$$CBV?$Block@V?$Matrix@M$03$03$0A@$03$03@Eigen@@$02$02$0A@@Eigen@@$00$02$0A@@Eigen@@@Eigen@@@internal@Eigen@@QEAA@AEBV?$Transpose@$$CBV?$Block@$$CBV?$Block@V?$Matrix@M$03$03$0A@$03$03@Eigen@@$02$02$0A@@Eigen@@$00$02$0A@@Eigen@@@2@@Z
	??0?$evaluator@V?$ArrayWrapper@$$CBV?$CwiseBinaryOp@U?$scalar_product_op@MM@internal@Eigen@@$$CBV?$Matrix@M$02$00$0A@$02$00@3@$$CBV43@@Eigen@@@Eigen@@@internal@Eigen@@QEAA@AEBV?$ArrayWrapper@$$CBV?$CwiseBinaryOp@U?$scalar_product_op@MM@internal@Eigen@@$$CBV?$Matrix@M$02$00$0A@$02$00@3@$$CBV43@@Eigen@@@2@@Z
	??0?$evaluator@V?$Block@$$CBV?$Block@$$CBV?$Matrix@M$03$03$0A@$03$03@Eigen@@$02$00$00@Eigen@@$02$00$00@Eigen@@@internal@Eigen@@QEAA@AEBV?$Block@$$CBV?$Block@$$CBV?$Matrix@M$03$03$0A@$03$03@Eigen@@$02$00$00@Eigen@@$02$00$00@2@@Z
	??0?$evaluator@V?$Block@$$CBV?$Block@$$CBV?$Matrix@M$03$03$0A@$03$03@Eigen@@$02$02$0A@@Eigen@@$00$02$0A@@Eigen@@@internal@Eigen@@QEAA@AEBV?$Block@$$CBV?$Block@$$CBV?$Matrix@M$03$03$0A@$03$03@Eigen@@$02$02$0A@@Eigen@@$00$02$0A@@2@@Z
	??0?$evaluator@V?$Block@$$CBV?$Block@$$CBV?$Matrix@M$03$03$0A@$03$03@Eigen@@$02$02$0A@@Eigen@@$02$00$00@Eigen@@@internal@Eigen@@QEAA@AEBV?$Block@$$CBV?$Block@$$CBV?$Matrix@M$03$03$0A@$03$03@Eigen@@$02$02$0A@@Eigen@@$02$00$00@2@@Z
	??0?$evaluator@V?$Block@$$CBV?$Block@V?$Matrix@M$03$03$0A@$03$03@Eigen@@$02$02$0A@@Eigen@@$00$02$0A@@Eigen@@@internal@Eigen@@QEAA@AEBV?$Block@$$CBV?$Block@V?$Matrix@M$03$03$0A@$03$03@Eigen@@$02$02$0A@@Eigen@@$00$02$0A@@2@@Z
	??0?$evaluator@V?$Block@$$CBV?$CwiseNullaryOp@U?$scalar_identity_op@M@internal@Eigen@@V?$Matrix@M$02$02$0A@$02$02@3@@Eigen@@$02$00$0A@@Eigen@@@internal@Eigen@@QEAA@AEBV?$Block@$$CBV?$CwiseNullaryOp@U?$scalar_identity_op@M@internal@Eigen@@V?$Matrix@M$02$02$0A@$02$02@3@@Eigen@@$02$00$0A@@2@@Z
	??0?$evaluator@V?$Block@$$CBV?$CwiseUnaryOp@U?$scalar_opposite_op@M@internal@Eigen@@$$CBV?$Matrix@M$02$00$0A@$02$00@3@@Eigen@@$02$00$00@Eigen@@@internal@Eigen@@QEAA@AEBV?$Block@$$CBV?$CwiseUnaryOp@U?$scalar_opposite_op@M@internal@Eigen@@$$CBV?$Matrix@M$02$00$0A@$02$00@3@@Eigen@@$02$00$00@2@@Z
	??0?$evaluator@V?$Block@$$CBV?$Matrix@M$02$00$0A@$02$00@Eigen@@$02$00$00@Eigen@@@internal@Eigen@@QEAA@AEBV?$Block@$$CBV?$Matrix@M$02$00$0A@$02$00@Eigen@@$02$00$00@2@@Z
	??0?$evaluator@V?$Block@$$CBV?$Matrix@M$02$02$0A@$02$02@Eigen@@$02$00$00@Eigen@@@internal@Eigen@@QEAA@AEBV?$Block@$$CBV?$Matrix@M$02$02$0A@$02$02@Eigen@@$02$00$00@2@@Z
	??0?$evaluator@V?$Block@$$CBV?$Matrix@M$03$03$0A@$03$03@Eigen@@$02$00$00@Eigen@@@internal@Eigen@@QEAA@AEBV?$Block@$$CBV?$Matrix@M$03$03$0A@$03$03@Eigen@@$02$00$00@2@@Z
	??0?$evaluator@V?$Block@$$CBV?$Matrix@M$03$03$0A@$03$03@Eigen@@$02$02$0A@@Eigen@@@internal@Eigen@@QEAA@AEBV?$Block@$$CBV?$Matrix@M$03$03$0A@$03$03@Eigen@@$02$02$0A@@2@@Z
	??0?$evaluator@V?$Block@V?$Matrix@M$02$00$0A@$02$00@Eigen@@$0?0$00$0A@@Eigen@@@internal@Eigen@@QEAA@AEBV?$Block@V?$Matrix@M$02$00$0A@$02$00@Eigen@@$0?0$00$0A@@2@@Z
	??0?$evaluator@V?$Block@V?$Matrix@M$03$00$0A@$03$00@Eigen@@$02$00$0A@@Eigen@@@internal@Eigen@@QEAA@AEBV?$Block@V?$Matrix@M$03$00$0A@$03$00@Eigen@@$02$00$0A@@2@@Z
	??0?$evaluator@V?$Block@V?$Matrix@M$03$03$0A@$03$03@Eigen@@$00$02$0A@@Eigen@@@internal@Eigen@@QEAA@AEBV?$Block@V?$Matrix@M$03$03$0A@$03$03@Eigen@@$00$02$0A@@2@@Z
	??0?$evaluator@V?$Block@V?$Matrix@M$03$03$0A@$03$03@Eigen@@$02$00$00@Eigen@@@internal@Eigen@@QEAA@AEBV?$Block@V?$Matrix@M$03$03$0A@$03$03@Eigen@@$02$00$00@2@@Z
	??0?$evaluator@V?$Block@V?$Matrix@M$03$03$0A@$03$03@Eigen@@$02$00$0A@@Eigen@@@internal@Eigen@@QEAA@AEBV?$Block@V?$Matrix@M$03$03$0A@$03$03@Eigen@@$02$00$0A@@2@@Z
	??0?$evaluator@V?$Block@V?$Matrix@M$03$03$0A@$03$03@Eigen@@$02$02$0A@@Eigen@@@internal@Eigen@@QEAA@AEBV?$Block@V?$Matrix@M$03$03$0A@$03$03@Eigen@@$02$02$0A@@2@@Z
	??0?$evaluator@V?$CwiseBinaryOp@U?$not_equal_to@M@std@@$$CBV?$Matrix@M$01$00$0A@$01$00@Eigen@@$$CBV?$Block@V?$Matrix@M$02$00$0A@$02$00@Eigen@@$0?0$00$0A@@4@@Eigen@@@internal@Eigen@@QEAA@AEBV?$CwiseBinaryOp@U?$not_equal_to@M@std@@$$CBV?$Matrix@M$01$00$0A@$01$00@Eigen@@$$CBV?$Block@V?$Matrix@M$02$00$0A@$02$00@Eigen@@$0?0$00$0A@@4@@2@@Z
	??0?$evaluator@V?$CwiseBinaryOp@U?$not_equal_to@M@std@@$$CBV?$Matrix@M$03$03$0A@$03$03@Eigen@@$$CBV?$CwiseNullaryOp@U?$scalar_identity_op@M@internal@Eigen@@V?$Matrix@M$03$03$0A@$03$03@3@@4@@Eigen@@@internal@Eigen@@QEAA@AEBV?$CwiseBinaryOp@U?$not_equal_to@M@std@@$$CBV?$Matrix@M$03$03$0A@$03$03@Eigen@@$$CBV?$CwiseNullaryOp@U?$scalar_identity_op@M@internal@Eigen@@V?$Matrix@M$03$03$0A@$03$03@3@@4@@2@@Z
	??0?$evaluator@V?$CwiseBinaryOp@U?$scalar_conj_product_op@MM@internal@Eigen@@$$CBV?$Matrix@M$02$00$0A@$02$00@3@$$CBV43@@Eigen@@@internal@Eigen@@QEAA@AEBV?$CwiseBinaryOp@U?$scalar_conj_product_op@MM@internal@Eigen@@$$CBV?$Matrix@M$02$00$0A@$02$00@3@$$CBV43@@2@@Z
	??0?$evaluator@V?$CwiseBinaryOp@U?$scalar_difference_op@MM@internal@Eigen@@$$CBV?$Matrix@M$01$00$0A@$01$00@3@$$CBV43@@Eigen@@@internal@Eigen@@QEAA@AEBV?$CwiseBinaryOp@U?$scalar_difference_op@MM@internal@Eigen@@$$CBV?$Matrix@M$01$00$0A@$01$00@3@$$CBV43@@2@@Z
	??0?$evaluator@V?$CwiseBinaryOp@U?$scalar_difference_op@MM@internal@Eigen@@$$CBV?$Matrix@M$02$00$0A@$02$00@3@$$CBV43@@Eigen@@@internal@Eigen@@QEAA@AEBV?$CwiseBinaryOp@U?$scalar_difference_op@MM@internal@Eigen@@$$CBV?$Matrix@M$02$00$0A@$02$00@3@$$CBV43@@2@@Z
	??0?$evaluator@V?$CwiseBinaryOp@U?$scalar_product_op@MM@internal@Eigen@@$$CBV?$CwiseNullaryOp@U?$scalar_constant_op@M@internal@Eigen@@$$CBV?$Matrix@M$02$00$0A@$02$00@3@@3@$$CBV?$Matrix@M$02$00$0A@$02$00@3@@Eigen@@@internal@Eigen@@QEAA@AEBV?$CwiseBinaryOp@U?$scalar_product_op@MM@internal@Eigen@@$$CBV?$CwiseNullaryOp@U?$scalar_constant_op@M@internal@Eigen@@$$CBV?$Matrix@M$02$00$0A@$02$00@3@@3@$$CBV?$Matrix@M$02$00$0A@$02$00@3@@2@@Z
	??0?$evaluator@V?$CwiseBinaryOp@U?$scalar_product_op@MM@internal@Eigen@@$$CBV?$Matrix@M$02$00$0A@$02$00@3@$$CBV43@@Eigen@@@internal@Eigen@@QEAA@AEBV?$CwiseBinaryOp@U?$scalar_product_op@MM@internal@Eigen@@$$CBV?$Matrix@M$02$00$0A@$02$00@3@$$CBV43@@2@@Z
	??0?$evaluator@V?$CwiseBinaryOp@U?$scalar_product_op@MM@internal@Eigen@@$$CBV?$Matrix@M$02$00$0A@$02$00@3@$$CBV?$CwiseNullaryOp@U?$scalar_constant_op@M@internal@Eigen@@$$CBV?$Matrix@M$02$00$0A@$02$00@3@@3@@Eigen@@@internal@Eigen@@QEAA@AEBV?$CwiseBinaryOp@U?$scalar_product_op@MM@internal@Eigen@@$$CBV?$Matrix@M$02$00$0A@$02$00@3@$$CBV?$CwiseNullaryOp@U?$scalar_constant_op@M@internal@Eigen@@$$CBV?$Matrix@M$02$00$0A@$02$00@3@@3@@2@@Z
	??0?$evaluator@V?$CwiseBinaryOp@U?$scalar_product_op@MM@internal@Eigen@@$$CBV?$Transpose@$$CBV?$Block@$$CBV?$Block@$$CBV?$Matrix@M$03$03$0A@$03$03@Eigen@@$02$02$0A@@Eigen@@$00$02$0A@@Eigen@@@3@$$CBV?$Block@$$CBV?$Block@$$CBV?$Matrix@M$03$03$0A@$03$03@Eigen@@$02$00$00@Eigen@@$02$00$00@3@@Eigen@@@internal@Eigen@@QEAA@AEBV?$CwiseBinaryOp@U?$scalar_product_op@MM@internal@Eigen@@$$CBV?$Transpose@$$CBV?$Block@$$CBV?$Block@$$CBV?$Matrix@M$03$03$0A@$03$03@Eigen@@$02$02$0A@@Eigen@@$00$02$0A@@Eigen@@@3@$$CBV?$Block@$$CBV?$Block@$$CBV?$Matrix@M$03$03$0A@$03$03@Eigen@@$02$00$00@Eigen@@$02$00$00@3@@2@@Z
	??0?$evaluator@V?$CwiseBinaryOp@U?$scalar_product_op@MM@internal@Eigen@@$$CBV?$Transpose@$$CBV?$Block@$$CBV?$Block@$$CBV?$Matrix@M$03$03$0A@$03$03@Eigen@@$02$02$0A@@Eigen@@$00$02$0A@@Eigen@@@3@$$CBV?$Block@$$CBV?$Block@$$CBV?$Matrix@M$03$03$0A@$03$03@Eigen@@$02$02$0A@@Eigen@@$02$00$00@3@@Eigen@@@internal@Eigen@@QEAA@AEBV?$CwiseBinaryOp@U?$scalar_product_op@MM@internal@Eigen@@$$CBV?$Transpose@$$CBV?$Block@$$CBV?$Block@$$CBV?$Matrix@M$03$03$0A@$03$03@Eigen@@$02$02$0A@@Eigen@@$00$02$0A@@Eigen@@@3@$$CBV?$Block@$$CBV?$Block@$$CBV?$Matrix@M$03$03$0A@$03$03@Eigen@@$02$02$0A@@Eigen@@$02$00$00@3@@2@@Z
	??0?$evaluator@V?$CwiseBinaryOp@U?$scalar_product_op@MM@internal@Eigen@@$$CBV?$Transpose@$$CBV?$Block@$$CBV?$Block@V?$Matrix@M$03$03$0A@$03$03@Eigen@@$02$02$0A@@Eigen@@$00$02$0A@@Eigen@@@3@$$CBV?$Block@$$CBV?$CwiseUnaryOp@U?$scalar_opposite_op@M@internal@Eigen@@$$CBV?$Matrix@M$02$00$0A@$02$00@3@@Eigen@@$02$00$00@3@@Eigen@@@internal@Eigen@@QEAA@AEBV?$CwiseBinaryOp@U?$scalar_product_op@MM@internal@Eigen@@$$CBV?$Transpose@$$CBV?$Block@$$CBV?$Block@V?$Matrix@M$03$03$0A@$03$03@Eigen@@$02$02$0A@@Eigen@@$00$02$0A@@Eigen@@@3@$$CBV?$Block@$$CBV?$CwiseUnaryOp@U?$scalar_opposite_op@M@internal@Eigen@@$$CBV?$Matrix@M$02$00$0A@$02$00@3@@Eigen@@$02$00$00@3@@2@@Z
	??0?$evaluator@V?$CwiseBinaryOp@U?$scalar_product_op@MM@internal@Eigen@@$$CBV?$Transpose@$$CBV?$Block@$$CBV?$Block@V?$Matrix@M$03$03$0A@$03$03@Eigen@@$02$02$0A@@Eigen@@$00$02$0A@@Eigen@@@3@$$CBV?$Block@$$CBV?$Matrix@M$02$00$0A@$02$00@Eigen@@$02$00$00@3@@Eigen@@@internal@Eigen@@QEAA@AEBV?$CwiseBinaryOp@U?$scalar_product_op@MM@internal@Eigen@@$$CBV?$Transpose@$$CBV?$Block@$$CBV?$Block@V?$Matrix@M$03$03$0A@$03$03@Eigen@@$02$02$0A@@Eigen@@$00$02$0A@@Eigen@@@3@$$CBV?$Block@$$CBV?$Matrix@M$02$00$0A@$02$00@Eigen@@$02$00$00@3@@2@@Z
	??0?$evaluator@V?$CwiseBinaryOp@U?$scalar_product_op@MM@internal@Eigen@@$$CBV?$Transpose@$$CBV?$Block@$$CBV?$Block@V?$Matrix@M$03$03$0A@$03$03@Eigen@@$02$02$0A@@Eigen@@$00$02$0A@@Eigen@@@3@$$CBV?$Block@$$CBV?$Matrix@M$02$02$0A@$02$02@Eigen@@$02$00$00@3@@Eigen@@@internal@Eigen@@QEAA@AEBV?$CwiseBinaryOp@U?$scalar_product_op@MM@internal@Eigen@@$$CBV?$Transpose@$$CBV?$Block@$$CBV?$Block@V?$Matrix@M$03$03$0A@$03$03@Eigen@@$02$02$0A@@Eigen@@$00$02$0A@@Eigen@@@3@$$CBV?$Block@$$CBV?$Matrix@M$02$02$0A@$02$02@Eigen@@$02$00$00@3@@2@@Z
	??0?$evaluator@V?$CwiseBinaryOp@U?$scalar_quotient_op@MM@internal@Eigen@@$$CBV?$Matrix@M$02$00$0A@$02$00@3@$$CBV?$CwiseNullaryOp@U?$scalar_constant_op@M@internal@Eigen@@$$CBV?$Matrix@M$02$00$0A@$02$00@3@@3@@Eigen@@@internal@Eigen@@QEAA@AEBV?$CwiseBinaryOp@U?$scalar_quotient_op@MM@internal@Eigen@@$$CBV?$Matrix@M$02$00$0A@$02$00@3@$$CBV?$CwiseNullaryOp@U?$scalar_constant_op@M@internal@Eigen@@$$CBV?$Matrix@M$02$00$0A@$02$00@3@@3@@2@@Z
	??0?$evaluator@V?$CwiseBinaryOp@U?$scalar_quotient_op@MM@internal@Eigen@@$$CBV?$Matrix@M$03$00$0A@$03$00@3@$$CBV?$CwiseNullaryOp@U?$scalar_constant_op@M@internal@Eigen@@$$CBV?$Matrix@M$03$00$0A@$03$00@3@@3@@Eigen@@@internal@Eigen@@QEAA@AEBV?$CwiseBinaryOp@U?$scalar_quotient_op@MM@internal@Eigen@@$$CBV?$Matrix@M$03$00$0A@$03$00@3@$$CBV?$CwiseNullaryOp@U?$scalar_constant_op@M@internal@Eigen@@$$CBV?$Matrix@M$03$00$0A@$03$00@3@@3@@2@@Z
	??0?$evaluator@V?$CwiseBinaryOp@U?$scalar_sum_op@MM@internal@Eigen@@$$CBV?$ArrayWrapper@$$CBV?$CwiseBinaryOp@U?$scalar_product_op@MM@internal@Eigen@@$$CBV?$Matrix@M$02$00$0A@$02$00@3@$$CBV43@@Eigen@@@3@$$CBV?$CwiseNullaryOp@U?$scalar_constant_op@M@internal@Eigen@@$$CBV?$Array@M$02$00$0A@$02$00@3@@3@@Eigen@@@internal@Eigen@@QEAA@AEBV?$CwiseBinaryOp@U?$scalar_sum_op@MM@internal@Eigen@@$$CBV?$ArrayWrapper@$$CBV?$CwiseBinaryOp@U?$scalar_product_op@MM@internal@Eigen@@$$CBV?$Matrix@M$02$00$0A@$02$00@3@$$CBV43@@Eigen@@@3@$$CBV?$CwiseNullaryOp@U?$scalar_constant_op@M@internal@Eigen@@$$CBV?$Array@M$02$00$0A@$02$00@3@@3@@2@@Z
	??0?$evaluator@V?$CwiseBinaryOp@U?$scalar_sum_op@MM@internal@Eigen@@$$CBV?$CwiseBinaryOp@U?$scalar_sum_op@MM@internal@Eigen@@$$CBV?$Matrix@M$02$00$0A@$02$00@3@$$CBV?$CwiseBinaryOp@U?$scalar_product_op@MM@internal@Eigen@@$$CBV?$CwiseNullaryOp@U?$scalar_constant_op@M@internal@Eigen@@$$CBV?$Matrix@M$02$00$0A@$02$00@3@@3@$$CBV?$Matrix@M$02$00$0A@$02$00@3@@3@@3@$$CBV?$Matrix@M$02$00$0A@$02$00@3@@Eigen@@@internal@Eigen@@QEAA@AEBV?$CwiseBinaryOp@U?$scalar_sum_op@MM@internal@Eigen@@$$CBV?$CwiseBinaryOp@U?$scalar_sum_op@MM@internal@Eigen@@$$CBV?$Matrix@M$02$00$0A@$02$00@3@$$CBV?$CwiseBinaryOp@U?$scalar_product_op@MM@internal@Eigen@@$$CBV?$CwiseNullaryOp@U?$scalar_constant_op@M@internal@Eigen@@$$CBV?$Matrix@M$02$00$0A@$02$00@3@@3@$$CBV?$Matrix@M$02$00$0A@$02$00@3@@3@@3@$$CBV?$Matrix@M$02$00$0A@$02$00@3@@2@@Z
	??0?$evaluator@V?$CwiseBinaryOp@U?$scalar_sum_op@MM@internal@Eigen@@$$CBV?$Matrix@M$02$00$0A@$02$00@3@$$CBV43@@Eigen@@@internal@Eigen@@QEAA@AEBV?$CwiseBinaryOp@U?$scalar_sum_op@MM@internal@Eigen@@$$CBV?$Matrix@M$02$00$0A@$02$00@3@$$CBV43@@2@@Z
	??0?$evaluator@V?$CwiseBinaryOp@U?$scalar_sum_op@MM@internal@Eigen@@$$CBV?$Matrix@M$02$00$0A@$02$00@3@$$CBV?$CwiseBinaryOp@U?$scalar_product_op@MM@internal@Eigen@@$$CBV?$CwiseNullaryOp@U?$scalar_constant_op@M@internal@Eigen@@$$CBV?$Matrix@M$02$00$0A@$02$00@3@@3@$$CBV?$Matrix@M$02$00$0A@$02$00@3@@3@@Eigen@@@internal@Eigen@@QEAA@AEBV?$CwiseBinaryOp@U?$scalar_sum_op@MM@internal@Eigen@@$$CBV?$Matrix@M$02$00$0A@$02$00@3@$$CBV?$CwiseBinaryOp@U?$scalar_product_op@MM@internal@Eigen@@$$CBV?$CwiseNullaryOp@U?$scalar_constant_op@M@internal@Eigen@@$$CBV?$Matrix@M$02$00$0A@$02$00@3@@3@$$CBV?$Matrix@M$02$00$0A@$02$00@3@@3@@2@@Z
	??0?$evaluator@V?$CwiseBinaryOp@U?$scalar_sum_op@MM@internal@Eigen@@$$CBV?$Product@V?$Block@$$CBV?$Matrix@M$03$03$0A@$03$03@Eigen@@$02$02$0A@@Eigen@@V?$Block@$$CBV?$Matrix@M$03$03$0A@$03$03@Eigen@@$02$00$00@2@$0A@@3@$$CBV?$Block@$$CBV?$Matrix@M$03$03$0A@$03$03@Eigen@@$02$00$00@3@@Eigen@@@internal@Eigen@@QEAA@AEBV?$CwiseBinaryOp@U?$scalar_sum_op@MM@internal@Eigen@@$$CBV?$Product@V?$Block@$$CBV?$Matrix@M$03$03$0A@$03$03@Eigen@@$02$02$0A@@Eigen@@V?$Block@$$CBV?$Matrix@M$03$03$0A@$03$03@Eigen@@$02$00$00@2@$0A@@3@$$CBV?$Block@$$CBV?$Matrix@M$03$03$0A@$03$03@Eigen@@$02$00$00@3@@2@@Z
	??0?$evaluator@V?$CwiseNullaryOp@U?$scalar_constant_op@H@internal@Eigen@@V?$Matrix@H$01$00$0A@$01$00@3@@Eigen@@@internal@Eigen@@QEAA@AEBV?$CwiseNullaryOp@U?$scalar_constant_op@H@internal@Eigen@@V?$Matrix@H$01$00$0A@$01$00@3@@2@@Z
	??0?$evaluator@V?$CwiseNullaryOp@U?$scalar_constant_op@M@internal@Eigen@@$$CBV?$Array@M$02$00$0A@$02$00@3@@Eigen@@@internal@Eigen@@QEAA@AEBV?$CwiseNullaryOp@U?$scalar_constant_op@M@internal@Eigen@@$$CBV?$Array@M$02$00$0A@$02$00@3@@2@@Z
	??0?$evaluator@V?$CwiseNullaryOp@U?$scalar_constant_op@M@internal@Eigen@@$$CBV?$Matrix@M$02$00$0A@$02$00@3@@Eigen@@@internal@Eigen@@QEAA@AEBV?$CwiseNullaryOp@U?$scalar_constant_op@M@internal@Eigen@@$$CBV?$Matrix@M$02$00$0A@$02$00@3@@2@@Z
	??0?$evaluator@V?$CwiseNullaryOp@U?$scalar_constant_op@M@internal@Eigen@@$$CBV?$Matrix@M$03$00$0A@$03$00@3@@Eigen@@@internal@Eigen@@QEAA@AEBV?$CwiseNullaryOp@U?$scalar_constant_op@M@internal@Eigen@@$$CBV?$Matrix@M$03$00$0A@$03$00@3@@2@@Z
	??0?$evaluator@V?$CwiseNullaryOp@U?$scalar_constant_op@M@internal@Eigen@@V?$Matrix@M$00$02$00$00$02@3@@Eigen@@@internal@Eigen@@QEAA@AEBV?$CwiseNullaryOp@U?$scalar_constant_op@M@internal@Eigen@@V?$Matrix@M$00$02$00$00$02@3@@2@@Z
	??0?$evaluator@V?$CwiseNullaryOp@U?$scalar_constant_op@M@internal@Eigen@@V?$Matrix@M$02$00$0A@$02$00@3@@Eigen@@@internal@Eigen@@QEAA@AEBV?$CwiseNullaryOp@U?$scalar_constant_op@M@internal@Eigen@@V?$Matrix@M$02$00$0A@$02$00@3@@2@@Z
	??0?$evaluator@V?$CwiseNullaryOp@U?$scalar_constant_op@M@internal@Eigen@@V?$Matrix@M$02$02$0A@$02$02@3@@Eigen@@@internal@Eigen@@QEAA@AEBV?$CwiseNullaryOp@U?$scalar_constant_op@M@internal@Eigen@@V?$Matrix@M$02$02$0A@$02$02@3@@2@@Z
	??0?$evaluator@V?$CwiseNullaryOp@U?$scalar_constant_op@M@internal@Eigen@@V?$Matrix@M$03$00$0A@$03$00@3@@Eigen@@@internal@Eigen@@QEAA@AEBV?$CwiseNullaryOp@U?$scalar_constant_op@M@internal@Eigen@@V?$Matrix@M$03$00$0A@$03$00@3@@2@@Z
	??0?$evaluator@V?$CwiseNullaryOp@U?$scalar_constant_op@M@internal@Eigen@@V?$Matrix@M$03$03$0A@$03$03@3@@Eigen@@@internal@Eigen@@QEAA@AEBV?$CwiseNullaryOp@U?$scalar_constant_op@M@internal@Eigen@@V?$Matrix@M$03$03$0A@$03$03@3@@2@@Z
	??0?$evaluator@V?$CwiseNullaryOp@U?$scalar_identity_op@M@internal@Eigen@@V?$Matrix@M$02$02$0A@$02$02@3@@Eigen@@@internal@Eigen@@QEAA@AEBV?$CwiseNullaryOp@U?$scalar_identity_op@M@internal@Eigen@@V?$Matrix@M$02$02$0A@$02$02@3@@2@@Z
	??0?$evaluator@V?$CwiseNullaryOp@U?$scalar_identity_op@M@internal@Eigen@@V?$Matrix@M$03$03$0A@$03$03@3@@Eigen@@@internal@Eigen@@QEAA@AEBV?$CwiseNullaryOp@U?$scalar_identity_op@M@internal@Eigen@@V?$Matrix@M$03$03$0A@$03$03@3@@2@@Z
	??0?$evaluator@V?$CwiseUnaryOp@U?$scalar_abs2_op@M@internal@Eigen@@$$CBV?$CwiseBinaryOp@U?$scalar_difference_op@MM@internal@Eigen@@$$CBV?$Matrix@M$02$00$0A@$02$00@3@$$CBV43@@3@@Eigen@@@internal@Eigen@@QEAA@AEBV?$CwiseUnaryOp@U?$scalar_abs2_op@M@internal@Eigen@@$$CBV?$CwiseBinaryOp@U?$scalar_difference_op@MM@internal@Eigen@@$$CBV?$Matrix@M$02$00$0A@$02$00@3@$$CBV43@@3@@2@@Z
	??0?$evaluator@V?$CwiseUnaryOp@U?$scalar_abs2_op@M@internal@Eigen@@$$CBV?$Matrix@M$02$00$0A@$02$00@3@@Eigen@@@internal@Eigen@@QEAA@AEBV?$CwiseUnaryOp@U?$scalar_abs2_op@M@internal@Eigen@@$$CBV?$Matrix@M$02$00$0A@$02$00@3@@2@@Z
	??0?$evaluator@V?$CwiseUnaryOp@U?$scalar_abs2_op@M@internal@Eigen@@$$CBV?$Matrix@M$03$00$0A@$03$00@3@@Eigen@@@internal@Eigen@@QEAA@AEBV?$CwiseUnaryOp@U?$scalar_abs2_op@M@internal@Eigen@@$$CBV?$Matrix@M$03$00$0A@$03$00@3@@2@@Z
	??0?$evaluator@V?$CwiseUnaryOp@U?$scalar_opposite_op@M@internal@Eigen@@$$CBV?$Matrix@M$02$00$0A@$02$00@3@@Eigen@@@internal@Eigen@@QEAA@AEBV?$CwiseUnaryOp@U?$scalar_opposite_op@M@internal@Eigen@@$$CBV?$Matrix@M$02$00$0A@$02$00@3@@2@@Z
	??0?$evaluator@V?$Diagonal@V?$Matrix@M$02$02$0A@$02$02@Eigen@@$0A@@Eigen@@@internal@Eigen@@QEAA@AEBV?$Diagonal@V?$Matrix@M$02$02$0A@$02$02@Eigen@@$0A@@2@@Z
	??0?$evaluator@V?$Matrix@H$01$00$0A@$01$00@Eigen@@@internal@Eigen@@QEAA@AEBV?$Matrix@H$01$00$0A@$01$00@2@@Z
	??0?$evaluator@V?$Matrix@M$01$00$0A@$01$00@Eigen@@@internal@Eigen@@QEAA@AEBV?$Matrix@M$01$00$0A@$01$00@2@@Z
	??0?$evaluator@V?$Matrix@M$02$00$0A@$02$00@Eigen@@@internal@Eigen@@QEAA@AEBV?$Matrix@M$02$00$0A@$02$00@2@@Z
	??0?$evaluator@V?$Matrix@M$02$00$0A@$02$00@Eigen@@@internal@Eigen@@QEAA@XZ
	??0?$evaluator@V?$Matrix@M$02$02$0A@$02$02@Eigen@@@internal@Eigen@@QEAA@AEBV?$Matrix@M$02$02$0A@$02$02@2@@Z
	??0?$evaluator@V?$Matrix@M$03$00$0A@$03$00@Eigen@@@internal@Eigen@@QEAA@AEBV?$Matrix@M$03$00$0A@$03$00@2@@Z
	??0?$evaluator@V?$Matrix@M$03$03$0A@$03$03@Eigen@@@internal@Eigen@@QEAA@AEBV?$Matrix@M$03$03$0A@$03$03@2@@Z
	??0?$evaluator@V?$PlainObjectBase@V?$Matrix@H$01$00$0A@$01$00@Eigen@@@Eigen@@@internal@Eigen@@QEAA@AEBV?$PlainObjectBase@V?$Matrix@H$01$00$0A@$01$00@Eigen@@@2@@Z
	??0?$evaluator@V?$PlainObjectBase@V?$Matrix@M$01$00$0A@$01$00@Eigen@@@Eigen@@@internal@Eigen@@QEAA@AEBV?$PlainObjectBase@V?$Matrix@M$01$00$0A@$01$00@Eigen@@@2@@Z
	??0?$evaluator@V?$PlainObjectBase@V?$Matrix@M$02$00$0A@$02$00@Eigen@@@Eigen@@@internal@Eigen@@QEAA@AEBV?$PlainObjectBase@V?$Matrix@M$02$00$0A@$02$00@Eigen@@@2@@Z
	??0?$evaluator@V?$PlainObjectBase@V?$Matrix@M$02$00$0A@$02$00@Eigen@@@Eigen@@@internal@Eigen@@QEAA@XZ
	??0?$evaluator@V?$PlainObjectBase@V?$Matrix@M$02$02$0A@$02$02@Eigen@@@Eigen@@@internal@Eigen@@QEAA@AEBV?$PlainObjectBase@V?$Matrix@M$02$02$0A@$02$02@Eigen@@@2@@Z
	??0?$evaluator@V?$PlainObjectBase@V?$Matrix@M$03$00$0A@$03$00@Eigen@@@Eigen@@@internal@Eigen@@QEAA@AEBV?$PlainObjectBase@V?$Matrix@M$03$00$0A@$03$00@Eigen@@@2@@Z
	??0?$evaluator@V?$PlainObjectBase@V?$Matrix@M$03$03$0A@$03$03@Eigen@@@Eigen@@@internal@Eigen@@QEAA@AEBV?$PlainObjectBase@V?$Matrix@M$03$03$0A@$03$03@Eigen@@@2@@Z
	??0?$evaluator@V?$Product@V?$Block@$$CBV?$Matrix@M$03$03$0A@$03$03@Eigen@@$02$02$0A@@Eigen@@V12@$00@Eigen@@@internal@Eigen@@QEAA@AEBV?$Product@V?$Block@$$CBV?$Matrix@M$03$03$0A@$03$03@Eigen@@$02$02$0A@@Eigen@@V12@$00@2@@Z
	??0?$evaluator@V?$Product@V?$Block@$$CBV?$Matrix@M$03$03$0A@$03$03@Eigen@@$02$02$0A@@Eigen@@V?$Block@$$CBV?$Matrix@M$03$03$0A@$03$03@Eigen@@$02$00$00@2@$00@Eigen@@@internal@Eigen@@QEAA@AEBV?$Product@V?$Block@$$CBV?$Matrix@M$03$03$0A@$03$03@Eigen@@$02$02$0A@@Eigen@@V?$Block@$$CBV?$Matrix@M$03$03$0A@$03$03@Eigen@@$02$00$00@2@$00@2@@Z
	??0?$evaluator@V?$Product@V?$Block@$$CBV?$Matrix@M$03$03$0A@$03$03@Eigen@@$02$02$0A@@Eigen@@V?$Block@$$CBV?$Matrix@M$03$03$0A@$03$03@Eigen@@$02$00$00@2@$0A@@Eigen@@@internal@Eigen@@QEAA@AEBV?$Product@V?$Block@$$CBV?$Matrix@M$03$03$0A@$03$03@Eigen@@$02$02$0A@@Eigen@@V?$Block@$$CBV?$Matrix@M$03$03$0A@$03$03@Eigen@@$02$00$00@2@$0A@@2@@Z
	??0?$evaluator@V?$Product@V?$Block@V?$Matrix@M$03$03$0A@$03$03@Eigen@@$02$02$0A@@Eigen@@V?$CwiseUnaryOp@U?$scalar_opposite_op@M@internal@Eigen@@$$CBV?$Matrix@M$02$00$0A@$02$00@3@@2@$00@Eigen@@@internal@Eigen@@QEAA@AEBV?$Product@V?$Block@V?$Matrix@M$03$03$0A@$03$03@Eigen@@$02$02$0A@@Eigen@@V?$CwiseUnaryOp@U?$scalar_opposite_op@M@internal@Eigen@@$$CBV?$Matrix@M$02$00$0A@$02$00@3@@2@$00@2@@Z
	??0?$evaluator@V?$Product@V?$Block@V?$Matrix@M$03$03$0A@$03$03@Eigen@@$02$02$0A@@Eigen@@V?$DiagonalWrapper@$$CBV?$Matrix@M$02$00$0A@$02$00@Eigen@@@2@$00@Eigen@@@internal@Eigen@@QEAA@AEBV?$Product@V?$Block@V?$Matrix@M$03$03$0A@$03$03@Eigen@@$02$02$0A@@Eigen@@V?$DiagonalWrapper@$$CBV?$Matrix@M$02$00$0A@$02$00@Eigen@@@2@$00@2@@Z
	??0?$evaluator@V?$Product@V?$Block@V?$Matrix@M$03$03$0A@$03$03@Eigen@@$02$02$0A@@Eigen@@V?$Matrix@M$02$00$0A@$02$00@2@$00@Eigen@@@internal@Eigen@@QEAA@AEBV?$Product@V?$Block@V?$Matrix@M$03$03$0A@$03$03@Eigen@@$02$02$0A@@Eigen@@V?$Matrix@M$02$00$0A@$02$00@2@$00@2@@Z
	??0?$evaluator@V?$Product@V?$Block@V?$Matrix@M$03$03$0A@$03$03@Eigen@@$02$02$0A@@Eigen@@V?$Matrix@M$02$02$0A@$02$02@2@$00@Eigen@@@internal@Eigen@@QEAA@AEBV?$Product@V?$Block@V?$Matrix@M$03$03$0A@$03$03@Eigen@@$02$02$0A@@Eigen@@V?$Matrix@M$02$02$0A@$02$02@2@$00@2@@Z
	??0?$evaluator@V?$Transpose@$$CBV?$Block@$$CBV?$Block@$$CBV?$Matrix@M$03$03$0A@$03$03@Eigen@@$02$02$0A@@Eigen@@$00$02$0A@@Eigen@@@Eigen@@@internal@Eigen@@QEAA@AEBV?$Transpose@$$CBV?$Block@$$CBV?$Block@$$CBV?$Matrix@M$03$03$0A@$03$03@Eigen@@$02$02$0A@@Eigen@@$00$02$0A@@Eigen@@@2@@Z
	??0?$evaluator@V?$Transpose@$$CBV?$Block@$$CBV?$Block@V?$Matrix@M$03$03$0A@$03$03@Eigen@@$02$02$0A@@Eigen@@$00$02$0A@@Eigen@@@Eigen@@@internal@Eigen@@QEAA@AEBV?$Transpose@$$CBV?$Block@$$CBV?$Block@V?$Matrix@M$03$03$0A@$03$03@Eigen@@$02$02$0A@@Eigen@@$00$02$0A@@Eigen@@@2@@Z
	??0?$evaluator_base@V?$ArrayWrapper@$$CBV?$CwiseBinaryOp@U?$scalar_product_op@MM@internal@Eigen@@$$CBV?$Matrix@M$02$00$0A@$02$00@3@$$CBV43@@Eigen@@@Eigen@@@internal@Eigen@@QEAA@XZ
	??0?$evaluator_base@V?$Block@$$CBV?$Block@$$CBV?$Matrix@M$03$03$0A@$03$03@Eigen@@$02$00$00@Eigen@@$02$00$00@Eigen@@@internal@Eigen@@QEAA@XZ
	??0?$evaluator_base@V?$Block@$$CBV?$Block@$$CBV?$Matrix@M$03$03$0A@$03$03@Eigen@@$02$02$0A@@Eigen@@$00$02$0A@@Eigen@@@internal@Eigen@@QEAA@XZ
	??0?$evaluator_base@V?$Block@$$CBV?$Block@$$CBV?$Matrix@M$03$03$0A@$03$03@Eigen@@$02$02$0A@@Eigen@@$02$00$00@Eigen@@@internal@Eigen@@QEAA@XZ
	??0?$evaluator_base@V?$Block@$$CBV?$Block@V?$Matrix@M$03$03$0A@$03$03@Eigen@@$02$02$0A@@Eigen@@$00$02$0A@@Eigen@@@internal@Eigen@@QEAA@XZ
	??0?$evaluator_base@V?$Block@$$CBV?$CwiseNullaryOp@U?$scalar_identity_op@M@internal@Eigen@@V?$Matrix@M$02$02$0A@$02$02@3@@Eigen@@$02$00$0A@@Eigen@@@internal@Eigen@@QEAA@XZ
	??0?$evaluator_base@V?$Block@$$CBV?$CwiseUnaryOp@U?$scalar_opposite_op@M@internal@Eigen@@$$CBV?$Matrix@M$02$00$0A@$02$00@3@@Eigen@@$02$00$00@Eigen@@@internal@Eigen@@QEAA@XZ
	??0?$evaluator_base@V?$Block@$$CBV?$Matrix@M$02$00$0A@$02$00@Eigen@@$02$00$00@Eigen@@@internal@Eigen@@QEAA@XZ
	??0?$evaluator_base@V?$Block@$$CBV?$Matrix@M$02$02$0A@$02$02@Eigen@@$02$00$00@Eigen@@@internal@Eigen@@QEAA@XZ
	??0?$evaluator_base@V?$Block@$$CBV?$Matrix@M$03$03$0A@$03$03@Eigen@@$02$00$00@Eigen@@@internal@Eigen@@QEAA@XZ
	??0?$evaluator_base@V?$Block@$$CBV?$Matrix@M$03$03$0A@$03$03@Eigen@@$02$02$0A@@Eigen@@@internal@Eigen@@QEAA@XZ
	??0?$evaluator_base@V?$Block@V?$Matrix@M$02$00$0A@$02$00@Eigen@@$0?0$00$0A@@Eigen@@@internal@Eigen@@QEAA@XZ
	??0?$evaluator_base@V?$Block@V?$Matrix@M$03$00$0A@$03$00@Eigen@@$02$00$0A@@Eigen@@@internal@Eigen@@QEAA@XZ
	??0?$evaluator_base@V?$Block@V?$Matrix@M$03$03$0A@$03$03@Eigen@@$00$02$0A@@Eigen@@@internal@Eigen@@QEAA@XZ
	??0?$evaluator_base@V?$Block@V?$Matrix@M$03$03$0A@$03$03@Eigen@@$02$00$00@Eigen@@@internal@Eigen@@QEAA@XZ
	??0?$evaluator_base@V?$Block@V?$Matrix@M$03$03$0A@$03$03@Eigen@@$02$00$0A@@Eigen@@@internal@Eigen@@QEAA@XZ
	??0?$evaluator_base@V?$Block@V?$Matrix@M$03$03$0A@$03$03@Eigen@@$02$02$0A@@Eigen@@@internal@Eigen@@QEAA@XZ
	??0?$evaluator_base@V?$CwiseBinaryOp@U?$not_equal_to@M@std@@$$CBV?$Matrix@M$01$00$0A@$01$00@Eigen@@$$CBV?$Block@V?$Matrix@M$02$00$0A@$02$00@Eigen@@$0?0$00$0A@@4@@Eigen@@@internal@Eigen@@QEAA@XZ
	??0?$evaluator_base@V?$CwiseBinaryOp@U?$not_equal_to@M@std@@$$CBV?$Matrix@M$03$03$0A@$03$03@Eigen@@$$CBV?$CwiseNullaryOp@U?$scalar_identity_op@M@internal@Eigen@@V?$Matrix@M$03$03$0A@$03$03@3@@4@@Eigen@@@internal@Eigen@@QEAA@XZ
	??0?$evaluator_base@V?$CwiseBinaryOp@U?$scalar_conj_product_op@MM@internal@Eigen@@$$CBV?$Matrix@M$02$00$0A@$02$00@3@$$CBV43@@Eigen@@@internal@Eigen@@QEAA@XZ
	??0?$evaluator_base@V?$CwiseBinaryOp@U?$scalar_difference_op@MM@internal@Eigen@@$$CBV?$Matrix@M$01$00$0A@$01$00@3@$$CBV43@@Eigen@@@internal@Eigen@@QEAA@XZ
	??0?$evaluator_base@V?$CwiseBinaryOp@U?$scalar_difference_op@MM@internal@Eigen@@$$CBV?$Matrix@M$02$00$0A@$02$00@3@$$CBV43@@Eigen@@@internal@Eigen@@QEAA@XZ
	??0?$evaluator_base@V?$CwiseBinaryOp@U?$scalar_product_op@MM@internal@Eigen@@$$CBV?$CwiseNullaryOp@U?$scalar_constant_op@M@internal@Eigen@@$$CBV?$Matrix@M$02$00$0A@$02$00@3@@3@$$CBV?$Matrix@M$02$00$0A@$02$00@3@@Eigen@@@internal@Eigen@@QEAA@XZ
	??0?$evaluator_base@V?$CwiseBinaryOp@U?$scalar_product_op@MM@internal@Eigen@@$$CBV?$Matrix@M$02$00$0A@$02$00@3@$$CBV43@@Eigen@@@internal@Eigen@@QEAA@XZ
	??0?$evaluator_base@V?$CwiseBinaryOp@U?$scalar_product_op@MM@internal@Eigen@@$$CBV?$Matrix@M$02$00$0A@$02$00@3@$$CBV?$CwiseNullaryOp@U?$scalar_constant_op@M@internal@Eigen@@$$CBV?$Matrix@M$02$00$0A@$02$00@3@@3@@Eigen@@@internal@Eigen@@QEAA@XZ
	??0?$evaluator_base@V?$CwiseBinaryOp@U?$scalar_product_op@MM@internal@Eigen@@$$CBV?$Transpose@$$CBV?$Block@$$CBV?$Block@$$CBV?$Matrix@M$03$03$0A@$03$03@Eigen@@$02$02$0A@@Eigen@@$00$02$0A@@Eigen@@@3@$$CBV?$Block@$$CBV?$Block@$$CBV?$Matrix@M$03$03$0A@$03$03@Eigen@@$02$00$00@Eigen@@$02$00$00@3@@Eigen@@@internal@Eigen@@QEAA@XZ
	??0?$evaluator_base@V?$CwiseBinaryOp@U?$scalar_product_op@MM@internal@Eigen@@$$CBV?$Transpose@$$CBV?$Block@$$CBV?$Block@$$CBV?$Matrix@M$03$03$0A@$03$03@Eigen@@$02$02$0A@@Eigen@@$00$02$0A@@Eigen@@@3@$$CBV?$Block@$$CBV?$Block@$$CBV?$Matrix@M$03$03$0A@$03$03@Eigen@@$02$02$0A@@Eigen@@$02$00$00@3@@Eigen@@@internal@Eigen@@QEAA@XZ
	??0?$evaluator_base@V?$CwiseBinaryOp@U?$scalar_product_op@MM@internal@Eigen@@$$CBV?$Transpose@$$CBV?$Block@$$CBV?$Block@V?$Matrix@M$03$03$0A@$03$03@Eigen@@$02$02$0A@@Eigen@@$00$02$0A@@Eigen@@@3@$$CBV?$Block@$$CBV?$CwiseUnaryOp@U?$scalar_opposite_op@M@internal@Eigen@@$$CBV?$Matrix@M$02$00$0A@$02$00@3@@Eigen@@$02$00$00@3@@Eigen@@@internal@Eigen@@QEAA@XZ
	??0?$evaluator_base@V?$CwiseBinaryOp@U?$scalar_product_op@MM@internal@Eigen@@$$CBV?$Transpose@$$CBV?$Block@$$CBV?$Block@V?$Matrix@M$03$03$0A@$03$03@Eigen@@$02$02$0A@@Eigen@@$00$02$0A@@Eigen@@@3@$$CBV?$Block@$$CBV?$Matrix@M$02$00$0A@$02$00@Eigen@@$02$00$00@3@@Eigen@@@internal@Eigen@@QEAA@XZ
	??0?$evaluator_base@V?$CwiseBinaryOp@U?$scalar_product_op@MM@internal@Eigen@@$$CBV?$Transpose@$$CBV?$Block@$$CBV?$Block@V?$Matrix@M$03$03$0A@$03$03@Eigen@@$02$02$0A@@Eigen@@$00$02$0A@@Eigen@@@3@$$CBV?$Block@$$CBV?$Matrix@M$02$02$0A@$02$02@Eigen@@$02$00$00@3@@Eigen@@@internal@Eigen@@QEAA@XZ
	??0?$evaluator_base@V?$CwiseBinaryOp@U?$scalar_quotient_op@MM@internal@Eigen@@$$CBV?$Matrix@M$02$00$0A@$02$00@3@$$CBV?$CwiseNullaryOp@U?$scalar_constant_op@M@internal@Eigen@@$$CBV?$Matrix@M$02$00$0A@$02$00@3@@3@@Eigen@@@internal@Eigen@@QEAA@XZ
	??0?$evaluator_base@V?$CwiseBinaryOp@U?$scalar_quotient_op@MM@internal@Eigen@@$$CBV?$Matrix@M$03$00$0A@$03$00@3@$$CBV?$CwiseNullaryOp@U?$scalar_constant_op@M@internal@Eigen@@$$CBV?$Matrix@M$03$00$0A@$03$00@3@@3@@Eigen@@@internal@Eigen@@QEAA@XZ
	??0?$evaluator_base@V?$CwiseBinaryOp@U?$scalar_sum_op@MM@internal@Eigen@@$$CBV?$ArrayWrapper@$$CBV?$CwiseBinaryOp@U?$scalar_product_op@MM@internal@Eigen@@$$CBV?$Matrix@M$02$00$0A@$02$00@3@$$CBV43@@Eigen@@@3@$$CBV?$CwiseNullaryOp@U?$scalar_constant_op@M@internal@Eigen@@$$CBV?$Array@M$02$00$0A@$02$00@3@@3@@Eigen@@@internal@Eigen@@QEAA@XZ
	??0?$evaluator_base@V?$CwiseBinaryOp@U?$scalar_sum_op@MM@internal@Eigen@@$$CBV?$CwiseBinaryOp@U?$scalar_sum_op@MM@internal@Eigen@@$$CBV?$Matrix@M$02$00$0A@$02$00@3@$$CBV?$CwiseBinaryOp@U?$scalar_product_op@MM@internal@Eigen@@$$CBV?$CwiseNullaryOp@U?$scalar_constant_op@M@internal@Eigen@@$$CBV?$Matrix@M$02$00$0A@$02$00@3@@3@$$CBV?$Matrix@M$02$00$0A@$02$00@3@@3@@3@$$CBV?$Matrix@M$02$00$0A@$02$00@3@@Eigen@@@internal@Eigen@@QEAA@XZ
	??0?$evaluator_base@V?$CwiseBinaryOp@U?$scalar_sum_op@MM@internal@Eigen@@$$CBV?$Matrix@M$02$00$0A@$02$00@3@$$CBV43@@Eigen@@@internal@Eigen@@QEAA@XZ
	??0?$evaluator_base@V?$CwiseBinaryOp@U?$scalar_sum_op@MM@internal@Eigen@@$$CBV?$Matrix@M$02$00$0A@$02$00@3@$$CBV?$CwiseBinaryOp@U?$scalar_product_op@MM@internal@Eigen@@$$CBV?$CwiseNullaryOp@U?$scalar_constant_op@M@internal@Eigen@@$$CBV?$Matrix@M$02$00$0A@$02$00@3@@3@$$CBV?$Matrix@M$02$00$0A@$02$00@3@@3@@Eigen@@@internal@Eigen@@QEAA@XZ
	??0?$evaluator_base@V?$CwiseBinaryOp@U?$scalar_sum_op@MM@internal@Eigen@@$$CBV?$Product@V?$Block@$$CBV?$Matrix@M$03$03$0A@$03$03@Eigen@@$02$02$0A@@Eigen@@V?$Block@$$CBV?$Matrix@M$03$03$0A@$03$03@Eigen@@$02$00$00@2@$0A@@3@$$CBV?$Block@$$CBV?$Matrix@M$03$03$0A@$03$03@Eigen@@$02$00$00@3@@Eigen@@@internal@Eigen@@QEAA@XZ
	??0?$evaluator_base@V?$CwiseNullaryOp@U?$scalar_constant_op@H@internal@Eigen@@V?$Matrix@H$01$00$0A@$01$00@3@@Eigen@@@internal@Eigen@@QEAA@XZ
	??0?$evaluator_base@V?$CwiseNullaryOp@U?$scalar_constant_op@M@internal@Eigen@@$$CBV?$Array@M$02$00$0A@$02$00@3@@Eigen@@@internal@Eigen@@QEAA@XZ
	??0?$evaluator_base@V?$CwiseNullaryOp@U?$scalar_constant_op@M@internal@Eigen@@$$CBV?$Matrix@M$02$00$0A@$02$00@3@@Eigen@@@internal@Eigen@@QEAA@XZ
	??0?$evaluator_base@V?$CwiseNullaryOp@U?$scalar_constant_op@M@internal@Eigen@@$$CBV?$Matrix@M$03$00$0A@$03$00@3@@Eigen@@@internal@Eigen@@QEAA@XZ
	??0?$evaluator_base@V?$CwiseNullaryOp@U?$scalar_constant_op@M@internal@Eigen@@V?$Matrix@M$00$02$00$00$02@3@@Eigen@@@internal@Eigen@@QEAA@XZ
	??0?$evaluator_base@V?$CwiseNullaryOp@U?$scalar_constant_op@M@internal@Eigen@@V?$Matrix@M$02$00$0A@$02$00@3@@Eigen@@@internal@Eigen@@QEAA@XZ
	??0?$evaluator_base@V?$CwiseNullaryOp@U?$scalar_constant_op@M@internal@Eigen@@V?$Matrix@M$02$02$0A@$02$02@3@@Eigen@@@internal@Eigen@@QEAA@XZ
	??0?$evaluator_base@V?$CwiseNullaryOp@U?$scalar_constant_op@M@internal@Eigen@@V?$Matrix@M$03$00$0A@$03$00@3@@Eigen@@@internal@Eigen@@QEAA@XZ
	??0?$evaluator_base@V?$CwiseNullaryOp@U?$scalar_constant_op@M@internal@Eigen@@V?$Matrix@M$03$03$0A@$03$03@3@@Eigen@@@internal@Eigen@@QEAA@XZ
	??0?$evaluator_base@V?$CwiseNullaryOp@U?$scalar_identity_op@M@internal@Eigen@@V?$Matrix@M$02$02$0A@$02$02@3@@Eigen@@@internal@Eigen@@QEAA@XZ
	??0?$evaluator_base@V?$CwiseNullaryOp@U?$scalar_identity_op@M@internal@Eigen@@V?$Matrix@M$03$03$0A@$03$03@3@@Eigen@@@internal@Eigen@@QEAA@XZ
	??0?$evaluator_base@V?$CwiseUnaryOp@U?$scalar_abs2_op@M@internal@Eigen@@$$CBV?$CwiseBinaryOp@U?$scalar_difference_op@MM@internal@Eigen@@$$CBV?$Matrix@M$02$00$0A@$02$00@3@$$CBV43@@3@@Eigen@@@internal@Eigen@@QEAA@XZ
	??0?$evaluator_base@V?$CwiseUnaryOp@U?$scalar_abs2_op@M@internal@Eigen@@$$CBV?$Matrix@M$02$00$0A@$02$00@3@@Eigen@@@internal@Eigen@@QEAA@XZ
	??0?$evaluator_base@V?$CwiseUnaryOp@U?$scalar_abs2_op@M@internal@Eigen@@$$CBV?$Matrix@M$03$00$0A@$03$00@3@@Eigen@@@internal@Eigen@@QEAA@XZ
	??0?$evaluator_base@V?$CwiseUnaryOp@U?$scalar_opposite_op@M@internal@Eigen@@$$CBV?$Matrix@M$02$00$0A@$02$00@3@@Eigen@@@internal@Eigen@@QEAA@XZ
	??0?$evaluator_base@V?$Diagonal@V?$Matrix@M$02$02$0A@$02$02@Eigen@@$0A@@Eigen@@@internal@Eigen@@QEAA@XZ
	??0?$evaluator_base@V?$Matrix@H$01$00$0A@$01$00@Eigen@@@internal@Eigen@@QEAA@XZ
	??0?$evaluator_base@V?$Matrix@M$01$00$0A@$01$00@Eigen@@@internal@Eigen@@QEAA@XZ
	??0?$evaluator_base@V?$Matrix@M$02$00$0A@$02$00@Eigen@@@internal@Eigen@@QEAA@XZ
	??0?$evaluator_base@V?$Matrix@M$02$02$0A@$02$02@Eigen@@@internal@Eigen@@QEAA@XZ
	??0?$evaluator_base@V?$Matrix@M$03$00$0A@$03$00@Eigen@@@internal@Eigen@@QEAA@XZ
	??0?$evaluator_base@V?$Matrix@M$03$03$0A@$03$03@Eigen@@@internal@Eigen@@QEAA@XZ
	??0?$evaluator_base@V?$Product@V?$Block@$$CBV?$Matrix@M$03$03$0A@$03$03@Eigen@@$02$02$0A@@Eigen@@V12@$00@Eigen@@@internal@Eigen@@QEAA@XZ
	??0?$evaluator_base@V?$Product@V?$Block@$$CBV?$Matrix@M$03$03$0A@$03$03@Eigen@@$02$02$0A@@Eigen@@V?$Block@$$CBV?$Matrix@M$03$03$0A@$03$03@Eigen@@$02$00$00@2@$00@Eigen@@@internal@Eigen@@QEAA@XZ
	??0?$evaluator_base@V?$Product@V?$Block@V?$Matrix@M$03$03$0A@$03$03@Eigen@@$02$02$0A@@Eigen@@V?$CwiseUnaryOp@U?$scalar_opposite_op@M@internal@Eigen@@$$CBV?$Matrix@M$02$00$0A@$02$00@3@@2@$00@Eigen@@@internal@Eigen@@QEAA@XZ
	??0?$evaluator_base@V?$Product@V?$Block@V?$Matrix@M$03$03$0A@$03$03@Eigen@@$02$02$0A@@Eigen@@V?$DiagonalWrapper@$$CBV?$Matrix@M$02$00$0A@$02$00@Eigen@@@2@$00@Eigen@@@internal@Eigen@@QEAA@XZ
	??0?$evaluator_base@V?$Product@V?$Block@V?$Matrix@M$03$03$0A@$03$03@Eigen@@$02$02$0A@@Eigen@@V?$Matrix@M$02$00$0A@$02$00@2@$00@Eigen@@@internal@Eigen@@QEAA@XZ
	??0?$evaluator_base@V?$Product@V?$Block@V?$Matrix@M$03$03$0A@$03$03@Eigen@@$02$02$0A@@Eigen@@V?$Matrix@M$02$02$0A@$02$02@2@$00@Eigen@@@internal@Eigen@@QEAA@XZ
	??0?$evaluator_base@V?$Transpose@$$CBV?$Block@$$CBV?$Block@$$CBV?$Matrix@M$03$03$0A@$03$03@Eigen@@$02$02$0A@@Eigen@@$00$02$0A@@Eigen@@@Eigen@@@internal@Eigen@@QEAA@XZ
	??0?$evaluator_base@V?$Transpose@$$CBV?$Block@$$CBV?$Block@V?$Matrix@M$03$03$0A@$03$03@Eigen@@$02$02$0A@@Eigen@@$00$02$0A@@Eigen@@@Eigen@@@internal@Eigen@@QEAA@XZ
	??0?$evaluator_wrapper_base@V?$ArrayWrapper@$$CBV?$CwiseBinaryOp@U?$scalar_product_op@MM@internal@Eigen@@$$CBV?$Matrix@M$02$00$0A@$02$00@3@$$CBV43@@Eigen@@@Eigen@@@internal@Eigen@@QEAA@AEBV?$CwiseBinaryOp@U?$scalar_product_op@MM@internal@Eigen@@$$CBV?$Matrix@M$02$00$0A@$02$00@3@$$CBV43@@2@@Z
	??0?$fpos@U_Mbstatet@@@std@@QEAA@U_Mbstatet@@_J@Z
	??0?$fpos@U_Mbstatet@@@std@@QEAA@_J@Z
	??0?$function@$$A6AXH@Z@std@@QEAA@AEBV01@@Z
	??0?$function@$$A6AXH@Z@std@@QEAA@XZ
	??0?$function@$$A6AXM@Z@std@@QEAA@AEBV01@@Z
	??0?$function@$$A6AXM@Z@std@@QEAA@XZ
	??0?$function@$$A6AXXZ@std@@QEAA@AEBV01@@Z
	??0?$function@$$A6AXXZ@std@@QEAA@XZ
	??0?$generic_dense_assignment_kernel@U?$evaluator@V?$Block@V?$Matrix@M$03$00$0A@$03$00@Eigen@@$02$00$0A@@Eigen@@@internal@Eigen@@U?$evaluator@V?$CwiseBinaryOp@U?$scalar_product_op@MM@internal@Eigen@@$$CBV?$CwiseNullaryOp@U?$scalar_constant_op@M@internal@Eigen@@$$CBV?$Matrix@M$02$00$0A@$02$00@3@@3@$$CBV?$Matrix@M$02$00$0A@$02$00@3@@Eigen@@@23@U?$assign_op@MM@23@$0A@@internal@Eigen@@QEAA@AEAU?$evaluator@V?$Block@V?$Matrix@M$03$00$0A@$03$00@Eigen@@$02$00$0A@@Eigen@@@12@AEBU?$evaluator@V?$CwiseBinaryOp@U?$scalar_product_op@MM@internal@Eigen@@$$CBV?$CwiseNullaryOp@U?$scalar_constant_op@M@internal@Eigen@@$$CBV?$Matrix@M$02$00$0A@$02$00@3@@3@$$CBV?$Matrix@M$02$00$0A@$02$00@3@@Eigen@@@12@AEBU?$assign_op@MM@12@AEAV?$Block@V?$Matrix@M$03$00$0A@$03$00@Eigen@@$02$00$0A@@2@@Z
	??0?$generic_dense_assignment_kernel@U?$evaluator@V?$Block@V?$Matrix@M$03$03$0A@$03$03@Eigen@@$00$02$0A@@Eigen@@@internal@Eigen@@U?$evaluator@V?$CwiseNullaryOp@U?$scalar_constant_op@M@internal@Eigen@@V?$Matrix@M$00$02$00$00$02@3@@Eigen@@@23@U?$assign_op@MM@23@$0A@@internal@Eigen@@QEAA@AEAU?$evaluator@V?$Block@V?$Matrix@M$03$03$0A@$03$03@Eigen@@$00$02$0A@@Eigen@@@12@AEBU?$evaluator@V?$CwiseNullaryOp@U?$scalar_constant_op@M@internal@Eigen@@V?$Matrix@M$00$02$00$00$02@3@@Eigen@@@12@AEBU?$assign_op@MM@12@AEAV?$Block@V?$Matrix@M$03$03$0A@$03$03@Eigen@@$00$02$0A@@2@@Z
	??0?$generic_dense_assignment_kernel@U?$evaluator@V?$Block@V?$Matrix@M$03$03$0A@$03$03@Eigen@@$02$00$00@Eigen@@@internal@Eigen@@U?$evaluator@V?$CwiseBinaryOp@U?$scalar_sum_op@MM@internal@Eigen@@$$CBV?$Product@V?$Block@$$CBV?$Matrix@M$03$03$0A@$03$03@Eigen@@$02$02$0A@@Eigen@@V?$Block@$$CBV?$Matrix@M$03$03$0A@$03$03@Eigen@@$02$00$00@2@$0A@@3@$$CBV?$Block@$$CBV?$Matrix@M$03$03$0A@$03$03@Eigen@@$02$00$00@3@@Eigen@@@23@U?$assign_op@MM@23@$0A@@internal@Eigen@@QEAA@AEAU?$evaluator@V?$Block@V?$Matrix@M$03$03$0A@$03$03@Eigen@@$02$00$00@Eigen@@@12@AEBU?$evaluator@V?$CwiseBinaryOp@U?$scalar_sum_op@MM@internal@Eigen@@$$CBV?$Product@V?$Block@$$CBV?$Matrix@M$03$03$0A@$03$03@Eigen@@$02$02$0A@@Eigen@@V?$Block@$$CBV?$Matrix@M$03$03$0A@$03$03@Eigen@@$02$00$00@2@$0A@@3@$$CBV?$Block@$$CBV?$Matrix@M$03$03$0A@$03$03@Eigen@@$02$00$00@3@@Eigen@@@12@AEBU?$assign_op@MM@12@AEAV?$Block@V?$Matrix@M$03$03$0A@$03$03@Eigen@@$02$00$00@2@@Z
	??0?$generic_dense_assignment_kernel@U?$evaluator@V?$Block@V?$Matrix@M$03$03$0A@$03$03@Eigen@@$02$00$0A@@Eigen@@@internal@Eigen@@U?$evaluator@V?$Matrix@M$02$00$0A@$02$00@Eigen@@@23@U?$add_assign_op@MM@23@$0A@@internal@Eigen@@QEAA@AEAU?$evaluator@V?$Block@V?$Matrix@M$03$03$0A@$03$03@Eigen@@$02$00$0A@@Eigen@@@12@AEBU?$evaluator@V?$Matrix@M$02$00$0A@$02$00@Eigen@@@12@AEBU?$add_assign_op@MM@12@AEAV?$Block@V?$Matrix@M$03$03$0A@$03$03@Eigen@@$02$00$0A@@2@@Z
	??0?$generic_dense_assignment_kernel@U?$evaluator@V?$Block@V?$Matrix@M$03$03$0A@$03$03@Eigen@@$02$02$0A@@Eigen@@@internal@Eigen@@U?$evaluator@V?$CwiseNullaryOp@U?$scalar_constant_op@M@internal@Eigen@@V?$Matrix@M$02$02$0A@$02$02@3@@Eigen@@@23@U?$mul_assign_op@MM@23@$0A@@internal@Eigen@@QEAA@AEAU?$evaluator@V?$Block@V?$Matrix@M$03$03$0A@$03$03@Eigen@@$02$02$0A@@Eigen@@@12@AEBU?$evaluator@V?$CwiseNullaryOp@U?$scalar_constant_op@M@internal@Eigen@@V?$Matrix@M$02$02$0A@$02$02@3@@Eigen@@@12@AEBU?$mul_assign_op@MM@12@AEAV?$Block@V?$Matrix@M$03$03$0A@$03$03@Eigen@@$02$02$0A@@2@@Z
	??0?$generic_dense_assignment_kernel@U?$evaluator@V?$Block@V?$Matrix@M$03$03$0A@$03$03@Eigen@@$02$02$0A@@Eigen@@@internal@Eigen@@U?$evaluator@V?$Matrix@M$02$02$0A@$02$02@Eigen@@@23@U?$assign_op@MM@23@$0A@@internal@Eigen@@QEAA@AEAU?$evaluator@V?$Block@V?$Matrix@M$03$03$0A@$03$03@Eigen@@$02$02$0A@@Eigen@@@12@AEBU?$evaluator@V?$Matrix@M$02$02$0A@$02$02@Eigen@@@12@AEBU?$assign_op@MM@12@AEAV?$Block@V?$Matrix@M$03$03$0A@$03$03@Eigen@@$02$02$0A@@2@@Z
	??0?$generic_dense_assignment_kernel@U?$evaluator@V?$Block@V?$Matrix@M$03$03$0A@$03$03@Eigen@@$02$02$0A@@Eigen@@@internal@Eigen@@U?$evaluator@V?$Product@V?$Block@V?$Matrix@M$03$03$0A@$03$03@Eigen@@$02$02$0A@@Eigen@@V?$DiagonalWrapper@$$CBV?$Matrix@M$02$00$0A@$02$00@Eigen@@@2@$00@Eigen@@@23@U?$assign_op@MM@23@$0A@@internal@Eigen@@QEAA@AEAU?$evaluator@V?$Block@V?$Matrix@M$03$03$0A@$03$03@Eigen@@$02$02$0A@@Eigen@@@12@AEBU?$evaluator@V?$Product@V?$Block@V?$Matrix@M$03$03$0A@$03$03@Eigen@@$02$02$0A@@Eigen@@V?$DiagonalWrapper@$$CBV?$Matrix@M$02$00$0A@$02$00@Eigen@@@2@$00@Eigen@@@12@AEBU?$assign_op@MM@12@AEAV?$Block@V?$Matrix@M$03$03$0A@$03$03@Eigen@@$02$02$0A@@2@@Z
	??0?$generic_dense_assignment_kernel@U?$evaluator@V?$Diagonal@V?$Matrix@M$02$02$0A@$02$02@Eigen@@$0A@@Eigen@@@internal@Eigen@@U?$evaluator@V?$CwiseBinaryOp@U?$scalar_sum_op@MM@internal@Eigen@@$$CBV?$ArrayWrapper@$$CBV?$CwiseBinaryOp@U?$scalar_product_op@MM@internal@Eigen@@$$CBV?$Matrix@M$02$00$0A@$02$00@3@$$CBV43@@Eigen@@@3@$$CBV?$CwiseNullaryOp@U?$scalar_constant_op@M@internal@Eigen@@$$CBV?$Array@M$02$00$0A@$02$00@3@@3@@Eigen@@@23@U?$assign_op@MM@23@$0A@@internal@Eigen@@QEAA@AEAU?$evaluator@V?$Diagonal@V?$Matrix@M$02$02$0A@$02$02@Eigen@@$0A@@Eigen@@@12@AEBU?$evaluator@V?$CwiseBinaryOp@U?$scalar_sum_op@MM@internal@Eigen@@$$CBV?$ArrayWrapper@$$CBV?$CwiseBinaryOp@U?$scalar_product_op@MM@internal@Eigen@@$$CBV?$Matrix@M$02$00$0A@$02$00@3@$$CBV43@@Eigen@@@3@$$CBV?$CwiseNullaryOp@U?$scalar_constant_op@M@internal@Eigen@@$$CBV?$Array@M$02$00$0A@$02$00@3@@3@@Eigen@@@12@AEBU?$assign_op@MM@12@AEAV?$Diagonal@V?$Matrix@M$02$02$0A@$02$02@Eigen@@$0A@@2@@Z
	??0?$generic_dense_assignment_kernel@U?$evaluator@V?$Matrix@H$01$00$0A@$01$00@Eigen@@@internal@Eigen@@U123@U?$assign_op@HH@23@$0A@@internal@Eigen@@QEAA@AEAU?$evaluator@V?$Matrix@H$01$00$0A@$01$00@Eigen@@@12@AEBU312@AEBU?$assign_op@HH@12@AEAV?$Matrix@H$01$00$0A@$01$00@2@@Z
	??0?$generic_dense_assignment_kernel@U?$evaluator@V?$Matrix@H$01$00$0A@$01$00@Eigen@@@internal@Eigen@@U?$evaluator@V?$CwiseNullaryOp@U?$scalar_constant_op@H@internal@Eigen@@V?$Matrix@H$01$00$0A@$01$00@3@@Eigen@@@23@U?$assign_op@HH@23@$0A@@internal@Eigen@@QEAA@AEAU?$evaluator@V?$Matrix@H$01$00$0A@$01$00@Eigen@@@12@AEBU?$evaluator@V?$CwiseNullaryOp@U?$scalar_constant_op@H@internal@Eigen@@V?$Matrix@H$01$00$0A@$01$00@3@@Eigen@@@12@AEBU?$assign_op@HH@12@AEAV?$Matrix@H$01$00$0A@$01$00@2@@Z
	??0?$generic_dense_assignment_kernel@U?$evaluator@V?$Matrix@M$01$00$0A@$01$00@Eigen@@@internal@Eigen@@U123@U?$assign_op@MM@23@$0A@@internal@Eigen@@QEAA@AEAU?$evaluator@V?$Matrix@M$01$00$0A@$01$00@Eigen@@@12@AEBU312@AEBU?$assign_op@MM@12@AEAV?$Matrix@M$01$00$0A@$01$00@2@@Z
	??0?$generic_dense_assignment_kernel@U?$evaluator@V?$Matrix@M$01$00$0A@$01$00@Eigen@@@internal@Eigen@@U?$evaluator@V?$CwiseBinaryOp@U?$scalar_difference_op@MM@internal@Eigen@@$$CBV?$Matrix@M$01$00$0A@$01$00@3@$$CBV43@@Eigen@@@23@U?$assign_op@MM@23@$0A@@internal@Eigen@@QEAA@AEAU?$evaluator@V?$Matrix@M$01$00$0A@$01$00@Eigen@@@12@AEBU?$evaluator@V?$CwiseBinaryOp@U?$scalar_difference_op@MM@internal@Eigen@@$$CBV?$Matrix@M$01$00$0A@$01$00@3@$$CBV43@@Eigen@@@12@AEBU?$assign_op@MM@12@AEAV?$Matrix@M$01$00$0A@$01$00@2@@Z
	??0?$generic_dense_assignment_kernel@U?$evaluator@V?$Matrix@M$02$00$0A@$02$00@Eigen@@@internal@Eigen@@U123@U?$add_assign_op@MM@23@$0A@@internal@Eigen@@QEAA@AEAU?$evaluator@V?$Matrix@M$02$00$0A@$02$00@Eigen@@@12@AEBU312@AEBU?$add_assign_op@MM@12@AEAV?$Matrix@M$02$00$0A@$02$00@2@@Z
	??0?$generic_dense_assignment_kernel@U?$evaluator@V?$Matrix@M$02$00$0A@$02$00@Eigen@@@internal@Eigen@@U123@U?$assign_op@MM@23@$0A@@internal@Eigen@@QEAA@AEAU?$evaluator@V?$Matrix@M$02$00$0A@$02$00@Eigen@@@12@AEBU312@AEBU?$assign_op@MM@12@AEAV?$Matrix@M$02$00$0A@$02$00@2@@Z
	??0?$generic_dense_assignment_kernel@U?$evaluator@V?$Matrix@M$02$00$0A@$02$00@Eigen@@@internal@Eigen@@U123@U?$swap_assign_op@M@23@$00@internal@Eigen@@QEAA@AEAU?$evaluator@V?$Matrix@M$02$00$0A@$02$00@Eigen@@@12@AEBU312@AEBU?$swap_assign_op@M@12@AEAV?$Matrix@M$02$00$0A@$02$00@2@@Z
	??0?$generic_dense_assignment_kernel@U?$evaluator@V?$Matrix@M$02$00$0A@$02$00@Eigen@@@internal@Eigen@@U123@U?$swap_assign_op@M@23@$0A@@internal@Eigen@@QEAA@AEAU?$evaluator@V?$Matrix@M$02$00$0A@$02$00@Eigen@@@12@AEBU312@AEBU?$swap_assign_op@M@12@AEAV?$Matrix@M$02$00$0A@$02$00@2@@Z
	??0?$generic_dense_assignment_kernel@U?$evaluator@V?$Matrix@M$02$00$0A@$02$00@Eigen@@@internal@Eigen@@U?$evaluator@V?$Block@$$CBV?$CwiseNullaryOp@U?$scalar_identity_op@M@internal@Eigen@@V?$Matrix@M$02$02$0A@$02$02@3@@Eigen@@$02$00$0A@@Eigen@@@23@U?$assign_op@MM@23@$0A@@internal@Eigen@@QEAA@AEAU?$evaluator@V?$Matrix@M$02$00$0A@$02$00@Eigen@@@12@AEBU?$evaluator@V?$Block@$$CBV?$CwiseNullaryOp@U?$scalar_identity_op@M@internal@Eigen@@V?$Matrix@M$02$02$0A@$02$02@3@@Eigen@@$02$00$0A@@Eigen@@@12@AEBU?$assign_op@MM@12@AEAV?$Matrix@M$02$00$0A@$02$00@2@@Z
	??0?$generic_dense_assignment_kernel@U?$evaluator@V?$Matrix@M$02$00$0A@$02$00@Eigen@@@internal@Eigen@@U?$evaluator@V?$CwiseBinaryOp@U?$scalar_product_op@MM@internal@Eigen@@$$CBV?$CwiseNullaryOp@U?$scalar_constant_op@M@internal@Eigen@@$$CBV?$Matrix@M$02$00$0A@$02$00@3@@3@$$CBV?$Matrix@M$02$00$0A@$02$00@3@@Eigen@@@23@U?$assign_op@MM@23@$0A@@internal@Eigen@@QEAA@AEAU?$evaluator@V?$Matrix@M$02$00$0A@$02$00@Eigen@@@12@AEBU?$evaluator@V?$CwiseBinaryOp@U?$scalar_product_op@MM@internal@Eigen@@$$CBV?$CwiseNullaryOp@U?$scalar_constant_op@M@internal@Eigen@@$$CBV?$Matrix@M$02$00$0A@$02$00@3@@3@$$CBV?$Matrix@M$02$00$0A@$02$00@3@@Eigen@@@12@AEBU?$assign_op@MM@12@AEAV?$Matrix@M$02$00$0A@$02$00@2@@Z
	??0?$generic_dense_assignment_kernel@U?$evaluator@V?$Matrix@M$02$00$0A@$02$00@Eigen@@@internal@Eigen@@U?$evaluator@V?$CwiseBinaryOp@U?$scalar_product_op@MM@internal@Eigen@@$$CBV?$Matrix@M$02$00$0A@$02$00@3@$$CBV?$CwiseNullaryOp@U?$scalar_constant_op@M@internal@Eigen@@$$CBV?$Matrix@M$02$00$0A@$02$00@3@@3@@Eigen@@@23@U?$assign_op@MM@23@$0A@@internal@Eigen@@QEAA@AEAU?$evaluator@V?$Matrix@M$02$00$0A@$02$00@Eigen@@@12@AEBU?$evaluator@V?$CwiseBinaryOp@U?$scalar_product_op@MM@internal@Eigen@@$$CBV?$Matrix@M$02$00$0A@$02$00@3@$$CBV?$CwiseNullaryOp@U?$scalar_constant_op@M@internal@Eigen@@$$CBV?$Matrix@M$02$00$0A@$02$00@3@@3@@Eigen@@@12@AEBU?$assign_op@MM@12@AEAV?$Matrix@M$02$00$0A@$02$00@2@@Z
	??0?$generic_dense_assignment_kernel@U?$evaluator@V?$Matrix@M$02$00$0A@$02$00@Eigen@@@internal@Eigen@@U?$evaluator@V?$CwiseBinaryOp@U?$scalar_quotient_op@MM@internal@Eigen@@$$CBV?$Matrix@M$02$00$0A@$02$00@3@$$CBV?$CwiseNullaryOp@U?$scalar_constant_op@M@internal@Eigen@@$$CBV?$Matrix@M$02$00$0A@$02$00@3@@3@@Eigen@@@23@U?$assign_op@MM@23@$0A@@internal@Eigen@@QEAA@AEAU?$evaluator@V?$Matrix@M$02$00$0A@$02$00@Eigen@@@12@AEBU?$evaluator@V?$CwiseBinaryOp@U?$scalar_quotient_op@MM@internal@Eigen@@$$CBV?$Matrix@M$02$00$0A@$02$00@3@$$CBV?$CwiseNullaryOp@U?$scalar_constant_op@M@internal@Eigen@@$$CBV?$Matrix@M$02$00$0A@$02$00@3@@3@@Eigen@@@12@AEBU?$assign_op@MM@12@AEAV?$Matrix@M$02$00$0A@$02$00@2@@Z
	??0?$generic_dense_assignment_kernel@U?$evaluator@V?$Matrix@M$02$00$0A@$02$00@Eigen@@@internal@Eigen@@U?$evaluator@V?$CwiseBinaryOp@U?$scalar_sum_op@MM@internal@Eigen@@$$CBV?$CwiseBinaryOp@U?$scalar_sum_op@MM@internal@Eigen@@$$CBV?$Matrix@M$02$00$0A@$02$00@3@$$CBV?$CwiseBinaryOp@U?$scalar_product_op@MM@internal@Eigen@@$$CBV?$CwiseNullaryOp@U?$scalar_constant_op@M@internal@Eigen@@$$CBV?$Matrix@M$02$00$0A@$02$00@3@@3@$$CBV?$Matrix@M$02$00$0A@$02$00@3@@3@@3@$$CBV?$Matrix@M$02$00$0A@$02$00@3@@Eigen@@@23@U?$assign_op@MM@23@$0A@@internal@Eigen@@QEAA@AEAU?$evaluator@V?$Matrix@M$02$00$0A@$02$00@Eigen@@@12@AEBU?$evaluator@V?$CwiseBinaryOp@U?$scalar_sum_op@MM@internal@Eigen@@$$CBV?$CwiseBinaryOp@U?$scalar_sum_op@MM@internal@Eigen@@$$CBV?$Matrix@M$02$00$0A@$02$00@3@$$CBV?$CwiseBinaryOp@U?$scalar_product_op@MM@internal@Eigen@@$$CBV?$CwiseNullaryOp@U?$scalar_constant_op@M@internal@Eigen@@$$CBV?$Matrix@M$02$00$0A@$02$00@3@@3@$$CBV?$Matrix@M$02$00$0A@$02$00@3@@3@@3@$$CBV?$Matrix@M$02$00$0A@$02$00@3@@Eigen@@@12@AEBU?$assign_op@MM@12@AEAV?$Matrix@M$02$00$0A@$02$00@2@@Z
	??0?$generic_dense_assignment_kernel@U?$evaluator@V?$Matrix@M$02$00$0A@$02$00@Eigen@@@internal@Eigen@@U?$evaluator@V?$CwiseBinaryOp@U?$scalar_sum_op@MM@internal@Eigen@@$$CBV?$Matrix@M$02$00$0A@$02$00@3@$$CBV43@@Eigen@@@23@U?$assign_op@MM@23@$0A@@internal@Eigen@@QEAA@AEAU?$evaluator@V?$Matrix@M$02$00$0A@$02$00@Eigen@@@12@AEBU?$evaluator@V?$CwiseBinaryOp@U?$scalar_sum_op@MM@internal@Eigen@@$$CBV?$Matrix@M$02$00$0A@$02$00@3@$$CBV43@@Eigen@@@12@AEBU?$assign_op@MM@12@AEAV?$Matrix@M$02$00$0A@$02$00@2@@Z
	??0?$generic_dense_assignment_kernel@U?$evaluator@V?$Matrix@M$02$00$0A@$02$00@Eigen@@@internal@Eigen@@U?$evaluator@V?$CwiseNullaryOp@U?$scalar_constant_op@M@internal@Eigen@@V?$Matrix@M$02$00$0A@$02$00@3@@Eigen@@@23@U?$assign_op@MM@23@$0A@@internal@Eigen@@QEAA@AEAU?$evaluator@V?$Matrix@M$02$00$0A@$02$00@Eigen@@@12@AEBU?$evaluator@V?$CwiseNullaryOp@U?$scalar_constant_op@M@internal@Eigen@@V?$Matrix@M$02$00$0A@$02$00@3@@Eigen@@@12@AEBU?$assign_op@MM@12@AEAV?$Matrix@M$02$00$0A@$02$00@2@@Z
	??0?$generic_dense_assignment_kernel@U?$evaluator@V?$Matrix@M$02$00$0A@$02$00@Eigen@@@internal@Eigen@@U?$evaluator@V?$CwiseNullaryOp@U?$scalar_constant_op@M@internal@Eigen@@V?$Matrix@M$02$00$0A@$02$00@3@@Eigen@@@23@U?$div_assign_op@MM@23@$0A@@internal@Eigen@@QEAA@AEAU?$evaluator@V?$Matrix@M$02$00$0A@$02$00@Eigen@@@12@AEBU?$evaluator@V?$CwiseNullaryOp@U?$scalar_constant_op@M@internal@Eigen@@V?$Matrix@M$02$00$0A@$02$00@3@@Eigen@@@12@AEBU?$div_assign_op@MM@12@AEAV?$Matrix@M$02$00$0A@$02$00@2@@Z
	??0?$generic_dense_assignment_kernel@U?$evaluator@V?$Matrix@M$02$00$0A@$02$00@Eigen@@@internal@Eigen@@U?$evaluator@V?$Product@V?$Block@$$CBV?$Matrix@M$03$03$0A@$03$03@Eigen@@$02$02$0A@@Eigen@@V?$Block@$$CBV?$Matrix@M$03$03$0A@$03$03@Eigen@@$02$00$00@2@$00@Eigen@@@23@U?$assign_op@MM@23@$0A@@internal@Eigen@@QEAA@AEAU?$evaluator@V?$Matrix@M$02$00$0A@$02$00@Eigen@@@12@AEBU?$evaluator@V?$Product@V?$Block@$$CBV?$Matrix@M$03$03$0A@$03$03@Eigen@@$02$02$0A@@Eigen@@V?$Block@$$CBV?$Matrix@M$03$03$0A@$03$03@Eigen@@$02$00$00@2@$00@Eigen@@@12@AEBU?$assign_op@MM@12@AEAV?$Matrix@M$02$00$0A@$02$00@2@@Z
	??0?$generic_dense_assignment_kernel@U?$evaluator@V?$Matrix@M$02$00$0A@$02$00@Eigen@@@internal@Eigen@@U?$evaluator@V?$Product@V?$Block@V?$Matrix@M$03$03$0A@$03$03@Eigen@@$02$02$0A@@Eigen@@V?$CwiseUnaryOp@U?$scalar_opposite_op@M@internal@Eigen@@$$CBV?$Matrix@M$02$00$0A@$02$00@3@@2@$00@Eigen@@@23@U?$assign_op@MM@23@$0A@@internal@Eigen@@QEAA@AEAU?$evaluator@V?$Matrix@M$02$00$0A@$02$00@Eigen@@@12@AEBU?$evaluator@V?$Product@V?$Block@V?$Matrix@M$03$03$0A@$03$03@Eigen@@$02$02$0A@@Eigen@@V?$CwiseUnaryOp@U?$scalar_opposite_op@M@internal@Eigen@@$$CBV?$Matrix@M$02$00$0A@$02$00@3@@2@$00@Eigen@@@12@AEBU?$assign_op@MM@12@AEAV?$Matrix@M$02$00$0A@$02$00@2@@Z
	??0?$generic_dense_assignment_kernel@U?$evaluator@V?$Matrix@M$02$00$0A@$02$00@Eigen@@@internal@Eigen@@U?$evaluator@V?$Product@V?$Block@V?$Matrix@M$03$03$0A@$03$03@Eigen@@$02$02$0A@@Eigen@@V?$Matrix@M$02$00$0A@$02$00@2@$00@Eigen@@@23@U?$assign_op@MM@23@$0A@@internal@Eigen@@QEAA@AEAU?$evaluator@V?$Matrix@M$02$00$0A@$02$00@Eigen@@@12@AEBU?$evaluator@V?$Product@V?$Block@V?$Matrix@M$03$03$0A@$03$03@Eigen@@$02$02$0A@@Eigen@@V?$Matrix@M$02$00$0A@$02$00@2@$00@Eigen@@@12@AEBU?$assign_op@MM@12@AEAV?$Matrix@M$02$00$0A@$02$00@2@@Z
	??0?$generic_dense_assignment_kernel@U?$evaluator@V?$Matrix@M$02$02$0A@$02$02@Eigen@@@internal@Eigen@@U?$evaluator@V?$Product@V?$Block@$$CBV?$Matrix@M$03$03$0A@$03$03@Eigen@@$02$02$0A@@Eigen@@V12@$00@Eigen@@@23@U?$assign_op@MM@23@$0A@@internal@Eigen@@QEAA@AEAU?$evaluator@V?$Matrix@M$02$02$0A@$02$02@Eigen@@@12@AEBU?$evaluator@V?$Product@V?$Block@$$CBV?$Matrix@M$03$03$0A@$03$03@Eigen@@$02$02$0A@@Eigen@@V12@$00@Eigen@@@12@AEBU?$assign_op@MM@12@AEAV?$Matrix@M$02$02$0A@$02$02@2@@Z
	??0?$generic_dense_assignment_kernel@U?$evaluator@V?$Matrix@M$02$02$0A@$02$02@Eigen@@@internal@Eigen@@U?$evaluator@V?$Product@V?$Block@V?$Matrix@M$03$03$0A@$03$03@Eigen@@$02$02$0A@@Eigen@@V?$Matrix@M$02$02$0A@$02$02@2@$00@Eigen@@@23@U?$assign_op@MM@23@$0A@@internal@Eigen@@QEAA@AEAU?$evaluator@V?$Matrix@M$02$02$0A@$02$02@Eigen@@@12@AEBU?$evaluator@V?$Product@V?$Block@V?$Matrix@M$03$03$0A@$03$03@Eigen@@$02$02$0A@@Eigen@@V?$Matrix@M$02$02$0A@$02$02@2@$00@Eigen@@@12@AEBU?$assign_op@MM@12@AEAV?$Matrix@M$02$02$0A@$02$02@2@@Z
	??0?$generic_dense_assignment_kernel@U?$evaluator@V?$Matrix@M$03$00$0A@$03$00@Eigen@@@internal@Eigen@@U123@U?$assign_op@MM@23@$0A@@internal@Eigen@@QEAA@AEAU?$evaluator@V?$Matrix@M$03$00$0A@$03$00@Eigen@@@12@AEBU312@AEBU?$assign_op@MM@12@AEAV?$Matrix@M$03$00$0A@$03$00@2@@Z
	??0?$generic_dense_assignment_kernel@U?$evaluator@V?$Matrix@M$03$00$0A@$03$00@Eigen@@@internal@Eigen@@U123@U?$swap_assign_op@M@23@$00@internal@Eigen@@QEAA@AEAU?$evaluator@V?$Matrix@M$03$00$0A@$03$00@Eigen@@@12@AEBU312@AEBU?$swap_assign_op@M@12@AEAV?$Matrix@M$03$00$0A@$03$00@2@@Z
	??0?$generic_dense_assignment_kernel@U?$evaluator@V?$Matrix@M$03$00$0A@$03$00@Eigen@@@internal@Eigen@@U123@U?$swap_assign_op@M@23@$0A@@internal@Eigen@@QEAA@AEAU?$evaluator@V?$Matrix@M$03$00$0A@$03$00@Eigen@@@12@AEBU312@AEBU?$swap_assign_op@M@12@AEAV?$Matrix@M$03$00$0A@$03$00@2@@Z
	??0?$generic_dense_assignment_kernel@U?$evaluator@V?$Matrix@M$03$00$0A@$03$00@Eigen@@@internal@Eigen@@U?$evaluator@V?$CwiseBinaryOp@U?$scalar_quotient_op@MM@internal@Eigen@@$$CBV?$Matrix@M$03$00$0A@$03$00@3@$$CBV?$CwiseNullaryOp@U?$scalar_constant_op@M@internal@Eigen@@$$CBV?$Matrix@M$03$00$0A@$03$00@3@@3@@Eigen@@@23@U?$assign_op@MM@23@$0A@@internal@Eigen@@QEAA@AEAU?$evaluator@V?$Matrix@M$03$00$0A@$03$00@Eigen@@@12@AEBU?$evaluator@V?$CwiseBinaryOp@U?$scalar_quotient_op@MM@internal@Eigen@@$$CBV?$Matrix@M$03$00$0A@$03$00@3@$$CBV?$CwiseNullaryOp@U?$scalar_constant_op@M@internal@Eigen@@$$CBV?$Matrix@M$03$00$0A@$03$00@3@@3@@Eigen@@@12@AEBU?$assign_op@MM@12@AEAV?$Matrix@M$03$00$0A@$03$00@2@@Z
	??0?$generic_dense_assignment_kernel@U?$evaluator@V?$Matrix@M$03$00$0A@$03$00@Eigen@@@internal@Eigen@@U?$evaluator@V?$CwiseNullaryOp@U?$scalar_constant_op@M@internal@Eigen@@V?$Matrix@M$03$00$0A@$03$00@3@@Eigen@@@23@U?$assign_op@MM@23@$0A@@internal@Eigen@@QEAA@AEAU?$evaluator@V?$Matrix@M$03$00$0A@$03$00@Eigen@@@12@AEBU?$evaluator@V?$CwiseNullaryOp@U?$scalar_constant_op@M@internal@Eigen@@V?$Matrix@M$03$00$0A@$03$00@3@@Eigen@@@12@AEBU?$assign_op@MM@12@AEAV?$Matrix@M$03$00$0A@$03$00@2@@Z
	??0?$generic_dense_assignment_kernel@U?$evaluator@V?$Matrix@M$03$00$0A@$03$00@Eigen@@@internal@Eigen@@U?$evaluator@V?$CwiseNullaryOp@U?$scalar_constant_op@M@internal@Eigen@@V?$Matrix@M$03$00$0A@$03$00@3@@Eigen@@@23@U?$div_assign_op@MM@23@$0A@@internal@Eigen@@QEAA@AEAU?$evaluator@V?$Matrix@M$03$00$0A@$03$00@Eigen@@@12@AEBU?$evaluator@V?$CwiseNullaryOp@U?$scalar_constant_op@M@internal@Eigen@@V?$Matrix@M$03$00$0A@$03$00@3@@Eigen@@@12@AEBU?$div_assign_op@MM@12@AEAV?$Matrix@M$03$00$0A@$03$00@2@@Z
	??0?$generic_dense_assignment_kernel@U?$evaluator@V?$Matrix@M$03$03$0A@$03$03@Eigen@@@internal@Eigen@@U123@U?$assign_op@MM@23@$0A@@internal@Eigen@@QEAA@AEAU?$evaluator@V?$Matrix@M$03$03$0A@$03$03@Eigen@@@12@AEBU312@AEBU?$assign_op@MM@12@AEAV?$Matrix@M$03$03$0A@$03$03@2@@Z
	??0?$generic_dense_assignment_kernel@U?$evaluator@V?$Matrix@M$03$03$0A@$03$03@Eigen@@@internal@Eigen@@U?$evaluator@V?$CwiseNullaryOp@U?$scalar_constant_op@M@internal@Eigen@@V?$Matrix@M$03$03$0A@$03$03@3@@Eigen@@@23@U?$assign_op@MM@23@$0A@@internal@Eigen@@QEAA@AEAU?$evaluator@V?$Matrix@M$03$03$0A@$03$03@Eigen@@@12@AEBU?$evaluator@V?$CwiseNullaryOp@U?$scalar_constant_op@M@internal@Eigen@@V?$Matrix@M$03$03$0A@$03$03@3@@Eigen@@@12@AEBU?$assign_op@MM@12@AEAV?$Matrix@M$03$03$0A@$03$03@2@@Z
	??0?$generic_dense_assignment_kernel@U?$evaluator@V?$Matrix@M$03$03$0A@$03$03@Eigen@@@internal@Eigen@@U?$evaluator@V?$CwiseNullaryOp@U?$scalar_identity_op@M@internal@Eigen@@V?$Matrix@M$03$03$0A@$03$03@3@@Eigen@@@23@U?$assign_op@MM@23@$0A@@internal@Eigen@@QEAA@AEAU?$evaluator@V?$Matrix@M$03$03$0A@$03$03@Eigen@@@12@AEBU?$evaluator@V?$CwiseNullaryOp@U?$scalar_identity_op@M@internal@Eigen@@V?$Matrix@M$03$03$0A@$03$03@3@@Eigen@@@12@AEBU?$assign_op@MM@12@AEAV?$Matrix@M$03$03$0A@$03$03@2@@Z
	??0?$mapbase_evaluator@V?$Block@$$CBV?$Block@$$CBV?$Matrix@M$03$03$0A@$03$03@Eigen@@$02$00$00@Eigen@@$02$00$00@Eigen@@V?$Matrix@M$02$00$0A@$02$00@2@@internal@Eigen@@QEAA@AEBV?$Block@$$CBV?$Block@$$CBV?$Matrix@M$03$03$0A@$03$03@Eigen@@$02$00$00@Eigen@@$02$00$00@2@@Z
	??0?$mapbase_evaluator@V?$Block@$$CBV?$Block@$$CBV?$Matrix@M$03$03$0A@$03$03@Eigen@@$02$02$0A@@Eigen@@$00$02$0A@@Eigen@@V?$Matrix@M$00$02$00$00$02@2@@internal@Eigen@@QEAA@AEBV?$Block@$$CBV?$Block@$$CBV?$Matrix@M$03$03$0A@$03$03@Eigen@@$02$02$0A@@Eigen@@$00$02$0A@@2@@Z
	??0?$mapbase_evaluator@V?$Block@$$CBV?$Block@$$CBV?$Matrix@M$03$03$0A@$03$03@Eigen@@$02$02$0A@@Eigen@@$02$00$00@Eigen@@V?$Matrix@M$02$00$0A@$02$00@2@@internal@Eigen@@QEAA@AEBV?$Block@$$CBV?$Block@$$CBV?$Matrix@M$03$03$0A@$03$03@Eigen@@$02$02$0A@@Eigen@@$02$00$00@2@@Z
	??0?$mapbase_evaluator@V?$Block@$$CBV?$Block@V?$Matrix@M$03$03$0A@$03$03@Eigen@@$02$02$0A@@Eigen@@$00$02$0A@@Eigen@@V?$Matrix@M$00$02$00$00$02@2@@internal@Eigen@@QEAA@AEBV?$Block@$$CBV?$Block@V?$Matrix@M$03$03$0A@$03$03@Eigen@@$02$02$0A@@Eigen@@$00$02$0A@@2@@Z
	??0?$mapbase_evaluator@V?$Block@$$CBV?$Matrix@M$02$00$0A@$02$00@Eigen@@$02$00$00@Eigen@@V?$Matrix@M$02$00$0A@$02$00@2@@internal@Eigen@@QEAA@AEBV?$Block@$$CBV?$Matrix@M$02$00$0A@$02$00@Eigen@@$02$00$00@2@@Z
	??0?$mapbase_evaluator@V?$Block@$$CBV?$Matrix@M$02$02$0A@$02$02@Eigen@@$02$00$00@Eigen@@V?$Matrix@M$02$00$0A@$02$00@2@@internal@Eigen@@QEAA@AEBV?$Block@$$CBV?$Matrix@M$02$02$0A@$02$02@Eigen@@$02$00$00@2@@Z
	??0?$mapbase_evaluator@V?$Block@$$CBV?$Matrix@M$03$03$0A@$03$03@Eigen@@$02$00$00@Eigen@@V?$Matrix@M$02$00$0A@$02$00@2@@internal@Eigen@@QEAA@AEBV?$Block@$$CBV?$Matrix@M$03$03$0A@$03$03@Eigen@@$02$00$00@2@@Z
	??0?$mapbase_evaluator@V?$Block@$$CBV?$Matrix@M$03$03$0A@$03$03@Eigen@@$02$02$0A@@Eigen@@V?$Matrix@M$02$02$0A@$02$02@2@@internal@Eigen@@QEAA@AEBV?$Block@$$CBV?$Matrix@M$03$03$0A@$03$03@Eigen@@$02$02$0A@@2@@Z
	??0?$mapbase_evaluator@V?$Block@V?$Matrix@M$02$00$0A@$02$00@Eigen@@$0?0$00$0A@@Eigen@@V?$Matrix@M$0?0$00$0A@$02$00@2@@internal@Eigen@@QEAA@AEBV?$Block@V?$Matrix@M$02$00$0A@$02$00@Eigen@@$0?0$00$0A@@2@@Z
	??0?$mapbase_evaluator@V?$Block@V?$Matrix@M$03$00$0A@$03$00@Eigen@@$02$00$0A@@Eigen@@V?$Matrix@M$02$00$0A@$02$00@2@@internal@Eigen@@QEAA@AEBV?$Block@V?$Matrix@M$03$00$0A@$03$00@Eigen@@$02$00$0A@@2@@Z
	??0?$mapbase_evaluator@V?$Block@V?$Matrix@M$03$03$0A@$03$03@Eigen@@$00$02$0A@@Eigen@@V?$Matrix@M$00$02$00$00$02@2@@internal@Eigen@@QEAA@AEBV?$Block@V?$Matrix@M$03$03$0A@$03$03@Eigen@@$00$02$0A@@2@@Z
	??0?$mapbase_evaluator@V?$Block@V?$Matrix@M$03$03$0A@$03$03@Eigen@@$02$00$00@Eigen@@V?$Matrix@M$02$00$0A@$02$00@2@@internal@Eigen@@QEAA@AEBV?$Block@V?$Matrix@M$03$03$0A@$03$03@Eigen@@$02$00$00@2@@Z
	??0?$mapbase_evaluator@V?$Block@V?$Matrix@M$03$03$0A@$03$03@Eigen@@$02$00$0A@@Eigen@@V?$Matrix@M$02$00$0A@$02$00@2@@internal@Eigen@@QEAA@AEBV?$Block@V?$Matrix@M$03$03$0A@$03$03@Eigen@@$02$00$0A@@2@@Z
	??0?$mapbase_evaluator@V?$Block@V?$Matrix@M$03$03$0A@$03$03@Eigen@@$02$02$0A@@Eigen@@V?$Matrix@M$02$02$0A@$02$02@2@@internal@Eigen@@QEAA@AEBV?$Block@V?$Matrix@M$03$03$0A@$03$03@Eigen@@$02$02$0A@@2@@Z
	??0?$plain_array@H$01$0A@$0A@@internal@Eigen@@QEAA@XZ
	??0?$plain_array@M$01$0A@$0A@@internal@Eigen@@QEAA@XZ
	??0?$plain_array@M$02$0A@$0A@@internal@Eigen@@QEAA@XZ
	??0?$plain_array@M$03$0A@$0BA@@internal@Eigen@@QEAA@XZ
	??0?$plain_array@M$08$0A@$0A@@internal@Eigen@@QEAA@XZ
	??0?$plain_array@M$0BA@$0A@$0BA@@internal@Eigen@@QEAA@XZ
	??0?$plainobjectbase_evaluator_data@H$0A@@internal@Eigen@@QEAA@PEBH_J@Z
	??0?$plainobjectbase_evaluator_data@M$02@internal@Eigen@@QEAA@PEBM_J@Z
	??0?$plainobjectbase_evaluator_data@M$03@internal@Eigen@@QEAA@PEBM_J@Z
	??0?$plainobjectbase_evaluator_data@M$0A@@internal@Eigen@@QEAA@PEBM_J@Z
	??0?$product_evaluator@V?$Product@V?$Block@$$CBV?$Matrix@M$03$03$0A@$03$03@Eigen@@$02$02$0A@@Eigen@@V12@$00@Eigen@@$02UDenseShape@2@U32@MM@internal@Eigen@@QEAA@AEBV?$Product@V?$Block@$$CBV?$Matrix@M$03$03$0A@$03$03@Eigen@@$02$02$0A@@Eigen@@V12@$00@2@@Z
	??0?$product_evaluator@V?$Product@V?$Block@$$CBV?$Matrix@M$03$03$0A@$03$03@Eigen@@$02$02$0A@@Eigen@@V?$Block@$$CBV?$Matrix@M$03$03$0A@$03$03@Eigen@@$02$00$00@2@$00@Eigen@@$02UDenseShape@2@U32@MM@internal@Eigen@@QEAA@AEBV?$Product@V?$Block@$$CBV?$Matrix@M$03$03$0A@$03$03@Eigen@@$02$02$0A@@Eigen@@V?$Block@$$CBV?$Matrix@M$03$03$0A@$03$03@Eigen@@$02$00$00@2@$00@2@@Z
	??0?$product_evaluator@V?$Product@V?$Block@$$CBV?$Matrix@M$03$03$0A@$03$03@Eigen@@$02$02$0A@@Eigen@@V?$Block@$$CBV?$Matrix@M$03$03$0A@$03$03@Eigen@@$02$00$00@2@$0A@@Eigen@@$02UDenseShape@2@U32@MM@internal@Eigen@@QEAA@AEBV?$Product@V?$Block@$$CBV?$Matrix@M$03$03$0A@$03$03@Eigen@@$02$02$0A@@Eigen@@V?$Block@$$CBV?$Matrix@M$03$03$0A@$03$03@Eigen@@$02$00$00@2@$0A@@2@@Z
	??0?$product_evaluator@V?$Product@V?$Block@V?$Matrix@M$03$03$0A@$03$03@Eigen@@$02$02$0A@@Eigen@@V?$CwiseUnaryOp@U?$scalar_opposite_op@M@internal@Eigen@@$$CBV?$Matrix@M$02$00$0A@$02$00@3@@2@$00@Eigen@@$02UDenseShape@2@U32@MM@internal@Eigen@@QEAA@AEBV?$Product@V?$Block@V?$Matrix@M$03$03$0A@$03$03@Eigen@@$02$02$0A@@Eigen@@V?$CwiseUnaryOp@U?$scalar_opposite_op@M@internal@Eigen@@$$CBV?$Matrix@M$02$00$0A@$02$00@3@@2@$00@2@@Z
	??0?$product_evaluator@V?$Product@V?$Block@V?$Matrix@M$03$03$0A@$03$03@Eigen@@$02$02$0A@@Eigen@@V?$DiagonalWrapper@$$CBV?$Matrix@M$02$00$0A@$02$00@Eigen@@@2@$00@Eigen@@$02UDenseShape@2@UDiagonalShape@2@MM@internal@Eigen@@QEAA@AEBV?$Product@V?$Block@V?$Matrix@M$03$03$0A@$03$03@Eigen@@$02$02$0A@@Eigen@@V?$DiagonalWrapper@$$CBV?$Matrix@M$02$00$0A@$02$00@Eigen@@@2@$00@2@@Z
	??0?$product_evaluator@V?$Product@V?$Block@V?$Matrix@M$03$03$0A@$03$03@Eigen@@$02$02$0A@@Eigen@@V?$Matrix@M$02$00$0A@$02$00@2@$00@Eigen@@$02UDenseShape@2@U32@MM@internal@Eigen@@QEAA@AEBV?$Product@V?$Block@V?$Matrix@M$03$03$0A@$03$03@Eigen@@$02$02$0A@@Eigen@@V?$Matrix@M$02$00$0A@$02$00@2@$00@2@@Z
	??0?$product_evaluator@V?$Product@V?$Block@V?$Matrix@M$03$03$0A@$03$03@Eigen@@$02$02$0A@@Eigen@@V?$Matrix@M$02$02$0A@$02$02@2@$00@Eigen@@$02UDenseShape@2@U32@MM@internal@Eigen@@QEAA@AEBV?$Product@V?$Block@V?$Matrix@M$03$03$0A@$03$03@Eigen@@$02$02$0A@@Eigen@@V?$Matrix@M$02$02$0A@$02$02@2@$00@2@@Z
	??0?$redux_evaluator@V?$CwiseBinaryOp@U?$scalar_conj_product_op@MM@internal@Eigen@@$$CBV?$Matrix@M$02$00$0A@$02$00@3@$$CBV43@@Eigen@@@internal@Eigen@@QEAA@AEBV?$CwiseBinaryOp@U?$scalar_conj_product_op@MM@internal@Eigen@@$$CBV?$Matrix@M$02$00$0A@$02$00@3@$$CBV43@@2@@Z
	??0?$redux_evaluator@V?$CwiseBinaryOp@U?$scalar_product_op@MM@internal@Eigen@@$$CBV?$Transpose@$$CBV?$Block@$$CBV?$Block@$$CBV?$Matrix@M$03$03$0A@$03$03@Eigen@@$02$02$0A@@Eigen@@$00$02$0A@@Eigen@@@3@$$CBV?$Block@$$CBV?$Block@$$CBV?$Matrix@M$03$03$0A@$03$03@Eigen@@$02$00$00@Eigen@@$02$00$00@3@@Eigen@@@internal@Eigen@@QEAA@AEBV?$CwiseBinaryOp@U?$scalar_product_op@MM@internal@Eigen@@$$CBV?$Transpose@$$CBV?$Block@$$CBV?$Block@$$CBV?$Matrix@M$03$03$0A@$03$03@Eigen@@$02$02$0A@@Eigen@@$00$02$0A@@Eigen@@@3@$$CBV?$Block@$$CBV?$Block@$$CBV?$Matrix@M$03$03$0A@$03$03@Eigen@@$02$00$00@Eigen@@$02$00$00@3@@2@@Z
	??0?$redux_evaluator@V?$CwiseBinaryOp@U?$scalar_product_op@MM@internal@Eigen@@$$CBV?$Transpose@$$CBV?$Block@$$CBV?$Block@$$CBV?$Matrix@M$03$03$0A@$03$03@Eigen@@$02$02$0A@@Eigen@@$00$02$0A@@Eigen@@@3@$$CBV?$Block@$$CBV?$Block@$$CBV?$Matrix@M$03$03$0A@$03$03@Eigen@@$02$02$0A@@Eigen@@$02$00$00@3@@Eigen@@@internal@Eigen@@QEAA@AEBV?$CwiseBinaryOp@U?$scalar_product_op@MM@internal@Eigen@@$$CBV?$Transpose@$$CBV?$Block@$$CBV?$Block@$$CBV?$Matrix@M$03$03$0A@$03$03@Eigen@@$02$02$0A@@Eigen@@$00$02$0A@@Eigen@@@3@$$CBV?$Block@$$CBV?$Block@$$CBV?$Matrix@M$03$03$0A@$03$03@Eigen@@$02$02$0A@@Eigen@@$02$00$00@3@@2@@Z
	??0?$redux_evaluator@V?$CwiseBinaryOp@U?$scalar_product_op@MM@internal@Eigen@@$$CBV?$Transpose@$$CBV?$Block@$$CBV?$Block@V?$Matrix@M$03$03$0A@$03$03@Eigen@@$02$02$0A@@Eigen@@$00$02$0A@@Eigen@@@3@$$CBV?$Block@$$CBV?$CwiseUnaryOp@U?$scalar_opposite_op@M@internal@Eigen@@$$CBV?$Matrix@M$02$00$0A@$02$00@3@@Eigen@@$02$00$00@3@@Eigen@@@internal@Eigen@@QEAA@AEBV?$CwiseBinaryOp@U?$scalar_product_op@MM@internal@Eigen@@$$CBV?$Transpose@$$CBV?$Block@$$CBV?$Block@V?$Matrix@M$03$03$0A@$03$03@Eigen@@$02$02$0A@@Eigen@@$00$02$0A@@Eigen@@@3@$$CBV?$Block@$$CBV?$CwiseUnaryOp@U?$scalar_opposite_op@M@internal@Eigen@@$$CBV?$Matrix@M$02$00$0A@$02$00@3@@Eigen@@$02$00$00@3@@2@@Z
	??0?$redux_evaluator@V?$CwiseBinaryOp@U?$scalar_product_op@MM@internal@Eigen@@$$CBV?$Transpose@$$CBV?$Block@$$CBV?$Block@V?$Matrix@M$03$03$0A@$03$03@Eigen@@$02$02$0A@@Eigen@@$00$02$0A@@Eigen@@@3@$$CBV?$Block@$$CBV?$Matrix@M$02$00$0A@$02$00@Eigen@@$02$00$00@3@@Eigen@@@internal@Eigen@@QEAA@AEBV?$CwiseBinaryOp@U?$scalar_product_op@MM@internal@Eigen@@$$CBV?$Transpose@$$CBV?$Block@$$CBV?$Block@V?$Matrix@M$03$03$0A@$03$03@Eigen@@$02$02$0A@@Eigen@@$00$02$0A@@Eigen@@@3@$$CBV?$Block@$$CBV?$Matrix@M$02$00$0A@$02$00@Eigen@@$02$00$00@3@@2@@Z
	??0?$redux_evaluator@V?$CwiseBinaryOp@U?$scalar_product_op@MM@internal@Eigen@@$$CBV?$Transpose@$$CBV?$Block@$$CBV?$Block@V?$Matrix@M$03$03$0A@$03$03@Eigen@@$02$02$0A@@Eigen@@$00$02$0A@@Eigen@@@3@$$CBV?$Block@$$CBV?$Matrix@M$02$02$0A@$02$02@Eigen@@$02$00$00@3@@Eigen@@@internal@Eigen@@QEAA@AEBV?$CwiseBinaryOp@U?$scalar_product_op@MM@internal@Eigen@@$$CBV?$Transpose@$$CBV?$Block@$$CBV?$Block@V?$Matrix@M$03$03$0A@$03$03@Eigen@@$02$02$0A@@Eigen@@$00$02$0A@@Eigen@@@3@$$CBV?$Block@$$CBV?$Matrix@M$02$02$0A@$02$02@Eigen@@$02$00$00@3@@2@@Z
	??0?$redux_evaluator@V?$CwiseUnaryOp@U?$scalar_abs2_op@M@internal@Eigen@@$$CBV?$CwiseBinaryOp@U?$scalar_difference_op@MM@internal@Eigen@@$$CBV?$Matrix@M$02$00$0A@$02$00@3@$$CBV43@@3@@Eigen@@@internal@Eigen@@QEAA@AEBV?$CwiseUnaryOp@U?$scalar_abs2_op@M@internal@Eigen@@$$CBV?$CwiseBinaryOp@U?$scalar_difference_op@MM@internal@Eigen@@$$CBV?$Matrix@M$02$00$0A@$02$00@3@$$CBV43@@3@@2@@Z
	??0?$redux_evaluator@V?$CwiseUnaryOp@U?$scalar_abs2_op@M@internal@Eigen@@$$CBV?$Matrix@M$02$00$0A@$02$00@3@@Eigen@@@internal@Eigen@@QEAA@AEBV?$CwiseUnaryOp@U?$scalar_abs2_op@M@internal@Eigen@@$$CBV?$Matrix@M$02$00$0A@$02$00@3@@2@@Z
	??0?$redux_evaluator@V?$CwiseUnaryOp@U?$scalar_abs2_op@M@internal@Eigen@@$$CBV?$Matrix@M$03$00$0A@$03$00@3@@Eigen@@@internal@Eigen@@QEAA@AEBV?$CwiseUnaryOp@U?$scalar_abs2_op@M@internal@Eigen@@$$CBV?$Matrix@M$03$00$0A@$03$00@3@@2@@Z
	??0?$scalar_constant_op@H@internal@Eigen@@QEAA@AEBH@Z
	??0?$scalar_constant_op@H@internal@Eigen@@QEAA@AEBU012@@Z
	??0?$scalar_constant_op@M@internal@Eigen@@QEAA@AEBM@Z
	??0?$scalar_constant_op@M@internal@Eigen@@QEAA@AEBU012@@Z
	??0?$shared_ptr@I@std@@QEAA@$$QEAV01@@Z
	??0?$shared_ptr@I@std@@QEAA@$$T@Z
	??0?$shared_ptr@I@std@@QEAA@AEBV01@@Z
	??0?$shared_ptr@I@std@@QEAA@XZ
	??0?$unary_evaluator@V?$ArrayWrapper@$$CBV?$CwiseBinaryOp@U?$scalar_product_op@MM@internal@Eigen@@$$CBV?$Matrix@M$02$00$0A@$02$00@3@$$CBV43@@Eigen@@@Eigen@@UIndexBased@internal@2@M@internal@Eigen@@QEAA@AEBV?$ArrayWrapper@$$CBV?$CwiseBinaryOp@U?$scalar_product_op@MM@internal@Eigen@@$$CBV?$Matrix@M$02$00$0A@$02$00@3@$$CBV43@@Eigen@@@2@@Z
	??0?$unary_evaluator@V?$Block@$$CBV?$CwiseNullaryOp@U?$scalar_identity_op@M@internal@Eigen@@V?$Matrix@M$02$02$0A@$02$02@3@@Eigen@@$02$00$0A@@Eigen@@UIndexBased@internal@2@M@internal@Eigen@@QEAA@AEBV?$Block@$$CBV?$CwiseNullaryOp@U?$scalar_identity_op@M@internal@Eigen@@V?$Matrix@M$02$02$0A@$02$02@3@@Eigen@@$02$00$0A@@2@@Z
	??0?$unary_evaluator@V?$Block@$$CBV?$CwiseUnaryOp@U?$scalar_opposite_op@M@internal@Eigen@@$$CBV?$Matrix@M$02$00$0A@$02$00@3@@Eigen@@$02$00$00@Eigen@@UIndexBased@internal@2@M@internal@Eigen@@QEAA@AEBV?$Block@$$CBV?$CwiseUnaryOp@U?$scalar_opposite_op@M@internal@Eigen@@$$CBV?$Matrix@M$02$00$0A@$02$00@3@@Eigen@@$02$00$00@2@@Z
	??0?$unary_evaluator@V?$CwiseUnaryOp@U?$scalar_abs2_op@M@internal@Eigen@@$$CBV?$CwiseBinaryOp@U?$scalar_difference_op@MM@internal@Eigen@@$$CBV?$Matrix@M$02$00$0A@$02$00@3@$$CBV43@@3@@Eigen@@UIndexBased@internal@2@M@internal@Eigen@@QEAA@AEBV?$CwiseUnaryOp@U?$scalar_abs2_op@M@internal@Eigen@@$$CBV?$CwiseBinaryOp@U?$scalar_difference_op@MM@internal@Eigen@@$$CBV?$Matrix@M$02$00$0A@$02$00@3@$$CBV43@@3@@2@@Z
	??0?$unary_evaluator@V?$CwiseUnaryOp@U?$scalar_abs2_op@M@internal@Eigen@@$$CBV?$Matrix@M$02$00$0A@$02$00@3@@Eigen@@UIndexBased@internal@2@M@internal@Eigen@@QEAA@AEBV?$CwiseUnaryOp@U?$scalar_abs2_op@M@internal@Eigen@@$$CBV?$Matrix@M$02$00$0A@$02$00@3@@2@@Z
	??0?$unary_evaluator@V?$CwiseUnaryOp@U?$scalar_abs2_op@M@internal@Eigen@@$$CBV?$Matrix@M$03$00$0A@$03$00@3@@Eigen@@UIndexBased@internal@2@M@internal@Eigen@@QEAA@AEBV?$CwiseUnaryOp@U?$scalar_abs2_op@M@internal@Eigen@@$$CBV?$Matrix@M$03$00$0A@$03$00@3@@2@@Z
	??0?$unary_evaluator@V?$CwiseUnaryOp@U?$scalar_opposite_op@M@internal@Eigen@@$$CBV?$Matrix@M$02$00$0A@$02$00@3@@Eigen@@UIndexBased@internal@2@M@internal@Eigen@@QEAA@AEBV?$CwiseUnaryOp@U?$scalar_opposite_op@M@internal@Eigen@@$$CBV?$Matrix@M$02$00$0A@$02$00@3@@2@@Z
	??0?$unary_evaluator@V?$Transpose@$$CBV?$Block@$$CBV?$Block@$$CBV?$Matrix@M$03$03$0A@$03$03@Eigen@@$02$02$0A@@Eigen@@$00$02$0A@@Eigen@@@Eigen@@UIndexBased@internal@2@M@internal@Eigen@@QEAA@AEBV?$Transpose@$$CBV?$Block@$$CBV?$Block@$$CBV?$Matrix@M$03$03$0A@$03$03@Eigen@@$02$02$0A@@Eigen@@$00$02$0A@@Eigen@@@2@@Z
	??0?$unary_evaluator@V?$Transpose@$$CBV?$Block@$$CBV?$Block@V?$Matrix@M$03$03$0A@$03$03@Eigen@@$02$02$0A@@Eigen@@$00$02$0A@@Eigen@@@Eigen@@UIndexBased@internal@2@M@internal@Eigen@@QEAA@AEBV?$Transpose@$$CBV?$Block@$$CBV?$Block@V?$Matrix@M$03$03$0A@$03$03@Eigen@@$02$02$0A@@Eigen@@$00$02$0A@@Eigen@@@2@@Z
	??0?$unique_ptr@USceneImpl@tucanow@@U?$default_delete@USceneImpl@tucanow@@@std@@@std@@QEAA@$$QEAV01@@Z
	??0?$variable_if_dynamic@_J$00@internal@Eigen@@QEAA@_J@Z
	??0?$variable_if_dynamic@_J$01@internal@Eigen@@QEAA@_J@Z
	??0?$variable_if_dynamic@_J$02@internal@Eigen@@QEAA@_J@Z
	??0?$variable_if_dynamic@_J$03@internal@Eigen@@QEAA@_J@Z
	??0?$variable_if_dynamic@_J$0?0@internal@Eigen@@QEAA@_J@Z
	??0?$variable_if_dynamic@_J$0A@@internal@Eigen@@QEAA@_J@Z
	??0?$variable_if_dynamicindex@_J$0A@@internal@Eigen@@QEAA@_J@Z
	??0?$vector@HV?$allocator@H@std@@@std@@QEAA@XZ
	??0?$vector@IV?$allocator@I@std@@@std@@QEAA@AEBV01@@Z
	??0?$vector@IV?$allocator@I@std@@@std@@QEAA@XZ
	??0?$vector@MV?$allocator@M@std@@@std@@QEAA@XZ
	??0?$vector@MV?$allocator@M@std@@@std@@QEAA@_KAEBV?$allocator@M@1@@Z
	??0?$vector@PEAVElement@GUI@Tucano@@V?$allocator@PEAVElement@GUI@Tucano@@@std@@@std@@QEAA@XZ
	??0?$vector@PEAVShader@Tucano@@V?$allocator@PEAVShader@Tucano@@@std@@@std@@QEAA@XZ
	??0?$vector@V?$Matrix@M$01$00$0A@$01$00@Eigen@@V?$allocator@V?$Matrix@M$01$00$0A@$01$00@Eigen@@@std@@@std@@QEAA@XZ
	??0?$vector@V?$Matrix@M$02$00$0A@$02$00@Eigen@@V?$allocator@V?$Matrix@M$02$00$0A@$02$00@Eigen@@@std@@@std@@QEAA@AEBV01@@Z
	??0?$vector@V?$Matrix@M$02$00$0A@$02$00@Eigen@@V?$allocator@V?$Matrix@M$02$00$0A@$02$00@Eigen@@@std@@@std@@QEAA@XZ
	??0?$vector@V?$Matrix@M$03$00$0A@$03$00@Eigen@@V?$allocator@V?$Matrix@M$03$00$0A@$03$00@Eigen@@@std@@@std@@QEAA@AEBV01@@Z
	??0?$vector@V?$Matrix@M$03$00$0A@$03$00@Eigen@@V?$allocator@V?$Matrix@M$03$00$0A@$03$00@Eigen@@@std@@@std@@QEAA@XZ
	??0?$vector@VVertexAttribute@Tucano@@V?$allocator@VVertexAttribute@Tucano@@@std@@@std@@QEAA@XZ
	??0Arrow@Shapes@Tucano@@QEAA@MMMMH@Z
	??0Base@GUI@Tucano@@QEAA@XZ
	??0Button@GUI@Tucano@@QEAA@HHHH@Z
	??0Button@GUI@Tucano@@QEAA@XZ
	??0Camera@Tucano@@QEAA@XZ
	??0Data@?$binary_evaluator@V?$CwiseBinaryOp@U?$not_equal_to@M@std@@$$CBV?$Matrix@M$01$00$0A@$01$00@Eigen@@$$CBV?$Block@V?$Matrix@M$02$00$0A@$02$00@Eigen@@$0?0$00$0A@@4@@Eigen@@UIndexBased@internal@2@U342@MM@internal@Eigen@@QEAA@AEBV?$CwiseBinaryOp@U?$not_equal_to@M@std@@$$CBV?$Matrix@M$01$00$0A@$01$00@Eigen@@$$CBV?$Block@V?$Matrix@M$02$00$0A@$02$00@Eigen@@$0?0$00$0A@@4@@3@@Z
	??0Data@?$binary_evaluator@V?$CwiseBinaryOp@U?$not_equal_to@M@std@@$$CBV?$Matrix@M$03$03$0A@$03$03@Eigen@@$$CBV?$CwiseNullaryOp@U?$scalar_identity_op@M@internal@Eigen@@V?$Matrix@M$03$03$0A@$03$03@3@@4@@Eigen@@UIndexBased@internal@2@U342@MM@internal@Eigen@@QEAA@AEBV?$CwiseBinaryOp@U?$not_equal_to@M@std@@$$CBV?$Matrix@M$03$03$0A@$03$03@Eigen@@$$CBV?$CwiseNullaryOp@U?$scalar_identity_op@M@internal@Eigen@@V?$Matrix@M$03$03$0A@$03$03@3@@4@@3@@Z
	??0Data@?$binary_evaluator@V?$CwiseBinaryOp@U?$scalar_conj_product_op@MM@internal@Eigen@@$$CBV?$Matrix@M$02$00$0A@$02$00@3@$$CBV43@@Eigen@@UIndexBased@internal@2@U342@MM@internal@Eigen@@QEAA@AEBV?$CwiseBinaryOp@U?$scalar_conj_product_op@MM@internal@Eigen@@$$CBV?$Matrix@M$02$00$0A@$02$00@3@$$CBV43@@3@@Z
	??0Data@?$binary_evaluator@V?$CwiseBinaryOp@U?$scalar_difference_op@MM@internal@Eigen@@$$CBV?$Matrix@M$01$00$0A@$01$00@3@$$CBV43@@Eigen@@UIndexBased@internal@2@U342@MM@internal@Eigen@@QEAA@AEBV?$CwiseBinaryOp@U?$scalar_difference_op@MM@internal@Eigen@@$$CBV?$Matrix@M$01$00$0A@$01$00@3@$$CBV43@@3@@Z
	??0Data@?$binary_evaluator@V?$CwiseBinaryOp@U?$scalar_difference_op@MM@internal@Eigen@@$$CBV?$Matrix@M$02$00$0A@$02$00@3@$$CBV43@@Eigen@@UIndexBased@internal@2@U342@MM@internal@Eigen@@QEAA@AEBV?$CwiseBinaryOp@U?$scalar_difference_op@MM@internal@Eigen@@$$CBV?$Matrix@M$02$00$0A@$02$00@3@$$CBV43@@3@@Z
	??0Data@?$binary_evaluator@V?$CwiseBinaryOp@U?$scalar_product_op@MM@internal@Eigen@@$$CBV?$CwiseNullaryOp@U?$scalar_constant_op@M@internal@Eigen@@$$CBV?$Matrix@M$02$00$0A@$02$00@3@@3@$$CBV?$Matrix@M$02$00$0A@$02$00@3@@Eigen@@UIndexBased@internal@2@U342@MM@internal@Eigen@@QEAA@AEBV?$CwiseBinaryOp@U?$scalar_product_op@MM@internal@Eigen@@$$CBV?$CwiseNullaryOp@U?$scalar_constant_op@M@internal@Eigen@@$$CBV?$Matrix@M$02$00$0A@$02$00@3@@3@$$CBV?$Matrix@M$02$00$0A@$02$00@3@@3@@Z
	??0Data@?$binary_evaluator@V?$CwiseBinaryOp@U?$scalar_product_op@MM@internal@Eigen@@$$CBV?$Matrix@M$02$00$0A@$02$00@3@$$CBV43@@Eigen@@UIndexBased@internal@2@U342@MM@internal@Eigen@@QEAA@AEBV?$CwiseBinaryOp@U?$scalar_product_op@MM@internal@Eigen@@$$CBV?$Matrix@M$02$00$0A@$02$00@3@$$CBV43@@3@@Z
	??0Data@?$binary_evaluator@V?$CwiseBinaryOp@U?$scalar_product_op@MM@internal@Eigen@@$$CBV?$Matrix@M$02$00$0A@$02$00@3@$$CBV?$CwiseNullaryOp@U?$scalar_constant_op@M@internal@Eigen@@$$CBV?$Matrix@M$02$00$0A@$02$00@3@@3@@Eigen@@UIndexBased@internal@2@U342@MM@internal@Eigen@@QEAA@AEBV?$CwiseBinaryOp@U?$scalar_product_op@MM@internal@Eigen@@$$CBV?$Matrix@M$02$00$0A@$02$00@3@$$CBV?$CwiseNullaryOp@U?$scalar_constant_op@M@internal@Eigen@@$$CBV?$Matrix@M$02$00$0A@$02$00@3@@3@@3@@Z
	??0Data@?$binary_evaluator@V?$CwiseBinaryOp@U?$scalar_product_op@MM@internal@Eigen@@$$CBV?$Transpose@$$CBV?$Block@$$CBV?$Block@$$CBV?$Matrix@M$03$03$0A@$03$03@Eigen@@$02$02$0A@@Eigen@@$00$02$0A@@Eigen@@@3@$$CBV?$Block@$$CBV?$Block@$$CBV?$Matrix@M$03$03$0A@$03$03@Eigen@@$02$00$00@Eigen@@$02$00$00@3@@Eigen@@UIndexBased@internal@2@U342@MM@internal@Eigen@@QEAA@AEBV?$CwiseBinaryOp@U?$scalar_product_op@MM@internal@Eigen@@$$CBV?$Transpose@$$CBV?$Block@$$CBV?$Block@$$CBV?$Matrix@M$03$03$0A@$03$03@Eigen@@$02$02$0A@@Eigen@@$00$02$0A@@Eigen@@@3@$$CBV?$Block@$$CBV?$Block@$$CBV?$Matrix@M$03$03$0A@$03$03@Eigen@@$02$00$00@Eigen@@$02$00$00@3@@3@@Z
	??0Data@?$binary_evaluator@V?$CwiseBinaryOp@U?$scalar_product_op@MM@internal@Eigen@@$$CBV?$Transpose@$$CBV?$Block@$$CBV?$Block@$$CBV?$Matrix@M$03$03$0A@$03$03@Eigen@@$02$02$0A@@Eigen@@$00$02$0A@@Eigen@@@3@$$CBV?$Block@$$CBV?$Block@$$CBV?$Matrix@M$03$03$0A@$03$03@Eigen@@$02$02$0A@@Eigen@@$02$00$00@3@@Eigen@@UIndexBased@internal@2@U342@MM@internal@Eigen@@QEAA@AEBV?$CwiseBinaryOp@U?$scalar_product_op@MM@internal@Eigen@@$$CBV?$Transpose@$$CBV?$Block@$$CBV?$Block@$$CBV?$Matrix@M$03$03$0A@$03$03@Eigen@@$02$02$0A@@Eigen@@$00$02$0A@@Eigen@@@3@$$CBV?$Block@$$CBV?$Block@$$CBV?$Matrix@M$03$03$0A@$03$03@Eigen@@$02$02$0A@@Eigen@@$02$00$00@3@@3@@Z
	??0Data@?$binary_evaluator@V?$CwiseBinaryOp@U?$scalar_product_op@MM@internal@Eigen@@$$CBV?$Transpose@$$CBV?$Block@$$CBV?$Block@V?$Matrix@M$03$03$0A@$03$03@Eigen@@$02$02$0A@@Eigen@@$00$02$0A@@Eigen@@@3@$$CBV?$Block@$$CBV?$CwiseUnaryOp@U?$scalar_opposite_op@M@internal@Eigen@@$$CBV?$Matrix@M$02$00$0A@$02$00@3@@Eigen@@$02$00$00@3@@Eigen@@UIndexBased@internal@2@U342@MM@internal@Eigen@@QEAA@AEBV?$CwiseBinaryOp@U?$scalar_product_op@MM@internal@Eigen@@$$CBV?$Transpose@$$CBV?$Block@$$CBV?$Block@V?$Matrix@M$03$03$0A@$03$03@Eigen@@$02$02$0A@@Eigen@@$00$02$0A@@Eigen@@@3@$$CBV?$Block@$$CBV?$CwiseUnaryOp@U?$scalar_opposite_op@M@internal@Eigen@@$$CBV?$Matrix@M$02$00$0A@$02$00@3@@Eigen@@$02$00$00@3@@3@@Z
	??0Data@?$binary_evaluator@V?$CwiseBinaryOp@U?$scalar_product_op@MM@internal@Eigen@@$$CBV?$Transpose@$$CBV?$Block@$$CBV?$Block@V?$Matrix@M$03$03$0A@$03$03@Eigen@@$02$02$0A@@Eigen@@$00$02$0A@@Eigen@@@3@$$CBV?$Block@$$CBV?$Matrix@M$02$00$0A@$02$00@Eigen@@$02$00$00@3@@Eigen@@UIndexBased@internal@2@U342@MM@internal@Eigen@@QEAA@AEBV?$CwiseBinaryOp@U?$scalar_product_op@MM@internal@Eigen@@$$CBV?$Transpose@$$CBV?$Block@$$CBV?$Block@V?$Matrix@M$03$03$0A@$03$03@Eigen@@$02$02$0A@@Eigen@@$00$02$0A@@Eigen@@@3@$$CBV?$Block@$$CBV?$Matrix@M$02$00$0A@$02$00@Eigen@@$02$00$00@3@@3@@Z
	??0Data@?$binary_evaluator@V?$CwiseBinaryOp@U?$scalar_product_op@MM@internal@Eigen@@$$CBV?$Transpose@$$CBV?$Block@$$CBV?$Block@V?$Matrix@M$03$03$0A@$03$03@Eigen@@$02$02$0A@@Eigen@@$00$02$0A@@Eigen@@@3@$$CBV?$Block@$$CBV?$Matrix@M$02$02$0A@$02$02@Eigen@@$02$00$00@3@@Eigen@@UIndexBased@internal@2@U342@MM@internal@Eigen@@QEAA@AEBV?$CwiseBinaryOp@U?$scalar_product_op@MM@internal@Eigen@@$$CBV?$Transpose@$$CBV?$Block@$$CBV?$Block@V?$Matrix@M$03$03$0A@$03$03@Eigen@@$02$02$0A@@Eigen@@$00$02$0A@@Eigen@@@3@$$CBV?$Block@$$CBV?$Matrix@M$02$02$0A@$02$02@Eigen@@$02$00$00@3@@3@@Z
	??0Data@?$binary_evaluator@V?$CwiseBinaryOp@U?$scalar_quotient_op@MM@internal@Eigen@@$$CBV?$Matrix@M$02$00$0A@$02$00@3@$$CBV?$CwiseNullaryOp@U?$scalar_constant_op@M@internal@Eigen@@$$CBV?$Matrix@M$02$00$0A@$02$00@3@@3@@Eigen@@UIndexBased@internal@2@U342@MM@internal@Eigen@@QEAA@AEBV?$CwiseBinaryOp@U?$scalar_quotient_op@MM@internal@Eigen@@$$CBV?$Matrix@M$02$00$0A@$02$00@3@$$CBV?$CwiseNullaryOp@U?$scalar_constant_op@M@internal@Eigen@@$$CBV?$Matrix@M$02$00$0A@$02$00@3@@3@@3@@Z
	??0Data@?$binary_evaluator@V?$CwiseBinaryOp@U?$scalar_quotient_op@MM@internal@Eigen@@$$CBV?$Matrix@M$03$00$0A@$03$00@3@$$CBV?$CwiseNullaryOp@U?$scalar_constant_op@M@internal@Eigen@@$$CBV?$Matrix@M$03$00$0A@$03$00@3@@3@@Eigen@@UIndexBased@internal@2@U342@MM@internal@Eigen@@QEAA@AEBV?$CwiseBinaryOp@U?$scalar_quotient_op@MM@internal@Eigen@@$$CBV?$Matrix@M$03$00$0A@$03$00@3@$$CBV?$CwiseNullaryOp@U?$scalar_constant_op@M@internal@Eigen@@$$CBV?$Matrix@M$03$00$0A@$03$00@3@@3@@3@@Z
	??0Data@?$binary_evaluator@V?$CwiseBinaryOp@U?$scalar_sum_op@MM@internal@Eigen@@$$CBV?$ArrayWrapper@$$CBV?$CwiseBinaryOp@U?$scalar_product_op@MM@internal@Eigen@@$$CBV?$Matrix@M$02$00$0A@$02$00@3@$$CBV43@@Eigen@@@3@$$CBV?$CwiseNullaryOp@U?$scalar_constant_op@M@internal@Eigen@@$$CBV?$Array@M$02$00$0A@$02$00@3@@3@@Eigen@@UIndexBased@internal@2@U342@MM@internal@Eigen@@QEAA@AEBV?$CwiseBinaryOp@U?$scalar_sum_op@MM@internal@Eigen@@$$CBV?$ArrayWrapper@$$CBV?$CwiseBinaryOp@U?$scalar_product_op@MM@internal@Eigen@@$$CBV?$Matrix@M$02$00$0A@$02$00@3@$$CBV43@@Eigen@@@3@$$CBV?$CwiseNullaryOp@U?$scalar_constant_op@M@internal@Eigen@@$$CBV?$Array@M$02$00$0A@$02$00@3@@3@@3@@Z
	??0Data@?$binary_evaluator@V?$CwiseBinaryOp@U?$scalar_sum_op@MM@internal@Eigen@@$$CBV?$CwiseBinaryOp@U?$scalar_sum_op@MM@internal@Eigen@@$$CBV?$Matrix@M$02$00$0A@$02$00@3@$$CBV?$CwiseBinaryOp@U?$scalar_product_op@MM@internal@Eigen@@$$CBV?$CwiseNullaryOp@U?$scalar_constant_op@M@internal@Eigen@@$$CBV?$Matrix@M$02$00$0A@$02$00@3@@3@$$CBV?$Matrix@M$02$00$0A@$02$00@3@@3@@3@$$CBV?$Matrix@M$02$00$0A@$02$00@3@@Eigen@@UIndexBased@internal@2@U342@MM@internal@Eigen@@QEAA@AEBV?$CwiseBinaryOp@U?$scalar_sum_op@MM@internal@Eigen@@$$CBV?$CwiseBinaryOp@U?$scalar_sum_op@MM@internal@Eigen@@$$CBV?$Matrix@M$02$00$0A@$02$00@3@$$CBV?$CwiseBinaryOp@U?$scalar_product_op@MM@internal@Eigen@@$$CBV?$CwiseNullaryOp@U?$scalar_constant_op@M@internal@Eigen@@$$CBV?$Matrix@M$02$00$0A@$02$00@3@@3@$$CBV?$Matrix@M$02$00$0A@$02$00@3@@3@@3@$$CBV?$Matrix@M$02$00$0A@$02$00@3@@3@@Z
	??0Data@?$binary_evaluator@V?$CwiseBinaryOp@U?$scalar_sum_op@MM@internal@Eigen@@$$CBV?$Matrix@M$02$00$0A@$02$00@3@$$CBV43@@Eigen@@UIndexBased@internal@2@U342@MM@internal@Eigen@@QEAA@AEBV?$CwiseBinaryOp@U?$scalar_sum_op@MM@internal@Eigen@@$$CBV?$Matrix@M$02$00$0A@$02$00@3@$$CBV43@@3@@Z
	??0Data@?$binary_evaluator@V?$CwiseBinaryOp@U?$scalar_sum_op@MM@internal@Eigen@@$$CBV?$Matrix@M$02$00$0A@$02$00@3@$$CBV?$CwiseBinaryOp@U?$scalar_product_op@MM@internal@Eigen@@$$CBV?$CwiseNullaryOp@U?$scalar_constant_op@M@internal@Eigen@@$$CBV?$Matrix@M$02$00$0A@$02$00@3@@3@$$CBV?$Matrix@M$02$00$0A@$02$00@3@@3@@Eigen@@UIndexBased@internal@2@U342@MM@internal@Eigen@@QEAA@AEBV?$CwiseBinaryOp@U?$scalar_sum_op@MM@internal@Eigen@@$$CBV?$Matrix@M$02$00$0A@$02$00@3@$$CBV?$CwiseBinaryOp@U?$scalar_product_op@MM@internal@Eigen@@$$CBV?$CwiseNullaryOp@U?$scalar_constant_op@M@internal@Eigen@@$$CBV?$Matrix@M$02$00$0A@$02$00@3@@3@$$CBV?$Matrix@M$02$00$0A@$02$00@3@@3@@3@@Z
	??0Data@?$binary_evaluator@V?$CwiseBinaryOp@U?$scalar_sum_op@MM@internal@Eigen@@$$CBV?$Product@V?$Block@$$CBV?$Matrix@M$03$03$0A@$03$03@Eigen@@$02$02$0A@@Eigen@@V?$Block@$$CBV?$Matrix@M$03$03$0A@$03$03@Eigen@@$02$00$00@2@$0A@@3@$$CBV?$Block@$$CBV?$Matrix@M$03$03$0A@$03$03@Eigen@@$02$00$00@3@@Eigen@@UIndexBased@internal@2@U342@MM@internal@Eigen@@QEAA@AEBV?$CwiseBinaryOp@U?$scalar_sum_op@MM@internal@Eigen@@$$CBV?$Product@V?$Block@$$CBV?$Matrix@M$03$03$0A@$03$03@Eigen@@$02$02$0A@@Eigen@@V?$Block@$$CBV?$Matrix@M$03$03$0A@$03$03@Eigen@@$02$00$00@2@$0A@@3@$$CBV?$Block@$$CBV?$Matrix@M$03$03$0A@$03$03@Eigen@@$02$00$00@3@@3@@Z
	??0Data@?$unary_evaluator@V?$CwiseUnaryOp@U?$scalar_abs2_op@M@internal@Eigen@@$$CBV?$CwiseBinaryOp@U?$scalar_difference_op@MM@internal@Eigen@@$$CBV?$Matrix@M$02$00$0A@$02$00@3@$$CBV43@@3@@Eigen@@UIndexBased@internal@2@M@internal@Eigen@@QEAA@AEBV?$CwiseUnaryOp@U?$scalar_abs2_op@M@internal@Eigen@@$$CBV?$CwiseBinaryOp@U?$scalar_difference_op@MM@internal@Eigen@@$$CBV?$Matrix@M$02$00$0A@$02$00@3@$$CBV43@@3@@3@@Z
	??0Data@?$unary_evaluator@V?$CwiseUnaryOp@U?$scalar_abs2_op@M@internal@Eigen@@$$CBV?$Matrix@M$02$00$0A@$02$00@3@@Eigen@@UIndexBased@internal@2@M@internal@Eigen@@QEAA@AEBV?$CwiseUnaryOp@U?$scalar_abs2_op@M@internal@Eigen@@$$CBV?$Matrix@M$02$00$0A@$02$00@3@@3@@Z
	??0Data@?$unary_evaluator@V?$CwiseUnaryOp@U?$scalar_abs2_op@M@internal@Eigen@@$$CBV?$Matrix@M$03$00$0A@$03$00@3@@Eigen@@UIndexBased@internal@2@M@internal@Eigen@@QEAA@AEBV?$CwiseUnaryOp@U?$scalar_abs2_op@M@internal@Eigen@@$$CBV?$Matrix@M$03$00$0A@$03$00@3@@3@@Z
	??0Data@?$unary_evaluator@V?$CwiseUnaryOp@U?$scalar_opposite_op@M@internal@Eigen@@$$CBV?$Matrix@M$02$00$0A@$02$00@3@@Eigen@@UIndexBased@internal@2@M@internal@Eigen@@QEAA@AEBV?$CwiseUnaryOp@U?$scalar_opposite_op@M@internal@Eigen@@$$CBV?$Matrix@M$02$00$0A@$02$00@3@@3@@Z
	??0DirectionalTrackball@Tucano@@QEAA@XZ
	??0Effect@Tucano@@QEAA@V?$basic_string@DU?$char_traits@D@std@@V?$allocator@D@2@@std@@@Z
	??0Element@GUI@Tucano@@QEAA@XZ
	??0GroupBox@GUI@Tucano@@QEAA@HHHH@Z
	??0GroupBox@GUI@Tucano@@QEAA@XZ
	??0Gui@tucanow@@QEAA@AEAVScene@1@@Z
	??0GuiImpl@tucanow@@QEAA@XZ
	??0Label@GUI@Tucano@@QEAA@XZ
	??0Mesh@Tucano@@QEAA@XZ
	??0Model@Tucano@@QEAA@XZ
	??0Phong@Effects@Tucano@@QEAA@XZ
	??0Quad@Shapes@Tucano@@QEAA@XZ
	??0Scene@tucanow@@QEAA@$$QEAV01@@Z
	??0Scene@tucanow@@QEAA@XZ
	??0SceneImpl@tucanow@@QEAA@XZ
	??0SelectButton@GUI@Tucano@@QEAA@HHHH@Z
	??0SelectButton@GUI@Tucano@@QEAA@XZ
	??0Shader@Tucano@@QEAA@V?$basic_string@DU?$char_traits@D@std@@V?$allocator@D@2@@std@@00000@Z
	??0Shader@Tucano@@QEAA@V?$basic_string@DU?$char_traits@D@std@@V?$allocator@D@2@@std@@0@Z
	??0Shader@Tucano@@QEAA@XZ
	??0Slider@GUI@Tucano@@QEAA@HHHH@Z
	??0Slider@GUI@Tucano@@QEAA@XZ
	??0Texture@Tucano@@QEAA@XZ
	??0TextureManager@Tucano@@AEAA@XZ
	??0Trackball@Tucano@@QEAA@V?$basic_string@DU?$char_traits@D@std@@V?$allocator@D@2@@std@@@Z
	??0VertexAttribute@Tucano@@QEAA@$$QEAV01@@Z
	??0VertexAttribute@Tucano@@QEAA@AEBV01@@Z
	??0VertexAttribute@Tucano@@QEAA@V?$basic_string@DU?$char_traits@D@std@@V?$allocator@D@2@@std@@HHII@Z
	??0Wireframe@Effects@Tucano@@QEAA@XZ
	??0_Bxty@?$_String_val@U?$_Simple_types@D@std@@@std@@QEAA@XZ
	??0_Container_base12@std@@QEAA@XZ
	??0_Container_proxy@std@@QEAA@XZ
	??0_Iterator_base12@std@@QEAA@XZ
	??0_Ref_count_base@std@@IEAA@XZ
	??0_Sentry_base@?$basic_istream@DU?$char_traits@D@std@@@std@@QEAA@AEAV12@@Z
	??0_Sentry_base@?$basic_ostream@DU?$char_traits@D@std@@@std@@QEAA@AEAV12@@Z
	??0all_t@internal@Eigen@@QEAA@XZ
	??0bad_cast@std@@QEAA@AEBV01@@Z
	??0bad_cast@std@@QEAA@XZ
	??0exception@std@@QEAA@AEBV01@@Z
	??0exception@std@@QEAA@QEBD@Z
	??0exception@std@@QEAA@QEBDH@Z
	??0logic_error@std@@QEAA@AEBV01@@Z
	??0logic_error@std@@QEAA@PEBD@Z
	??0sentry@?$basic_istream@DU?$char_traits@D@std@@@std@@QEAA@AEAV12@_N@Z
	??0sentry@?$basic_ostream@DU?$char_traits@D@std@@@std@@QEAA@AEAV12@@Z
	??1?$CommaInitializer@V?$Matrix@H$01$00$0A@$01$00@Eigen@@@Eigen@@QEAA@XZ
	??1?$CommaInitializer@V?$Matrix@M$01$00$0A@$01$00@Eigen@@@Eigen@@QEAA@XZ
	??1?$CommaInitializer@V?$Matrix@M$02$00$0A@$02$00@Eigen@@@Eigen@@QEAA@XZ
	??1?$CommaInitializer@V?$Matrix@M$03$00$0A@$03$00@Eigen@@@Eigen@@QEAA@XZ
	??1?$_Compressed_pair@V?$allocator@D@std@@V?$_String_val@U?$_Simple_types@D@std@@@2@$00@std@@QEAA@XZ
	??1?$_Func_class@X$$V@std@@QEAA@XZ
	??1?$_Func_class@XH@std@@QEAA@XZ
	??1?$_Func_class@XM@std@@QEAA@XZ
	??1?$_Ref_count_resource@PEAIV<lambda_0eb331034ec64f284d3276d5eb9bc498>@@@std@@UEAA@XZ
	??1?$_Ref_count_resource@PEAIV<lambda_1d192c76f25f01443164c3008efd2f7a>@@@std@@UEAA@XZ
	??1?$_Ref_count_resource@PEAIV<lambda_20810bc6c307e6c094ca4ad02a7e2c1b>@@@std@@UEAA@XZ
	??1?$_Ref_count_resource@PEAIV<lambda_297a8ab7031fb168e0f42b0ceacfb411>@@@std@@UEAA@XZ
	??1?$_Ref_count_resource@PEAIV<lambda_3a3d10b6c3efd1a8679460d8f1128bfe>@@@std@@UEAA@XZ
	??1?$_Ref_count_resource@PEAIV<lambda_42565b2b1ff40c7ec619f6b0eefb855d>@@@std@@UEAA@XZ
	??1?$_Ref_count_resource@PEAIV<lambda_59114e1161731b809247c9c49615e8bc>@@@std@@UEAA@XZ
	??1?$_Ref_count_resource@PEAIV<lambda_7817004a68f0dccb72be0e8c40851883>@@@std@@UEAA@XZ
	??1?$_Ref_count_resource@PEAIV<lambda_b660b692aa17cad6c64c8293c384ce89>@@@std@@UEAA@XZ
	??1?$_Ref_count_resource@PEAIV<lambda_ce9ec88a1648543eec0dbc746d8a6173>@@@std@@UEAA@XZ
	??1?$_Ref_count_resource@PEAIV<lambda_ef956bcedf99c3666c1c91f23b99b48b>@@@std@@UEAA@XZ
	??1?$_String_alloc@U?$_String_base_types@DV?$allocator@D@std@@@std@@@std@@QEAA@XZ
	??1?$_String_const_iterator@V?$_String_val@U?$_Simple_types@D@std@@@std@@@std@@QEAA@XZ
	??1?$_String_iterator@V?$_String_val@U?$_Simple_types@D@std@@@std@@@std@@QEAA@XZ
	??1?$_String_val@U?$_Simple_types@D@std@@@std@@QEAA@XZ
	??1?$_Uninitialized_backout_al@PEAV?$Matrix@M$01$00$0A@$01$00@Eigen@@V?$allocator@V?$Matrix@M$01$00$0A@$01$00@Eigen@@@std@@@std@@QEAA@XZ
	??1?$_Uninitialized_backout_al@PEAV?$Matrix@M$02$00$0A@$02$00@Eigen@@V?$allocator@V?$Matrix@M$02$00$0A@$02$00@Eigen@@@std@@@std@@QEAA@XZ
	??1?$_Uninitialized_backout_al@PEAV?$Matrix@M$03$00$0A@$03$00@Eigen@@V?$allocator@V?$Matrix@M$03$00$0A@$03$00@Eigen@@@std@@@std@@QEAA@XZ
	??1?$_Uninitialized_backout_al@PEAVVertexAttribute@Tucano@@V?$allocator@VVertexAttribute@Tucano@@@std@@@std@@QEAA@XZ
	??1?$_Vector_alloc@U?$_Vec_base_types@HV?$allocator@H@std@@@std@@@std@@QEAA@XZ
	??1?$_Vector_alloc@U?$_Vec_base_types@IV?$allocator@I@std@@@std@@@std@@QEAA@XZ
	??1?$_Vector_alloc@U?$_Vec_base_types@MV?$allocator@M@std@@@std@@@std@@QEAA@XZ
	??1?$_Vector_alloc@U?$_Vec_base_types@PEAVElement@GUI@Tucano@@V?$allocator@PEAVElement@GUI@Tucano@@@std@@@std@@@std@@QEAA@XZ
	??1?$_Vector_alloc@U?$_Vec_base_types@PEAVShader@Tucano@@V?$allocator@PEAVShader@Tucano@@@std@@@std@@@std@@QEAA@XZ
	??1?$_Vector_alloc@U?$_Vec_base_types@V?$Matrix@M$01$00$0A@$01$00@Eigen@@V?$allocator@V?$Matrix@M$01$00$0A@$01$00@Eigen@@@std@@@std@@@std@@QEAA@XZ
	??1?$_Vector_alloc@U?$_Vec_base_types@V?$Matrix@M$02$00$0A@$02$00@Eigen@@V?$allocator@V?$Matrix@M$02$00$0A@$02$00@Eigen@@@std@@@std@@@std@@QEAA@XZ
	??1?$_Vector_alloc@U?$_Vec_base_types@V?$Matrix@M$03$00$0A@$03$00@Eigen@@V?$allocator@V?$Matrix@M$03$00$0A@$03$00@Eigen@@@std@@@std@@@std@@QEAA@XZ
	??1?$_Vector_alloc@U?$_Vec_base_types@VVertexAttribute@Tucano@@V?$allocator@VVertexAttribute@Tucano@@@std@@@std@@@std@@QEAA@XZ
	??1?$basic_filebuf@DU?$char_traits@D@std@@@std@@UEAA@XZ
	??1?$basic_ifstream@DU?$char_traits@D@std@@@std@@UEAA@XZ
	??1?$basic_string@DU?$char_traits@D@std@@V?$allocator@D@2@@std@@QEAA@XZ
	??1?$binary_evaluator@V?$CwiseBinaryOp@U?$not_equal_to@M@std@@$$CBV?$Matrix@M$01$00$0A@$01$00@Eigen@@$$CBV?$Block@V?$Matrix@M$02$00$0A@$02$00@Eigen@@$0?0$00$0A@@4@@Eigen@@UIndexBased@internal@2@U342@MM@internal@Eigen@@QEAA@XZ
	??1?$binary_evaluator@V?$CwiseBinaryOp@U?$not_equal_to@M@std@@$$CBV?$Matrix@M$03$03$0A@$03$03@Eigen@@$$CBV?$CwiseNullaryOp@U?$scalar_identity_op@M@internal@Eigen@@V?$Matrix@M$03$03$0A@$03$03@3@@4@@Eigen@@UIndexBased@internal@2@U342@MM@internal@Eigen@@QEAA@XZ
	??1?$binary_evaluator@V?$CwiseBinaryOp@U?$scalar_conj_product_op@MM@internal@Eigen@@$$CBV?$Matrix@M$02$00$0A@$02$00@3@$$CBV43@@Eigen@@UIndexBased@internal@2@U342@MM@internal@Eigen@@QEAA@XZ
	??1?$binary_evaluator@V?$CwiseBinaryOp@U?$scalar_difference_op@MM@internal@Eigen@@$$CBV?$Matrix@M$01$00$0A@$01$00@3@$$CBV43@@Eigen@@UIndexBased@internal@2@U342@MM@internal@Eigen@@QEAA@XZ
	??1?$binary_evaluator@V?$CwiseBinaryOp@U?$scalar_difference_op@MM@internal@Eigen@@$$CBV?$Matrix@M$02$00$0A@$02$00@3@$$CBV43@@Eigen@@UIndexBased@internal@2@U342@MM@internal@Eigen@@QEAA@XZ
	??1?$binary_evaluator@V?$CwiseBinaryOp@U?$scalar_product_op@MM@internal@Eigen@@$$CBV?$CwiseNullaryOp@U?$scalar_constant_op@M@internal@Eigen@@$$CBV?$Matrix@M$02$00$0A@$02$00@3@@3@$$CBV?$Matrix@M$02$00$0A@$02$00@3@@Eigen@@UIndexBased@internal@2@U342@MM@internal@Eigen@@QEAA@XZ
	??1?$binary_evaluator@V?$CwiseBinaryOp@U?$scalar_product_op@MM@internal@Eigen@@$$CBV?$Matrix@M$02$00$0A@$02$00@3@$$CBV43@@Eigen@@UIndexBased@internal@2@U342@MM@internal@Eigen@@QEAA@XZ
	??1?$binary_evaluator@V?$CwiseBinaryOp@U?$scalar_product_op@MM@internal@Eigen@@$$CBV?$Matrix@M$02$00$0A@$02$00@3@$$CBV?$CwiseNullaryOp@U?$scalar_constant_op@M@internal@Eigen@@$$CBV?$Matrix@M$02$00$0A@$02$00@3@@3@@Eigen@@UIndexBased@internal@2@U342@MM@internal@Eigen@@QEAA@XZ
	??1?$binary_evaluator@V?$CwiseBinaryOp@U?$scalar_product_op@MM@internal@Eigen@@$$CBV?$Transpose@$$CBV?$Block@$$CBV?$Block@$$CBV?$Matrix@M$03$03$0A@$03$03@Eigen@@$02$02$0A@@Eigen@@$00$02$0A@@Eigen@@@3@$$CBV?$Block@$$CBV?$Block@$$CBV?$Matrix@M$03$03$0A@$03$03@Eigen@@$02$00$00@Eigen@@$02$00$00@3@@Eigen@@UIndexBased@internal@2@U342@MM@internal@Eigen@@QEAA@XZ
	??1?$binary_evaluator@V?$CwiseBinaryOp@U?$scalar_product_op@MM@internal@Eigen@@$$CBV?$Transpose@$$CBV?$Block@$$CBV?$Block@$$CBV?$Matrix@M$03$03$0A@$03$03@Eigen@@$02$02$0A@@Eigen@@$00$02$0A@@Eigen@@@3@$$CBV?$Block@$$CBV?$Block@$$CBV?$Matrix@M$03$03$0A@$03$03@Eigen@@$02$02$0A@@Eigen@@$02$00$00@3@@Eigen@@UIndexBased@internal@2@U342@MM@internal@Eigen@@QEAA@XZ
	??1?$binary_evaluator@V?$CwiseBinaryOp@U?$scalar_product_op@MM@internal@Eigen@@$$CBV?$Transpose@$$CBV?$Block@$$CBV?$Block@V?$Matrix@M$03$03$0A@$03$03@Eigen@@$02$02$0A@@Eigen@@$00$02$0A@@Eigen@@@3@$$CBV?$Block@$$CBV?$CwiseUnaryOp@U?$scalar_opposite_op@M@internal@Eigen@@$$CBV?$Matrix@M$02$00$0A@$02$00@3@@Eigen@@$02$00$00@3@@Eigen@@UIndexBased@internal@2@U342@MM@internal@Eigen@@QEAA@XZ
	??1?$binary_evaluator@V?$CwiseBinaryOp@U?$scalar_product_op@MM@internal@Eigen@@$$CBV?$Transpose@$$CBV?$Block@$$CBV?$Block@V?$Matrix@M$03$03$0A@$03$03@Eigen@@$02$02$0A@@Eigen@@$00$02$0A@@Eigen@@@3@$$CBV?$Block@$$CBV?$Matrix@M$02$00$0A@$02$00@Eigen@@$02$00$00@3@@Eigen@@UIndexBased@internal@2@U342@MM@internal@Eigen@@QEAA@XZ
	??1?$binary_evaluator@V?$CwiseBinaryOp@U?$scalar_product_op@MM@internal@Eigen@@$$CBV?$Transpose@$$CBV?$Block@$$CBV?$Block@V?$Matrix@M$03$03$0A@$03$03@Eigen@@$02$02$0A@@Eigen@@$00$02$0A@@Eigen@@@3@$$CBV?$Block@$$CBV?$Matrix@M$02$02$0A@$02$02@Eigen@@$02$00$00@3@@Eigen@@UIndexBased@internal@2@U342@MM@internal@Eigen@@QEAA@XZ
	??1?$binary_evaluator@V?$CwiseBinaryOp@U?$scalar_quotient_op@MM@internal@Eigen@@$$CBV?$Matrix@M$02$00$0A@$02$00@3@$$CBV?$CwiseNullaryOp@U?$scalar_constant_op@M@internal@Eigen@@$$CBV?$Matrix@M$02$00$0A@$02$00@3@@3@@Eigen@@UIndexBased@internal@2@U342@MM@internal@Eigen@@QEAA@XZ
	??1?$binary_evaluator@V?$CwiseBinaryOp@U?$scalar_quotient_op@MM@internal@Eigen@@$$CBV?$Matrix@M$03$00$0A@$03$00@3@$$CBV?$CwiseNullaryOp@U?$scalar_constant_op@M@internal@Eigen@@$$CBV?$Matrix@M$03$00$0A@$03$00@3@@3@@Eigen@@UIndexBased@internal@2@U342@MM@internal@Eigen@@QEAA@XZ
	??1?$binary_evaluator@V?$CwiseBinaryOp@U?$scalar_sum_op@MM@internal@Eigen@@$$CBV?$ArrayWrapper@$$CBV?$CwiseBinaryOp@U?$scalar_product_op@MM@internal@Eigen@@$$CBV?$Matrix@M$02$00$0A@$02$00@3@$$CBV43@@Eigen@@@3@$$CBV?$CwiseNullaryOp@U?$scalar_constant_op@M@internal@Eigen@@$$CBV?$Array@M$02$00$0A@$02$00@3@@3@@Eigen@@UIndexBased@internal@2@U342@MM@internal@Eigen@@QEAA@XZ
	??1?$binary_evaluator@V?$CwiseBinaryOp@U?$scalar_sum_op@MM@internal@Eigen@@$$CBV?$CwiseBinaryOp@U?$scalar_sum_op@MM@internal@Eigen@@$$CBV?$Matrix@M$02$00$0A@$02$00@3@$$CBV?$CwiseBinaryOp@U?$scalar_product_op@MM@internal@Eigen@@$$CBV?$CwiseNullaryOp@U?$scalar_constant_op@M@internal@Eigen@@$$CBV?$Matrix@M$02$00$0A@$02$00@3@@3@$$CBV?$Matrix@M$02$00$0A@$02$00@3@@3@@3@$$CBV?$Matrix@M$02$00$0A@$02$00@3@@Eigen@@UIndexBased@internal@2@U342@MM@internal@Eigen@@QEAA@XZ
	??1?$binary_evaluator@V?$CwiseBinaryOp@U?$scalar_sum_op@MM@internal@Eigen@@$$CBV?$Matrix@M$02$00$0A@$02$00@3@$$CBV43@@Eigen@@UIndexBased@internal@2@U342@MM@internal@Eigen@@QEAA@XZ
	??1?$binary_evaluator@V?$CwiseBinaryOp@U?$scalar_sum_op@MM@internal@Eigen@@$$CBV?$Matrix@M$02$00$0A@$02$00@3@$$CBV?$CwiseBinaryOp@U?$scalar_product_op@MM@internal@Eigen@@$$CBV?$CwiseNullaryOp@U?$scalar_constant_op@M@internal@Eigen@@$$CBV?$Matrix@M$02$00$0A@$02$00@3@@3@$$CBV?$Matrix@M$02$00$0A@$02$00@3@@3@@Eigen@@UIndexBased@internal@2@U342@MM@internal@Eigen@@QEAA@XZ
	??1?$binary_evaluator@V?$CwiseBinaryOp@U?$scalar_sum_op@MM@internal@Eigen@@$$CBV?$Product@V?$Block@$$CBV?$Matrix@M$03$03$0A@$03$03@Eigen@@$02$02$0A@@Eigen@@V?$Block@$$CBV?$Matrix@M$03$03$0A@$03$03@Eigen@@$02$00$00@2@$0A@@3@$$CBV?$Block@$$CBV?$Matrix@M$03$03$0A@$03$03@Eigen@@$02$00$00@3@@Eigen@@UIndexBased@internal@2@U342@MM@internal@Eigen@@QEAA@XZ
	??1?$block_evaluator@$$CBV?$Block@$$CBV?$Matrix@M$03$03$0A@$03$03@Eigen@@$02$00$00@Eigen@@$02$00$00$00@internal@Eigen@@QEAA@XZ
	??1?$block_evaluator@$$CBV?$Block@$$CBV?$Matrix@M$03$03$0A@$03$03@Eigen@@$02$02$0A@@Eigen@@$00$02$0A@$00@internal@Eigen@@QEAA@XZ
	??1?$block_evaluator@$$CBV?$Block@$$CBV?$Matrix@M$03$03$0A@$03$03@Eigen@@$02$02$0A@@Eigen@@$02$00$00$00@internal@Eigen@@QEAA@XZ
	??1?$block_evaluator@$$CBV?$Block@V?$Matrix@M$03$03$0A@$03$03@Eigen@@$02$02$0A@@Eigen@@$00$02$0A@$00@internal@Eigen@@QEAA@XZ
	??1?$block_evaluator@$$CBV?$CwiseNullaryOp@U?$scalar_identity_op@M@internal@Eigen@@V?$Matrix@M$02$02$0A@$02$02@3@@Eigen@@$02$00$0A@$0A@@internal@Eigen@@QEAA@XZ
	??1?$block_evaluator@$$CBV?$CwiseUnaryOp@U?$scalar_opposite_op@M@internal@Eigen@@$$CBV?$Matrix@M$02$00$0A@$02$00@3@@Eigen@@$02$00$00$0A@@internal@Eigen@@QEAA@XZ
	??1?$block_evaluator@$$CBV?$Matrix@M$02$00$0A@$02$00@Eigen@@$02$00$00$00@internal@Eigen@@QEAA@XZ
	??1?$block_evaluator@$$CBV?$Matrix@M$02$02$0A@$02$02@Eigen@@$02$00$00$00@internal@Eigen@@QEAA@XZ
	??1?$block_evaluator@$$CBV?$Matrix@M$03$03$0A@$03$03@Eigen@@$02$00$00$00@internal@Eigen@@QEAA@XZ
	??1?$block_evaluator@$$CBV?$Matrix@M$03$03$0A@$03$03@Eigen@@$02$02$0A@$00@internal@Eigen@@QEAA@XZ
	??1?$block_evaluator@V?$Matrix@M$02$00$0A@$02$00@Eigen@@$0?0$00$0A@$00@internal@Eigen@@QEAA@XZ
	??1?$block_evaluator@V?$Matrix@M$03$00$0A@$03$00@Eigen@@$02$00$0A@$00@internal@Eigen@@QEAA@XZ
	??1?$block_evaluator@V?$Matrix@M$03$03$0A@$03$03@Eigen@@$00$02$0A@$00@internal@Eigen@@QEAA@XZ
	??1?$block_evaluator@V?$Matrix@M$03$03$0A@$03$03@Eigen@@$02$00$00$00@internal@Eigen@@QEAA@XZ
	??1?$block_evaluator@V?$Matrix@M$03$03$0A@$03$03@Eigen@@$02$00$0A@$00@internal@Eigen@@QEAA@XZ
	??1?$block_evaluator@V?$Matrix@M$03$03$0A@$03$03@Eigen@@$02$02$0A@$00@internal@Eigen@@QEAA@XZ
	??1?$diagonal_product_evaluator_base@V?$Block@V?$Matrix@M$03$03$0A@$03$03@Eigen@@$02$02$0A@@Eigen@@$$CBV?$Matrix@M$02$00$0A@$02$00@2@V?$Product@V?$Block@V?$Matrix@M$03$03$0A@$03$03@Eigen@@$02$02$0A@@Eigen@@V?$DiagonalWrapper@$$CBV?$Matrix@M$02$00$0A@$02$00@Eigen@@@2@$00@2@$01@internal@Eigen@@QEAA@XZ
	??1?$evaluator@$$CBV?$ArrayWrapper@$$CBV?$CwiseBinaryOp@U?$scalar_product_op@MM@internal@Eigen@@$$CBV?$Matrix@M$02$00$0A@$02$00@3@$$CBV43@@Eigen@@@Eigen@@@internal@Eigen@@QEAA@XZ
	??1?$evaluator@$$CBV?$Block@$$CBV?$Block@$$CBV?$Matrix@M$03$03$0A@$03$03@Eigen@@$02$00$00@Eigen@@$02$00$00@Eigen@@@internal@Eigen@@QEAA@XZ
	??1?$evaluator@$$CBV?$Block@$$CBV?$Block@$$CBV?$Matrix@M$03$03$0A@$03$03@Eigen@@$02$02$0A@@Eigen@@$00$02$0A@@Eigen@@@internal@Eigen@@QEAA@XZ
	??1?$evaluator@$$CBV?$Block@$$CBV?$Block@$$CBV?$Matrix@M$03$03$0A@$03$03@Eigen@@$02$02$0A@@Eigen@@$02$00$00@Eigen@@@internal@Eigen@@QEAA@XZ
	??1?$evaluator@$$CBV?$Block@$$CBV?$Block@V?$Matrix@M$03$03$0A@$03$03@Eigen@@$02$02$0A@@Eigen@@$00$02$0A@@Eigen@@@internal@Eigen@@QEAA@XZ
	??1?$evaluator@$$CBV?$Block@$$CBV?$CwiseUnaryOp@U?$scalar_opposite_op@M@internal@Eigen@@$$CBV?$Matrix@M$02$00$0A@$02$00@3@@Eigen@@$02$00$00@Eigen@@@internal@Eigen@@QEAA@XZ
	??1?$evaluator@$$CBV?$Block@$$CBV?$Matrix@M$02$00$0A@$02$00@Eigen@@$02$00$00@Eigen@@@internal@Eigen@@QEAA@XZ
	??1?$evaluator@$$CBV?$Block@$$CBV?$Matrix@M$02$02$0A@$02$02@Eigen@@$02$00$00@Eigen@@@internal@Eigen@@QEAA@XZ
	??1?$evaluator@$$CBV?$Block@$$CBV?$Matrix@M$03$03$0A@$03$03@Eigen@@$02$00$00@Eigen@@@internal@Eigen@@QEAA@XZ
	??1?$evaluator@$$CBV?$Block@V?$Matrix@M$02$00$0A@$02$00@Eigen@@$0?0$00$0A@@Eigen@@@internal@Eigen@@QEAA@XZ
	??1?$evaluator@$$CBV?$CwiseBinaryOp@U?$scalar_difference_op@MM@internal@Eigen@@$$CBV?$Matrix@M$02$00$0A@$02$00@3@$$CBV43@@Eigen@@@internal@Eigen@@QEAA@XZ
	??1?$evaluator@$$CBV?$CwiseBinaryOp@U?$scalar_product_op@MM@internal@Eigen@@$$CBV?$CwiseNullaryOp@U?$scalar_constant_op@M@internal@Eigen@@$$CBV?$Matrix@M$02$00$0A@$02$00@3@@3@$$CBV?$Matrix@M$02$00$0A@$02$00@3@@Eigen@@@internal@Eigen@@QEAA@XZ
	??1?$evaluator@$$CBV?$CwiseBinaryOp@U?$scalar_sum_op@MM@internal@Eigen@@$$CBV?$Matrix@M$02$00$0A@$02$00@3@$$CBV?$CwiseBinaryOp@U?$scalar_product_op@MM@internal@Eigen@@$$CBV?$CwiseNullaryOp@U?$scalar_constant_op@M@internal@Eigen@@$$CBV?$Matrix@M$02$00$0A@$02$00@3@@3@$$CBV?$Matrix@M$02$00$0A@$02$00@3@@3@@Eigen@@@internal@Eigen@@QEAA@XZ
	??1?$evaluator@$$CBV?$CwiseNullaryOp@U?$scalar_constant_op@M@internal@Eigen@@$$CBV?$Array@M$02$00$0A@$02$00@3@@Eigen@@@internal@Eigen@@QEAA@XZ
	??1?$evaluator@$$CBV?$CwiseNullaryOp@U?$scalar_constant_op@M@internal@Eigen@@$$CBV?$Matrix@M$02$00$0A@$02$00@3@@Eigen@@@internal@Eigen@@QEAA@XZ
	??1?$evaluator@$$CBV?$CwiseNullaryOp@U?$scalar_constant_op@M@internal@Eigen@@$$CBV?$Matrix@M$03$00$0A@$03$00@3@@Eigen@@@internal@Eigen@@QEAA@XZ
	??1?$evaluator@$$CBV?$CwiseNullaryOp@U?$scalar_identity_op@M@internal@Eigen@@V?$Matrix@M$02$02$0A@$02$02@3@@Eigen@@@internal@Eigen@@QEAA@XZ
	??1?$evaluator@$$CBV?$CwiseNullaryOp@U?$scalar_identity_op@M@internal@Eigen@@V?$Matrix@M$03$03$0A@$03$03@3@@Eigen@@@internal@Eigen@@QEAA@XZ
	??1?$evaluator@$$CBV?$CwiseUnaryOp@U?$scalar_opposite_op@M@internal@Eigen@@$$CBV?$Matrix@M$02$00$0A@$02$00@3@@Eigen@@@internal@Eigen@@QEAA@XZ
	??1?$evaluator@$$CBV?$Matrix@M$01$00$0A@$01$00@Eigen@@@internal@Eigen@@QEAA@XZ
	??1?$evaluator@$$CBV?$Matrix@M$02$00$0A@$02$00@Eigen@@@internal@Eigen@@QEAA@XZ
	??1?$evaluator@$$CBV?$Matrix@M$03$00$0A@$03$00@Eigen@@@internal@Eigen@@QEAA@XZ
	??1?$evaluator@$$CBV?$Matrix@M$03$03$0A@$03$03@Eigen@@@internal@Eigen@@QEAA@XZ
	??1?$evaluator@$$CBV?$Product@V?$Block@$$CBV?$Matrix@M$03$03$0A@$03$03@Eigen@@$02$02$0A@@Eigen@@V?$Block@$$CBV?$Matrix@M$03$03$0A@$03$03@Eigen@@$02$00$00@2@$0A@@Eigen@@@internal@Eigen@@QEAA@XZ
	??1?$evaluator@$$CBV?$Transpose@$$CBV?$Block@$$CBV?$Block@$$CBV?$Matrix@M$03$03$0A@$03$03@Eigen@@$02$02$0A@@Eigen@@$00$02$0A@@Eigen@@@Eigen@@@internal@Eigen@@QEAA@XZ
	??1?$evaluator@$$CBV?$Transpose@$$CBV?$Block@$$CBV?$Block@V?$Matrix@M$03$03$0A@$03$03@Eigen@@$02$02$0A@@Eigen@@$00$02$0A@@Eigen@@@Eigen@@@internal@Eigen@@QEAA@XZ
	??1?$evaluator@V?$ArrayWrapper@$$CBV?$CwiseBinaryOp@U?$scalar_product_op@MM@internal@Eigen@@$$CBV?$Matrix@M$02$00$0A@$02$00@3@$$CBV43@@Eigen@@@Eigen@@@internal@Eigen@@QEAA@XZ
	??1?$evaluator@V?$Block@$$CBV?$Block@$$CBV?$Matrix@M$03$03$0A@$03$03@Eigen@@$02$00$00@Eigen@@$02$00$00@Eigen@@@internal@Eigen@@QEAA@XZ
	??1?$evaluator@V?$Block@$$CBV?$Block@$$CBV?$Matrix@M$03$03$0A@$03$03@Eigen@@$02$02$0A@@Eigen@@$00$02$0A@@Eigen@@@internal@Eigen@@QEAA@XZ
	??1?$evaluator@V?$Block@$$CBV?$Block@$$CBV?$Matrix@M$03$03$0A@$03$03@Eigen@@$02$02$0A@@Eigen@@$02$00$00@Eigen@@@internal@Eigen@@QEAA@XZ
	??1?$evaluator@V?$Block@$$CBV?$Block@V?$Matrix@M$03$03$0A@$03$03@Eigen@@$02$02$0A@@Eigen@@$00$02$0A@@Eigen@@@internal@Eigen@@QEAA@XZ
	??1?$evaluator@V?$Block@$$CBV?$CwiseNullaryOp@U?$scalar_identity_op@M@internal@Eigen@@V?$Matrix@M$02$02$0A@$02$02@3@@Eigen@@$02$00$0A@@Eigen@@@internal@Eigen@@QEAA@XZ
	??1?$evaluator@V?$Block@$$CBV?$CwiseUnaryOp@U?$scalar_opposite_op@M@internal@Eigen@@$$CBV?$Matrix@M$02$00$0A@$02$00@3@@Eigen@@$02$00$00@Eigen@@@internal@Eigen@@QEAA@XZ
	??1?$evaluator@V?$Block@$$CBV?$Matrix@M$02$00$0A@$02$00@Eigen@@$02$00$00@Eigen@@@internal@Eigen@@QEAA@XZ
	??1?$evaluator@V?$Block@$$CBV?$Matrix@M$02$02$0A@$02$02@Eigen@@$02$00$00@Eigen@@@internal@Eigen@@QEAA@XZ
	??1?$evaluator@V?$Block@$$CBV?$Matrix@M$03$03$0A@$03$03@Eigen@@$02$00$00@Eigen@@@internal@Eigen@@QEAA@XZ
	??1?$evaluator@V?$Block@$$CBV?$Matrix@M$03$03$0A@$03$03@Eigen@@$02$02$0A@@Eigen@@@internal@Eigen@@QEAA@XZ
	??1?$evaluator@V?$Block@V?$Matrix@M$02$00$0A@$02$00@Eigen@@$0?0$00$0A@@Eigen@@@internal@Eigen@@QEAA@XZ
	??1?$evaluator@V?$Block@V?$Matrix@M$03$00$0A@$03$00@Eigen@@$02$00$0A@@Eigen@@@internal@Eigen@@QEAA@XZ
	??1?$evaluator@V?$Block@V?$Matrix@M$03$03$0A@$03$03@Eigen@@$00$02$0A@@Eigen@@@internal@Eigen@@QEAA@XZ
	??1?$evaluator@V?$Block@V?$Matrix@M$03$03$0A@$03$03@Eigen@@$02$00$00@Eigen@@@internal@Eigen@@QEAA@XZ
	??1?$evaluator@V?$Block@V?$Matrix@M$03$03$0A@$03$03@Eigen@@$02$00$0A@@Eigen@@@internal@Eigen@@QEAA@XZ
	??1?$evaluator@V?$Block@V?$Matrix@M$03$03$0A@$03$03@Eigen@@$02$02$0A@@Eigen@@@internal@Eigen@@QEAA@XZ
	??1?$evaluator@V?$CwiseBinaryOp@U?$not_equal_to@M@std@@$$CBV?$Matrix@M$01$00$0A@$01$00@Eigen@@$$CBV?$Block@V?$Matrix@M$02$00$0A@$02$00@Eigen@@$0?0$00$0A@@4@@Eigen@@@internal@Eigen@@QEAA@XZ
	??1?$evaluator@V?$CwiseBinaryOp@U?$not_equal_to@M@std@@$$CBV?$Matrix@M$03$03$0A@$03$03@Eigen@@$$CBV?$CwiseNullaryOp@U?$scalar_identity_op@M@internal@Eigen@@V?$Matrix@M$03$03$0A@$03$03@3@@4@@Eigen@@@internal@Eigen@@QEAA@XZ
	??1?$evaluator@V?$CwiseBinaryOp@U?$scalar_conj_product_op@MM@internal@Eigen@@$$CBV?$Matrix@M$02$00$0A@$02$00@3@$$CBV43@@Eigen@@@internal@Eigen@@QEAA@XZ
	??1?$evaluator@V?$CwiseBinaryOp@U?$scalar_difference_op@MM@internal@Eigen@@$$CBV?$Matrix@M$01$00$0A@$01$00@3@$$CBV43@@Eigen@@@internal@Eigen@@QEAA@XZ
	??1?$evaluator@V?$CwiseBinaryOp@U?$scalar_difference_op@MM@internal@Eigen@@$$CBV?$Matrix@M$02$00$0A@$02$00@3@$$CBV43@@Eigen@@@internal@Eigen@@QEAA@XZ
	??1?$evaluator@V?$CwiseBinaryOp@U?$scalar_product_op@MM@internal@Eigen@@$$CBV?$CwiseNullaryOp@U?$scalar_constant_op@M@internal@Eigen@@$$CBV?$Matrix@M$02$00$0A@$02$00@3@@3@$$CBV?$Matrix@M$02$00$0A@$02$00@3@@Eigen@@@internal@Eigen@@QEAA@XZ
	??1?$evaluator@V?$CwiseBinaryOp@U?$scalar_product_op@MM@internal@Eigen@@$$CBV?$Matrix@M$02$00$0A@$02$00@3@$$CBV43@@Eigen@@@internal@Eigen@@QEAA@XZ
	??1?$evaluator@V?$CwiseBinaryOp@U?$scalar_product_op@MM@internal@Eigen@@$$CBV?$Matrix@M$02$00$0A@$02$00@3@$$CBV?$CwiseNullaryOp@U?$scalar_constant_op@M@internal@Eigen@@$$CBV?$Matrix@M$02$00$0A@$02$00@3@@3@@Eigen@@@internal@Eigen@@QEAA@XZ
	??1?$evaluator@V?$CwiseBinaryOp@U?$scalar_product_op@MM@internal@Eigen@@$$CBV?$Transpose@$$CBV?$Block@$$CBV?$Block@$$CBV?$Matrix@M$03$03$0A@$03$03@Eigen@@$02$02$0A@@Eigen@@$00$02$0A@@Eigen@@@3@$$CBV?$Block@$$CBV?$Block@$$CBV?$Matrix@M$03$03$0A@$03$03@Eigen@@$02$00$00@Eigen@@$02$00$00@3@@Eigen@@@internal@Eigen@@QEAA@XZ
	??1?$evaluator@V?$CwiseBinaryOp@U?$scalar_product_op@MM@internal@Eigen@@$$CBV?$Transpose@$$CBV?$Block@$$CBV?$Block@$$CBV?$Matrix@M$03$03$0A@$03$03@Eigen@@$02$02$0A@@Eigen@@$00$02$0A@@Eigen@@@3@$$CBV?$Block@$$CBV?$Block@$$CBV?$Matrix@M$03$03$0A@$03$03@Eigen@@$02$02$0A@@Eigen@@$02$00$00@3@@Eigen@@@internal@Eigen@@QEAA@XZ
	??1?$evaluator@V?$CwiseBinaryOp@U?$scalar_product_op@MM@internal@Eigen@@$$CBV?$Transpose@$$CBV?$Block@$$CBV?$Block@V?$Matrix@M$03$03$0A@$03$03@Eigen@@$02$02$0A@@Eigen@@$00$02$0A@@Eigen@@@3@$$CBV?$Block@$$CBV?$CwiseUnaryOp@U?$scalar_opposite_op@M@internal@Eigen@@$$CBV?$Matrix@M$02$00$0A@$02$00@3@@Eigen@@$02$00$00@3@@Eigen@@@internal@Eigen@@QEAA@XZ
	??1?$evaluator@V?$CwiseBinaryOp@U?$scalar_product_op@MM@internal@Eigen@@$$CBV?$Transpose@$$CBV?$Block@$$CBV?$Block@V?$Matrix@M$03$03$0A@$03$03@Eigen@@$02$02$0A@@Eigen@@$00$02$0A@@Eigen@@@3@$$CBV?$Block@$$CBV?$Matrix@M$02$00$0A@$02$00@Eigen@@$02$00$00@3@@Eigen@@@internal@Eigen@@QEAA@XZ
	??1?$evaluator@V?$CwiseBinaryOp@U?$scalar_product_op@MM@internal@Eigen@@$$CBV?$Transpose@$$CBV?$Block@$$CBV?$Block@V?$Matrix@M$03$03$0A@$03$03@Eigen@@$02$02$0A@@Eigen@@$00$02$0A@@Eigen@@@3@$$CBV?$Block@$$CBV?$Matrix@M$02$02$0A@$02$02@Eigen@@$02$00$00@3@@Eigen@@@internal@Eigen@@QEAA@XZ
	??1?$evaluator@V?$CwiseBinaryOp@U?$scalar_quotient_op@MM@internal@Eigen@@$$CBV?$Matrix@M$02$00$0A@$02$00@3@$$CBV?$CwiseNullaryOp@U?$scalar_constant_op@M@internal@Eigen@@$$CBV?$Matrix@M$02$00$0A@$02$00@3@@3@@Eigen@@@internal@Eigen@@QEAA@XZ
	??1?$evaluator@V?$CwiseBinaryOp@U?$scalar_quotient_op@MM@internal@Eigen@@$$CBV?$Matrix@M$03$00$0A@$03$00@3@$$CBV?$CwiseNullaryOp@U?$scalar_constant_op@M@internal@Eigen@@$$CBV?$Matrix@M$03$00$0A@$03$00@3@@3@@Eigen@@@internal@Eigen@@QEAA@XZ
	??1?$evaluator@V?$CwiseBinaryOp@U?$scalar_sum_op@MM@internal@Eigen@@$$CBV?$ArrayWrapper@$$CBV?$CwiseBinaryOp@U?$scalar_product_op@MM@internal@Eigen@@$$CBV?$Matrix@M$02$00$0A@$02$00@3@$$CBV43@@Eigen@@@3@$$CBV?$CwiseNullaryOp@U?$scalar_constant_op@M@internal@Eigen@@$$CBV?$Array@M$02$00$0A@$02$00@3@@3@@Eigen@@@internal@Eigen@@QEAA@XZ
	??1?$evaluator@V?$CwiseBinaryOp@U?$scalar_sum_op@MM@internal@Eigen@@$$CBV?$CwiseBinaryOp@U?$scalar_sum_op@MM@internal@Eigen@@$$CBV?$Matrix@M$02$00$0A@$02$00@3@$$CBV?$CwiseBinaryOp@U?$scalar_product_op@MM@internal@Eigen@@$$CBV?$CwiseNullaryOp@U?$scalar_constant_op@M@internal@Eigen@@$$CBV?$Matrix@M$02$00$0A@$02$00@3@@3@$$CBV?$Matrix@M$02$00$0A@$02$00@3@@3@@3@$$CBV?$Matrix@M$02$00$0A@$02$00@3@@Eigen@@@internal@Eigen@@QEAA@XZ
	??1?$evaluator@V?$CwiseBinaryOp@U?$scalar_sum_op@MM@internal@Eigen@@$$CBV?$Matrix@M$02$00$0A@$02$00@3@$$CBV43@@Eigen@@@internal@Eigen@@QEAA@XZ
	??1?$evaluator@V?$CwiseBinaryOp@U?$scalar_sum_op@MM@internal@Eigen@@$$CBV?$Matrix@M$02$00$0A@$02$00@3@$$CBV?$CwiseBinaryOp@U?$scalar_product_op@MM@internal@Eigen@@$$CBV?$CwiseNullaryOp@U?$scalar_constant_op@M@internal@Eigen@@$$CBV?$Matrix@M$02$00$0A@$02$00@3@@3@$$CBV?$Matrix@M$02$00$0A@$02$00@3@@3@@Eigen@@@internal@Eigen@@QEAA@XZ
	??1?$evaluator@V?$CwiseBinaryOp@U?$scalar_sum_op@MM@internal@Eigen@@$$CBV?$Product@V?$Block@$$CBV?$Matrix@M$03$03$0A@$03$03@Eigen@@$02$02$0A@@Eigen@@V?$Block@$$CBV?$Matrix@M$03$03$0A@$03$03@Eigen@@$02$00$00@2@$0A@@3@$$CBV?$Block@$$CBV?$Matrix@M$03$03$0A@$03$03@Eigen@@$02$00$00@3@@Eigen@@@internal@Eigen@@QEAA@XZ
	??1?$evaluator@V?$CwiseNullaryOp@U?$scalar_constant_op@H@internal@Eigen@@V?$Matrix@H$01$00$0A@$01$00@3@@Eigen@@@internal@Eigen@@QEAA@XZ
	??1?$evaluator@V?$CwiseNullaryOp@U?$scalar_constant_op@M@internal@Eigen@@$$CBV?$Array@M$02$00$0A@$02$00@3@@Eigen@@@internal@Eigen@@QEAA@XZ
	??1?$evaluator@V?$CwiseNullaryOp@U?$scalar_constant_op@M@internal@Eigen@@$$CBV?$Matrix@M$02$00$0A@$02$00@3@@Eigen@@@internal@Eigen@@QEAA@XZ
	??1?$evaluator@V?$CwiseNullaryOp@U?$scalar_constant_op@M@internal@Eigen@@$$CBV?$Matrix@M$03$00$0A@$03$00@3@@Eigen@@@internal@Eigen@@QEAA@XZ
	??1?$evaluator@V?$CwiseNullaryOp@U?$scalar_constant_op@M@internal@Eigen@@V?$Matrix@M$00$02$00$00$02@3@@Eigen@@@internal@Eigen@@QEAA@XZ
	??1?$evaluator@V?$CwiseNullaryOp@U?$scalar_constant_op@M@internal@Eigen@@V?$Matrix@M$02$00$0A@$02$00@3@@Eigen@@@internal@Eigen@@QEAA@XZ
	??1?$evaluator@V?$CwiseNullaryOp@U?$scalar_constant_op@M@internal@Eigen@@V?$Matrix@M$02$02$0A@$02$02@3@@Eigen@@@internal@Eigen@@QEAA@XZ
	??1?$evaluator@V?$CwiseNullaryOp@U?$scalar_constant_op@M@internal@Eigen@@V?$Matrix@M$03$00$0A@$03$00@3@@Eigen@@@internal@Eigen@@QEAA@XZ
	??1?$evaluator@V?$CwiseNullaryOp@U?$scalar_constant_op@M@internal@Eigen@@V?$Matrix@M$03$03$0A@$03$03@3@@Eigen@@@internal@Eigen@@QEAA@XZ
	??1?$evaluator@V?$CwiseNullaryOp@U?$scalar_identity_op@M@internal@Eigen@@V?$Matrix@M$02$02$0A@$02$02@3@@Eigen@@@internal@Eigen@@QEAA@XZ
	??1?$evaluator@V?$CwiseNullaryOp@U?$scalar_identity_op@M@internal@Eigen@@V?$Matrix@M$03$03$0A@$03$03@3@@Eigen@@@internal@Eigen@@QEAA@XZ
	??1?$evaluator@V?$CwiseUnaryOp@U?$scalar_abs2_op@M@internal@Eigen@@$$CBV?$CwiseBinaryOp@U?$scalar_difference_op@MM@internal@Eigen@@$$CBV?$Matrix@M$02$00$0A@$02$00@3@$$CBV43@@3@@Eigen@@@internal@Eigen@@QEAA@XZ
	??1?$evaluator@V?$CwiseUnaryOp@U?$scalar_abs2_op@M@internal@Eigen@@$$CBV?$Matrix@M$02$00$0A@$02$00@3@@Eigen@@@internal@Eigen@@QEAA@XZ
	??1?$evaluator@V?$CwiseUnaryOp@U?$scalar_abs2_op@M@internal@Eigen@@$$CBV?$Matrix@M$03$00$0A@$03$00@3@@Eigen@@@internal@Eigen@@QEAA@XZ
	??1?$evaluator@V?$CwiseUnaryOp@U?$scalar_opposite_op@M@internal@Eigen@@$$CBV?$Matrix@M$02$00$0A@$02$00@3@@Eigen@@@internal@Eigen@@QEAA@XZ
	??1?$evaluator@V?$Diagonal@V?$Matrix@M$02$02$0A@$02$02@Eigen@@$0A@@Eigen@@@internal@Eigen@@QEAA@XZ
	??1?$evaluator@V?$Matrix@H$01$00$0A@$01$00@Eigen@@@internal@Eigen@@QEAA@XZ
	??1?$evaluator@V?$Matrix@M$01$00$0A@$01$00@Eigen@@@internal@Eigen@@QEAA@XZ
	??1?$evaluator@V?$Matrix@M$02$00$0A@$02$00@Eigen@@@internal@Eigen@@QEAA@XZ
	??1?$evaluator@V?$Matrix@M$02$02$0A@$02$02@Eigen@@@internal@Eigen@@QEAA@XZ
	??1?$evaluator@V?$Matrix@M$03$00$0A@$03$00@Eigen@@@internal@Eigen@@QEAA@XZ
	??1?$evaluator@V?$Matrix@M$03$03$0A@$03$03@Eigen@@@internal@Eigen@@QEAA@XZ
	??1?$evaluator@V?$PlainObjectBase@V?$Matrix@H$01$00$0A@$01$00@Eigen@@@Eigen@@@internal@Eigen@@QEAA@XZ
	??1?$evaluator@V?$PlainObjectBase@V?$Matrix@M$01$00$0A@$01$00@Eigen@@@Eigen@@@internal@Eigen@@QEAA@XZ
	??1?$evaluator@V?$PlainObjectBase@V?$Matrix@M$02$00$0A@$02$00@Eigen@@@Eigen@@@internal@Eigen@@QEAA@XZ
	??1?$evaluator@V?$PlainObjectBase@V?$Matrix@M$02$02$0A@$02$02@Eigen@@@Eigen@@@internal@Eigen@@QEAA@XZ
	??1?$evaluator@V?$PlainObjectBase@V?$Matrix@M$03$00$0A@$03$00@Eigen@@@Eigen@@@internal@Eigen@@QEAA@XZ
	??1?$evaluator@V?$PlainObjectBase@V?$Matrix@M$03$03$0A@$03$03@Eigen@@@Eigen@@@internal@Eigen@@QEAA@XZ
	??1?$evaluator@V?$Product@V?$Block@$$CBV?$Matrix@M$03$03$0A@$03$03@Eigen@@$02$02$0A@@Eigen@@V12@$00@Eigen@@@internal@Eigen@@QEAA@XZ
	??1?$evaluator@V?$Product@V?$Block@$$CBV?$Matrix@M$03$03$0A@$03$03@Eigen@@$02$02$0A@@Eigen@@V?$Block@$$CBV?$Matrix@M$03$03$0A@$03$03@Eigen@@$02$00$00@2@$00@Eigen@@@internal@Eigen@@QEAA@XZ
	??1?$evaluator@V?$Product@V?$Block@$$CBV?$Matrix@M$03$03$0A@$03$03@Eigen@@$02$02$0A@@Eigen@@V?$Block@$$CBV?$Matrix@M$03$03$0A@$03$03@Eigen@@$02$00$00@2@$0A@@Eigen@@@internal@Eigen@@QEAA@XZ
	??1?$evaluator@V?$Product@V?$Block@V?$Matrix@M$03$03$0A@$03$03@Eigen@@$02$02$0A@@Eigen@@V?$CwiseUnaryOp@U?$scalar_opposite_op@M@internal@Eigen@@$$CBV?$Matrix@M$02$00$0A@$02$00@3@@2@$00@Eigen@@@internal@Eigen@@QEAA@XZ
	??1?$evaluator@V?$Product@V?$Block@V?$Matrix@M$03$03$0A@$03$03@Eigen@@$02$02$0A@@Eigen@@V?$DiagonalWrapper@$$CBV?$Matrix@M$02$00$0A@$02$00@Eigen@@@2@$00@Eigen@@@internal@Eigen@@QEAA@XZ
	??1?$evaluator@V?$Product@V?$Block@V?$Matrix@M$03$03$0A@$03$03@Eigen@@$02$02$0A@@Eigen@@V?$Matrix@M$02$00$0A@$02$00@2@$00@Eigen@@@internal@Eigen@@QEAA@XZ
	??1?$evaluator@V?$Product@V?$Block@V?$Matrix@M$03$03$0A@$03$03@Eigen@@$02$02$0A@@Eigen@@V?$Matrix@M$02$02$0A@$02$02@2@$00@Eigen@@@internal@Eigen@@QEAA@XZ
	??1?$evaluator@V?$Transpose@$$CBV?$Block@$$CBV?$Block@$$CBV?$Matrix@M$03$03$0A@$03$03@Eigen@@$02$02$0A@@Eigen@@$00$02$0A@@Eigen@@@Eigen@@@internal@Eigen@@QEAA@XZ
	??1?$evaluator@V?$Transpose@$$CBV?$Block@$$CBV?$Block@V?$Matrix@M$03$03$0A@$03$03@Eigen@@$02$02$0A@@Eigen@@$00$02$0A@@Eigen@@@Eigen@@@internal@Eigen@@QEAA@XZ
	??1?$evaluator_base@V?$ArrayWrapper@$$CBV?$CwiseBinaryOp@U?$scalar_product_op@MM@internal@Eigen@@$$CBV?$Matrix@M$02$00$0A@$02$00@3@$$CBV43@@Eigen@@@Eigen@@@internal@Eigen@@QEAA@XZ
	??1?$evaluator_base@V?$Block@$$CBV?$Block@$$CBV?$Matrix@M$03$03$0A@$03$03@Eigen@@$02$00$00@Eigen@@$02$00$00@Eigen@@@internal@Eigen@@QEAA@XZ
	??1?$evaluator_base@V?$Block@$$CBV?$Block@$$CBV?$Matrix@M$03$03$0A@$03$03@Eigen@@$02$02$0A@@Eigen@@$00$02$0A@@Eigen@@@internal@Eigen@@QEAA@XZ
	??1?$evaluator_base@V?$Block@$$CBV?$Block@$$CBV?$Matrix@M$03$03$0A@$03$03@Eigen@@$02$02$0A@@Eigen@@$02$00$00@Eigen@@@internal@Eigen@@QEAA@XZ
	??1?$evaluator_base@V?$Block@$$CBV?$Block@V?$Matrix@M$03$03$0A@$03$03@Eigen@@$02$02$0A@@Eigen@@$00$02$0A@@Eigen@@@internal@Eigen@@QEAA@XZ
	??1?$evaluator_base@V?$Block@$$CBV?$CwiseNullaryOp@U?$scalar_identity_op@M@internal@Eigen@@V?$Matrix@M$02$02$0A@$02$02@3@@Eigen@@$02$00$0A@@Eigen@@@internal@Eigen@@QEAA@XZ
	??1?$evaluator_base@V?$Block@$$CBV?$CwiseUnaryOp@U?$scalar_opposite_op@M@internal@Eigen@@$$CBV?$Matrix@M$02$00$0A@$02$00@3@@Eigen@@$02$00$00@Eigen@@@internal@Eigen@@QEAA@XZ
	??1?$evaluator_base@V?$Block@$$CBV?$Matrix@M$02$00$0A@$02$00@Eigen@@$02$00$00@Eigen@@@internal@Eigen@@QEAA@XZ
	??1?$evaluator_base@V?$Block@$$CBV?$Matrix@M$02$02$0A@$02$02@Eigen@@$02$00$00@Eigen@@@internal@Eigen@@QEAA@XZ
	??1?$evaluator_base@V?$Block@$$CBV?$Matrix@M$03$03$0A@$03$03@Eigen@@$02$00$00@Eigen@@@internal@Eigen@@QEAA@XZ
	??1?$evaluator_base@V?$Block@$$CBV?$Matrix@M$03$03$0A@$03$03@Eigen@@$02$02$0A@@Eigen@@@internal@Eigen@@QEAA@XZ
	??1?$evaluator_base@V?$Block@V?$Matrix@M$02$00$0A@$02$00@Eigen@@$0?0$00$0A@@Eigen@@@internal@Eigen@@QEAA@XZ
	??1?$evaluator_base@V?$Block@V?$Matrix@M$03$00$0A@$03$00@Eigen@@$02$00$0A@@Eigen@@@internal@Eigen@@QEAA@XZ
	??1?$evaluator_base@V?$Block@V?$Matrix@M$03$03$0A@$03$03@Eigen@@$00$02$0A@@Eigen@@@internal@Eigen@@QEAA@XZ
	??1?$evaluator_base@V?$Block@V?$Matrix@M$03$03$0A@$03$03@Eigen@@$02$00$00@Eigen@@@internal@Eigen@@QEAA@XZ
	??1?$evaluator_base@V?$Block@V?$Matrix@M$03$03$0A@$03$03@Eigen@@$02$00$0A@@Eigen@@@internal@Eigen@@QEAA@XZ
	??1?$evaluator_base@V?$Block@V?$Matrix@M$03$03$0A@$03$03@Eigen@@$02$02$0A@@Eigen@@@internal@Eigen@@QEAA@XZ
	??1?$evaluator_base@V?$CwiseBinaryOp@U?$not_equal_to@M@std@@$$CBV?$Matrix@M$01$00$0A@$01$00@Eigen@@$$CBV?$Block@V?$Matrix@M$02$00$0A@$02$00@Eigen@@$0?0$00$0A@@4@@Eigen@@@internal@Eigen@@QEAA@XZ
	??1?$evaluator_base@V?$CwiseBinaryOp@U?$not_equal_to@M@std@@$$CBV?$Matrix@M$03$03$0A@$03$03@Eigen@@$$CBV?$CwiseNullaryOp@U?$scalar_identity_op@M@internal@Eigen@@V?$Matrix@M$03$03$0A@$03$03@3@@4@@Eigen@@@internal@Eigen@@QEAA@XZ
	??1?$evaluator_base@V?$CwiseBinaryOp@U?$scalar_conj_product_op@MM@internal@Eigen@@$$CBV?$Matrix@M$02$00$0A@$02$00@3@$$CBV43@@Eigen@@@internal@Eigen@@QEAA@XZ
	??1?$evaluator_base@V?$CwiseBinaryOp@U?$scalar_difference_op@MM@internal@Eigen@@$$CBV?$Matrix@M$01$00$0A@$01$00@3@$$CBV43@@Eigen@@@internal@Eigen@@QEAA@XZ
	??1?$evaluator_base@V?$CwiseBinaryOp@U?$scalar_difference_op@MM@internal@Eigen@@$$CBV?$Matrix@M$02$00$0A@$02$00@3@$$CBV43@@Eigen@@@internal@Eigen@@QEAA@XZ
	??1?$evaluator_base@V?$CwiseBinaryOp@U?$scalar_product_op@MM@internal@Eigen@@$$CBV?$CwiseNullaryOp@U?$scalar_constant_op@M@internal@Eigen@@$$CBV?$Matrix@M$02$00$0A@$02$00@3@@3@$$CBV?$Matrix@M$02$00$0A@$02$00@3@@Eigen@@@internal@Eigen@@QEAA@XZ
	??1?$evaluator_base@V?$CwiseBinaryOp@U?$scalar_product_op@MM@internal@Eigen@@$$CBV?$Matrix@M$02$00$0A@$02$00@3@$$CBV43@@Eigen@@@internal@Eigen@@QEAA@XZ
	??1?$evaluator_base@V?$CwiseBinaryOp@U?$scalar_product_op@MM@internal@Eigen@@$$CBV?$Matrix@M$02$00$0A@$02$00@3@$$CBV?$CwiseNullaryOp@U?$scalar_constant_op@M@internal@Eigen@@$$CBV?$Matrix@M$02$00$0A@$02$00@3@@3@@Eigen@@@internal@Eigen@@QEAA@XZ
	??1?$evaluator_base@V?$CwiseBinaryOp@U?$scalar_product_op@MM@internal@Eigen@@$$CBV?$Transpose@$$CBV?$Block@$$CBV?$Block@$$CBV?$Matrix@M$03$03$0A@$03$03@Eigen@@$02$02$0A@@Eigen@@$00$02$0A@@Eigen@@@3@$$CBV?$Block@$$CBV?$Block@$$CBV?$Matrix@M$03$03$0A@$03$03@Eigen@@$02$00$00@Eigen@@$02$00$00@3@@Eigen@@@internal@Eigen@@QEAA@XZ
	??1?$evaluator_base@V?$CwiseBinaryOp@U?$scalar_product_op@MM@internal@Eigen@@$$CBV?$Transpose@$$CBV?$Block@$$CBV?$Block@$$CBV?$Matrix@M$03$03$0A@$03$03@Eigen@@$02$02$0A@@Eigen@@$00$02$0A@@Eigen@@@3@$$CBV?$Block@$$CBV?$Block@$$CBV?$Matrix@M$03$03$0A@$03$03@Eigen@@$02$02$0A@@Eigen@@$02$00$00@3@@Eigen@@@internal@Eigen@@QEAA@XZ
	??1?$evaluator_base@V?$CwiseBinaryOp@U?$scalar_product_op@MM@internal@Eigen@@$$CBV?$Transpose@$$CBV?$Block@$$CBV?$Block@V?$Matrix@M$03$03$0A@$03$03@Eigen@@$02$02$0A@@Eigen@@$00$02$0A@@Eigen@@@3@$$CBV?$Block@$$CBV?$CwiseUnaryOp@U?$scalar_opposite_op@M@internal@Eigen@@$$CBV?$Matrix@M$02$00$0A@$02$00@3@@Eigen@@$02$00$00@3@@Eigen@@@internal@Eigen@@QEAA@XZ
	??1?$evaluator_base@V?$CwiseBinaryOp@U?$scalar_product_op@MM@internal@Eigen@@$$CBV?$Transpose@$$CBV?$Block@$$CBV?$Block@V?$Matrix@M$03$03$0A@$03$03@Eigen@@$02$02$0A@@Eigen@@$00$02$0A@@Eigen@@@3@$$CBV?$Block@$$CBV?$Matrix@M$02$00$0A@$02$00@Eigen@@$02$00$00@3@@Eigen@@@internal@Eigen@@QEAA@XZ
	??1?$evaluator_base@V?$CwiseBinaryOp@U?$scalar_product_op@MM@internal@Eigen@@$$CBV?$Transpose@$$CBV?$Block@$$CBV?$Block@V?$Matrix@M$03$03$0A@$03$03@Eigen@@$02$02$0A@@Eigen@@$00$02$0A@@Eigen@@@3@$$CBV?$Block@$$CBV?$Matrix@M$02$02$0A@$02$02@Eigen@@$02$00$00@3@@Eigen@@@internal@Eigen@@QEAA@XZ
	??1?$evaluator_base@V?$CwiseBinaryOp@U?$scalar_quotient_op@MM@internal@Eigen@@$$CBV?$Matrix@M$02$00$0A@$02$00@3@$$CBV?$CwiseNullaryOp@U?$scalar_constant_op@M@internal@Eigen@@$$CBV?$Matrix@M$02$00$0A@$02$00@3@@3@@Eigen@@@internal@Eigen@@QEAA@XZ
	??1?$evaluator_base@V?$CwiseBinaryOp@U?$scalar_quotient_op@MM@internal@Eigen@@$$CBV?$Matrix@M$03$00$0A@$03$00@3@$$CBV?$CwiseNullaryOp@U?$scalar_constant_op@M@internal@Eigen@@$$CBV?$Matrix@M$03$00$0A@$03$00@3@@3@@Eigen@@@internal@Eigen@@QEAA@XZ
	??1?$evaluator_base@V?$CwiseBinaryOp@U?$scalar_sum_op@MM@internal@Eigen@@$$CBV?$ArrayWrapper@$$CBV?$CwiseBinaryOp@U?$scalar_product_op@MM@internal@Eigen@@$$CBV?$Matrix@M$02$00$0A@$02$00@3@$$CBV43@@Eigen@@@3@$$CBV?$CwiseNullaryOp@U?$scalar_constant_op@M@internal@Eigen@@$$CBV?$Array@M$02$00$0A@$02$00@3@@3@@Eigen@@@internal@Eigen@@QEAA@XZ
	??1?$evaluator_base@V?$CwiseBinaryOp@U?$scalar_sum_op@MM@internal@Eigen@@$$CBV?$CwiseBinaryOp@U?$scalar_sum_op@MM@internal@Eigen@@$$CBV?$Matrix@M$02$00$0A@$02$00@3@$$CBV?$CwiseBinaryOp@U?$scalar_product_op@MM@internal@Eigen@@$$CBV?$CwiseNullaryOp@U?$scalar_constant_op@M@internal@Eigen@@$$CBV?$Matrix@M$02$00$0A@$02$00@3@@3@$$CBV?$Matrix@M$02$00$0A@$02$00@3@@3@@3@$$CBV?$Matrix@M$02$00$0A@$02$00@3@@Eigen@@@internal@Eigen@@QEAA@XZ
	??1?$evaluator_base@V?$CwiseBinaryOp@U?$scalar_sum_op@MM@internal@Eigen@@$$CBV?$Matrix@M$02$00$0A@$02$00@3@$$CBV43@@Eigen@@@internal@Eigen@@QEAA@XZ
	??1?$evaluator_base@V?$CwiseBinaryOp@U?$scalar_sum_op@MM@internal@Eigen@@$$CBV?$Matrix@M$02$00$0A@$02$00@3@$$CBV?$CwiseBinaryOp@U?$scalar_product_op@MM@internal@Eigen@@$$CBV?$CwiseNullaryOp@U?$scalar_constant_op@M@internal@Eigen@@$$CBV?$Matrix@M$02$00$0A@$02$00@3@@3@$$CBV?$Matrix@M$02$00$0A@$02$00@3@@3@@Eigen@@@internal@Eigen@@QEAA@XZ
	??1?$evaluator_base@V?$CwiseBinaryOp@U?$scalar_sum_op@MM@internal@Eigen@@$$CBV?$Product@V?$Block@$$CBV?$Matrix@M$03$03$0A@$03$03@Eigen@@$02$02$0A@@Eigen@@V?$Block@$$CBV?$Matrix@M$03$03$0A@$03$03@Eigen@@$02$00$00@2@$0A@@3@$$CBV?$Block@$$CBV?$Matrix@M$03$03$0A@$03$03@Eigen@@$02$00$00@3@@Eigen@@@internal@Eigen@@QEAA@XZ
	??1?$evaluator_base@V?$CwiseNullaryOp@U?$scalar_constant_op@H@internal@Eigen@@V?$Matrix@H$01$00$0A@$01$00@3@@Eigen@@@internal@Eigen@@QEAA@XZ
	??1?$evaluator_base@V?$CwiseNullaryOp@U?$scalar_constant_op@M@internal@Eigen@@$$CBV?$Array@M$02$00$0A@$02$00@3@@Eigen@@@internal@Eigen@@QEAA@XZ
	??1?$evaluator_base@V?$CwiseNullaryOp@U?$scalar_constant_op@M@internal@Eigen@@$$CBV?$Matrix@M$02$00$0A@$02$00@3@@Eigen@@@internal@Eigen@@QEAA@XZ
	??1?$evaluator_base@V?$CwiseNullaryOp@U?$scalar_constant_op@M@internal@Eigen@@$$CBV?$Matrix@M$03$00$0A@$03$00@3@@Eigen@@@internal@Eigen@@QEAA@XZ
	??1?$evaluator_base@V?$CwiseNullaryOp@U?$scalar_constant_op@M@internal@Eigen@@V?$Matrix@M$00$02$00$00$02@3@@Eigen@@@internal@Eigen@@QEAA@XZ
	??1?$evaluator_base@V?$CwiseNullaryOp@U?$scalar_constant_op@M@internal@Eigen@@V?$Matrix@M$02$00$0A@$02$00@3@@Eigen@@@internal@Eigen@@QEAA@XZ
	??1?$evaluator_base@V?$CwiseNullaryOp@U?$scalar_constant_op@M@internal@Eigen@@V?$Matrix@M$02$02$0A@$02$02@3@@Eigen@@@internal@Eigen@@QEAA@XZ
	??1?$evaluator_base@V?$CwiseNullaryOp@U?$scalar_constant_op@M@internal@Eigen@@V?$Matrix@M$03$00$0A@$03$00@3@@Eigen@@@internal@Eigen@@QEAA@XZ
	??1?$evaluator_base@V?$CwiseNullaryOp@U?$scalar_constant_op@M@internal@Eigen@@V?$Matrix@M$03$03$0A@$03$03@3@@Eigen@@@internal@Eigen@@QEAA@XZ
	??1?$evaluator_base@V?$CwiseNullaryOp@U?$scalar_identity_op@M@internal@Eigen@@V?$Matrix@M$02$02$0A@$02$02@3@@Eigen@@@internal@Eigen@@QEAA@XZ
	??1?$evaluator_base@V?$CwiseNullaryOp@U?$scalar_identity_op@M@internal@Eigen@@V?$Matrix@M$03$03$0A@$03$03@3@@Eigen@@@internal@Eigen@@QEAA@XZ
	??1?$evaluator_base@V?$CwiseUnaryOp@U?$scalar_abs2_op@M@internal@Eigen@@$$CBV?$CwiseBinaryOp@U?$scalar_difference_op@MM@internal@Eigen@@$$CBV?$Matrix@M$02$00$0A@$02$00@3@$$CBV43@@3@@Eigen@@@internal@Eigen@@QEAA@XZ
	??1?$evaluator_base@V?$CwiseUnaryOp@U?$scalar_abs2_op@M@internal@Eigen@@$$CBV?$Matrix@M$02$00$0A@$02$00@3@@Eigen@@@internal@Eigen@@QEAA@XZ
	??1?$evaluator_base@V?$CwiseUnaryOp@U?$scalar_abs2_op@M@internal@Eigen@@$$CBV?$Matrix@M$03$00$0A@$03$00@3@@Eigen@@@internal@Eigen@@QEAA@XZ
	??1?$evaluator_base@V?$CwiseUnaryOp@U?$scalar_opposite_op@M@internal@Eigen@@$$CBV?$Matrix@M$02$00$0A@$02$00@3@@Eigen@@@internal@Eigen@@QEAA@XZ
	??1?$evaluator_base@V?$Diagonal@V?$Matrix@M$02$02$0A@$02$02@Eigen@@$0A@@Eigen@@@internal@Eigen@@QEAA@XZ
	??1?$evaluator_base@V?$Matrix@H$01$00$0A@$01$00@Eigen@@@internal@Eigen@@QEAA@XZ
	??1?$evaluator_base@V?$Matrix@M$01$00$0A@$01$00@Eigen@@@internal@Eigen@@QEAA@XZ
	??1?$evaluator_base@V?$Matrix@M$02$00$0A@$02$00@Eigen@@@internal@Eigen@@QEAA@XZ
	??1?$evaluator_base@V?$Matrix@M$02$02$0A@$02$02@Eigen@@@internal@Eigen@@QEAA@XZ
	??1?$evaluator_base@V?$Matrix@M$03$00$0A@$03$00@Eigen@@@internal@Eigen@@QEAA@XZ
	??1?$evaluator_base@V?$Matrix@M$03$03$0A@$03$03@Eigen@@@internal@Eigen@@QEAA@XZ
	??1?$evaluator_base@V?$Product@V?$Block@$$CBV?$Matrix@M$03$03$0A@$03$03@Eigen@@$02$02$0A@@Eigen@@V12@$00@Eigen@@@internal@Eigen@@QEAA@XZ
	??1?$evaluator_base@V?$Product@V?$Block@$$CBV?$Matrix@M$03$03$0A@$03$03@Eigen@@$02$02$0A@@Eigen@@V?$Block@$$CBV?$Matrix@M$03$03$0A@$03$03@Eigen@@$02$00$00@2@$00@Eigen@@@internal@Eigen@@QEAA@XZ
	??1?$evaluator_base@V?$Product@V?$Block@V?$Matrix@M$03$03$0A@$03$03@Eigen@@$02$02$0A@@Eigen@@V?$CwiseUnaryOp@U?$scalar_opposite_op@M@internal@Eigen@@$$CBV?$Matrix@M$02$00$0A@$02$00@3@@2@$00@Eigen@@@internal@Eigen@@QEAA@XZ
	??1?$evaluator_base@V?$Product@V?$Block@V?$Matrix@M$03$03$0A@$03$03@Eigen@@$02$02$0A@@Eigen@@V?$DiagonalWrapper@$$CBV?$Matrix@M$02$00$0A@$02$00@Eigen@@@2@$00@Eigen@@@internal@Eigen@@QEAA@XZ
	??1?$evaluator_base@V?$Product@V?$Block@V?$Matrix@M$03$03$0A@$03$03@Eigen@@$02$02$0A@@Eigen@@V?$Matrix@M$02$00$0A@$02$00@2@$00@Eigen@@@internal@Eigen@@QEAA@XZ
	??1?$evaluator_base@V?$Product@V?$Block@V?$Matrix@M$03$03$0A@$03$03@Eigen@@$02$02$0A@@Eigen@@V?$Matrix@M$02$02$0A@$02$02@2@$00@Eigen@@@internal@Eigen@@QEAA@XZ
	??1?$evaluator_base@V?$Transpose@$$CBV?$Block@$$CBV?$Block@$$CBV?$Matrix@M$03$03$0A@$03$03@Eigen@@$02$02$0A@@Eigen@@$00$02$0A@@Eigen@@@Eigen@@@internal@Eigen@@QEAA@XZ
	??1?$evaluator_base@V?$Transpose@$$CBV?$Block@$$CBV?$Block@V?$Matrix@M$03$03$0A@$03$03@Eigen@@$02$02$0A@@Eigen@@$00$02$0A@@Eigen@@@Eigen@@@internal@Eigen@@QEAA@XZ
	??1?$evaluator_wrapper_base@V?$ArrayWrapper@$$CBV?$CwiseBinaryOp@U?$scalar_product_op@MM@internal@Eigen@@$$CBV?$Matrix@M$02$00$0A@$02$00@3@$$CBV43@@Eigen@@@Eigen@@@internal@Eigen@@QEAA@XZ
	??1?$function@$$A6AXH@Z@std@@QEAA@XZ
	??1?$function@$$A6AXM@Z@std@@QEAA@XZ
	??1?$function@$$A6AXXZ@std@@QEAA@XZ
	??1?$mapbase_evaluator@V?$Block@$$CBV?$Block@$$CBV?$Matrix@M$03$03$0A@$03$03@Eigen@@$02$00$00@Eigen@@$02$00$00@Eigen@@V?$Matrix@M$02$00$0A@$02$00@2@@internal@Eigen@@QEAA@XZ
	??1?$mapbase_evaluator@V?$Block@$$CBV?$Block@$$CBV?$Matrix@M$03$03$0A@$03$03@Eigen@@$02$02$0A@@Eigen@@$00$02$0A@@Eigen@@V?$Matrix@M$00$02$00$00$02@2@@internal@Eigen@@QEAA@XZ
	??1?$mapbase_evaluator@V?$Block@$$CBV?$Block@$$CBV?$Matrix@M$03$03$0A@$03$03@Eigen@@$02$02$0A@@Eigen@@$02$00$00@Eigen@@V?$Matrix@M$02$00$0A@$02$00@2@@internal@Eigen@@QEAA@XZ
	??1?$mapbase_evaluator@V?$Block@$$CBV?$Block@V?$Matrix@M$03$03$0A@$03$03@Eigen@@$02$02$0A@@Eigen@@$00$02$0A@@Eigen@@V?$Matrix@M$00$02$00$00$02@2@@internal@Eigen@@QEAA@XZ
	??1?$mapbase_evaluator@V?$Block@$$CBV?$Matrix@M$02$00$0A@$02$00@Eigen@@$02$00$00@Eigen@@V?$Matrix@M$02$00$0A@$02$00@2@@internal@Eigen@@QEAA@XZ
	??1?$mapbase_evaluator@V?$Block@$$CBV?$Matrix@M$02$02$0A@$02$02@Eigen@@$02$00$00@Eigen@@V?$Matrix@M$02$00$0A@$02$00@2@@internal@Eigen@@QEAA@XZ
	??1?$mapbase_evaluator@V?$Block@$$CBV?$Matrix@M$03$03$0A@$03$03@Eigen@@$02$00$00@Eigen@@V?$Matrix@M$02$00$0A@$02$00@2@@internal@Eigen@@QEAA@XZ
	??1?$mapbase_evaluator@V?$Block@$$CBV?$Matrix@M$03$03$0A@$03$03@Eigen@@$02$02$0A@@Eigen@@V?$Matrix@M$02$02$0A@$02$02@2@@internal@Eigen@@QEAA@XZ
	??1?$mapbase_evaluator@V?$Block@V?$Matrix@M$02$00$0A@$02$00@Eigen@@$0?0$00$0A@@Eigen@@V?$Matrix@M$0?0$00$0A@$02$00@2@@internal@Eigen@@QEAA@XZ
	??1?$mapbase_evaluator@V?$Block@V?$Matrix@M$03$00$0A@$03$00@Eigen@@$02$00$0A@@Eigen@@V?$Matrix@M$02$00$0A@$02$00@2@@internal@Eigen@@QEAA@XZ
	??1?$mapbase_evaluator@V?$Block@V?$Matrix@M$03$03$0A@$03$03@Eigen@@$00$02$0A@@Eigen@@V?$Matrix@M$00$02$00$00$02@2@@internal@Eigen@@QEAA@XZ
	??1?$mapbase_evaluator@V?$Block@V?$Matrix@M$03$03$0A@$03$03@Eigen@@$02$00$00@Eigen@@V?$Matrix@M$02$00$0A@$02$00@2@@internal@Eigen@@QEAA@XZ
	??1?$mapbase_evaluator@V?$Block@V?$Matrix@M$03$03$0A@$03$03@Eigen@@$02$00$0A@@Eigen@@V?$Matrix@M$02$00$0A@$02$00@2@@internal@Eigen@@QEAA@XZ
	??1?$mapbase_evaluator@V?$Block@V?$Matrix@M$03$03$0A@$03$03@Eigen@@$02$02$0A@@Eigen@@V?$Matrix@M$02$02$0A@$02$02@2@@internal@Eigen@@QEAA@XZ
	??1?$product_evaluator@V?$Product@V?$Block@$$CBV?$Matrix@M$03$03$0A@$03$03@Eigen@@$02$02$0A@@Eigen@@V12@$00@Eigen@@$02UDenseShape@2@U32@MM@internal@Eigen@@QEAA@XZ
	??1?$product_evaluator@V?$Product@V?$Block@$$CBV?$Matrix@M$03$03$0A@$03$03@Eigen@@$02$02$0A@@Eigen@@V?$Block@$$CBV?$Matrix@M$03$03$0A@$03$03@Eigen@@$02$00$00@2@$00@Eigen@@$02UDenseShape@2@U32@MM@internal@Eigen@@QEAA@XZ
	??1?$product_evaluator@V?$Product@V?$Block@$$CBV?$Matrix@M$03$03$0A@$03$03@Eigen@@$02$02$0A@@Eigen@@V?$Block@$$CBV?$Matrix@M$03$03$0A@$03$03@Eigen@@$02$00$00@2@$0A@@Eigen@@$02UDenseShape@2@U32@MM@internal@Eigen@@QEAA@XZ
	??1?$product_evaluator@V?$Product@V?$Block@V?$Matrix@M$03$03$0A@$03$03@Eigen@@$02$02$0A@@Eigen@@V?$CwiseUnaryOp@U?$scalar_opposite_op@M@internal@Eigen@@$$CBV?$Matrix@M$02$00$0A@$02$00@3@@2@$00@Eigen@@$02UDenseShape@2@U32@MM@internal@Eigen@@QEAA@XZ
	??1?$product_evaluator@V?$Product@V?$Block@V?$Matrix@M$03$03$0A@$03$03@Eigen@@$02$02$0A@@Eigen@@V?$DiagonalWrapper@$$CBV?$Matrix@M$02$00$0A@$02$00@Eigen@@@2@$00@Eigen@@$02UDenseShape@2@UDiagonalShape@2@MM@internal@Eigen@@QEAA@XZ
	??1?$product_evaluator@V?$Product@V?$Block@V?$Matrix@M$03$03$0A@$03$03@Eigen@@$02$02$0A@@Eigen@@V?$Matrix@M$02$00$0A@$02$00@2@$00@Eigen@@$02UDenseShape@2@U32@MM@internal@Eigen@@QEAA@XZ
	??1?$product_evaluator@V?$Product@V?$Block@V?$Matrix@M$03$03$0A@$03$03@Eigen@@$02$02$0A@@Eigen@@V?$Matrix@M$02$02$0A@$02$02@2@$00@Eigen@@$02UDenseShape@2@U32@MM@internal@Eigen@@QEAA@XZ
	??1?$redux_evaluator@V?$CwiseBinaryOp@U?$scalar_conj_product_op@MM@internal@Eigen@@$$CBV?$Matrix@M$02$00$0A@$02$00@3@$$CBV43@@Eigen@@@internal@Eigen@@QEAA@XZ
	??1?$redux_evaluator@V?$CwiseBinaryOp@U?$scalar_product_op@MM@internal@Eigen@@$$CBV?$Transpose@$$CBV?$Block@$$CBV?$Block@$$CBV?$Matrix@M$03$03$0A@$03$03@Eigen@@$02$02$0A@@Eigen@@$00$02$0A@@Eigen@@@3@$$CBV?$Block@$$CBV?$Block@$$CBV?$Matrix@M$03$03$0A@$03$03@Eigen@@$02$00$00@Eigen@@$02$00$00@3@@Eigen@@@internal@Eigen@@QEAA@XZ
	??1?$redux_evaluator@V?$CwiseBinaryOp@U?$scalar_product_op@MM@internal@Eigen@@$$CBV?$Transpose@$$CBV?$Block@$$CBV?$Block@$$CBV?$Matrix@M$03$03$0A@$03$03@Eigen@@$02$02$0A@@Eigen@@$00$02$0A@@Eigen@@@3@$$CBV?$Block@$$CBV?$Block@$$CBV?$Matrix@M$03$03$0A@$03$03@Eigen@@$02$02$0A@@Eigen@@$02$00$00@3@@Eigen@@@internal@Eigen@@QEAA@XZ
	??1?$redux_evaluator@V?$CwiseBinaryOp@U?$scalar_product_op@MM@internal@Eigen@@$$CBV?$Transpose@$$CBV?$Block@$$CBV?$Block@V?$Matrix@M$03$03$0A@$03$03@Eigen@@$02$02$0A@@Eigen@@$00$02$0A@@Eigen@@@3@$$CBV?$Block@$$CBV?$CwiseUnaryOp@U?$scalar_opposite_op@M@internal@Eigen@@$$CBV?$Matrix@M$02$00$0A@$02$00@3@@Eigen@@$02$00$00@3@@Eigen@@@internal@Eigen@@QEAA@XZ
	??1?$redux_evaluator@V?$CwiseBinaryOp@U?$scalar_product_op@MM@internal@Eigen@@$$CBV?$Transpose@$$CBV?$Block@$$CBV?$Block@V?$Matrix@M$03$03$0A@$03$03@Eigen@@$02$02$0A@@Eigen@@$00$02$0A@@Eigen@@@3@$$CBV?$Block@$$CBV?$Matrix@M$02$00$0A@$02$00@Eigen@@$02$00$00@3@@Eigen@@@internal@Eigen@@QEAA@XZ
	??1?$redux_evaluator@V?$CwiseBinaryOp@U?$scalar_product_op@MM@internal@Eigen@@$$CBV?$Transpose@$$CBV?$Block@$$CBV?$Block@V?$Matrix@M$03$03$0A@$03$03@Eigen@@$02$02$0A@@Eigen@@$00$02$0A@@Eigen@@@3@$$CBV?$Block@$$CBV?$Matrix@M$02$02$0A@$02$02@Eigen@@$02$00$00@3@@Eigen@@@internal@Eigen@@QEAA@XZ
	??1?$redux_evaluator@V?$CwiseUnaryOp@U?$scalar_abs2_op@M@internal@Eigen@@$$CBV?$CwiseBinaryOp@U?$scalar_difference_op@MM@internal@Eigen@@$$CBV?$Matrix@M$02$00$0A@$02$00@3@$$CBV43@@3@@Eigen@@@internal@Eigen@@QEAA@XZ
	??1?$redux_evaluator@V?$CwiseUnaryOp@U?$scalar_abs2_op@M@internal@Eigen@@$$CBV?$Matrix@M$02$00$0A@$02$00@3@@Eigen@@@internal@Eigen@@QEAA@XZ
	??1?$redux_evaluator@V?$CwiseUnaryOp@U?$scalar_abs2_op@M@internal@Eigen@@$$CBV?$Matrix@M$03$00$0A@$03$00@3@@Eigen@@@internal@Eigen@@QEAA@XZ
	??1?$shared_ptr@I@std@@QEAA@XZ
	??1?$unary_evaluator@V?$ArrayWrapper@$$CBV?$CwiseBinaryOp@U?$scalar_product_op@MM@internal@Eigen@@$$CBV?$Matrix@M$02$00$0A@$02$00@3@$$CBV43@@Eigen@@@Eigen@@UIndexBased@internal@2@M@internal@Eigen@@QEAA@XZ
	??1?$unary_evaluator@V?$Block@$$CBV?$CwiseNullaryOp@U?$scalar_identity_op@M@internal@Eigen@@V?$Matrix@M$02$02$0A@$02$02@3@@Eigen@@$02$00$0A@@Eigen@@UIndexBased@internal@2@M@internal@Eigen@@QEAA@XZ
	??1?$unary_evaluator@V?$Block@$$CBV?$CwiseUnaryOp@U?$scalar_opposite_op@M@internal@Eigen@@$$CBV?$Matrix@M$02$00$0A@$02$00@3@@Eigen@@$02$00$00@Eigen@@UIndexBased@internal@2@M@internal@Eigen@@QEAA@XZ
	??1?$unary_evaluator@V?$CwiseUnaryOp@U?$scalar_abs2_op@M@internal@Eigen@@$$CBV?$CwiseBinaryOp@U?$scalar_difference_op@MM@internal@Eigen@@$$CBV?$Matrix@M$02$00$0A@$02$00@3@$$CBV43@@3@@Eigen@@UIndexBased@internal@2@M@internal@Eigen@@QEAA@XZ
	??1?$unary_evaluator@V?$CwiseUnaryOp@U?$scalar_abs2_op@M@internal@Eigen@@$$CBV?$Matrix@M$02$00$0A@$02$00@3@@Eigen@@UIndexBased@internal@2@M@internal@Eigen@@QEAA@XZ
	??1?$unary_evaluator@V?$CwiseUnaryOp@U?$scalar_abs2_op@M@internal@Eigen@@$$CBV?$Matrix@M$03$00$0A@$03$00@3@@Eigen@@UIndexBased@internal@2@M@internal@Eigen@@QEAA@XZ
	??1?$unary_evaluator@V?$CwiseUnaryOp@U?$scalar_opposite_op@M@internal@Eigen@@$$CBV?$Matrix@M$02$00$0A@$02$00@3@@Eigen@@UIndexBased@internal@2@M@internal@Eigen@@QEAA@XZ
	??1?$unary_evaluator@V?$Transpose@$$CBV?$Block@$$CBV?$Block@$$CBV?$Matrix@M$03$03$0A@$03$03@Eigen@@$02$02$0A@@Eigen@@$00$02$0A@@Eigen@@@Eigen@@UIndexBased@internal@2@M@internal@Eigen@@QEAA@XZ
	??1?$unary_evaluator@V?$Transpose@$$CBV?$Block@$$CBV?$Block@V?$Matrix@M$03$03$0A@$03$03@Eigen@@$02$02$0A@@Eigen@@$00$02$0A@@Eigen@@@Eigen@@UIndexBased@internal@2@M@internal@Eigen@@QEAA@XZ
	??1?$unique_ptr@UGuiImpl@tucanow@@U?$default_delete@UGuiImpl@tucanow@@@std@@@std@@QEAA@XZ
	??1?$unique_ptr@USceneImpl@tucanow@@U?$default_delete@USceneImpl@tucanow@@@std@@@std@@QEAA@XZ
	??1?$unique_ptr@V_Facet_base@std@@U?$default_delete@V_Facet_base@std@@@2@@std@@QEAA@XZ
	??1?$vector@HV?$allocator@H@std@@@std@@QEAA@XZ
	??1?$vector@IV?$allocator@I@std@@@std@@QEAA@XZ
	??1?$vector@MV?$allocator@M@std@@@std@@QEAA@XZ
	??1?$vector@PEAVElement@GUI@Tucano@@V?$allocator@PEAVElement@GUI@Tucano@@@std@@@std@@QEAA@XZ
	??1?$vector@PEAVShader@Tucano@@V?$allocator@PEAVShader@Tucano@@@std@@@std@@QEAA@XZ
	??1?$vector@V?$Matrix@M$01$00$0A@$01$00@Eigen@@V?$allocator@V?$Matrix@M$01$00$0A@$01$00@Eigen@@@std@@@std@@QEAA@XZ
	??1?$vector@V?$Matrix@M$02$00$0A@$02$00@Eigen@@V?$allocator@V?$Matrix@M$02$00$0A@$02$00@Eigen@@@std@@@std@@QEAA@XZ
	??1?$vector@V?$Matrix@M$03$00$0A@$03$00@Eigen@@V?$allocator@V?$Matrix@M$03$00$0A@$03$00@Eigen@@@std@@@std@@QEAA@XZ
	??1?$vector@VVertexAttribute@Tucano@@V?$allocator@VVertexAttribute@Tucano@@@std@@@std@@QEAA@XZ
	??1Arrow@Shapes@Tucano@@UEAA@XZ
	??1Base@GUI@Tucano@@QEAA@XZ
	??1Button@GUI@Tucano@@QEAA@XZ
	??1Camera@Tucano@@QEAA@XZ
	??1Data@?$binary_evaluator@V?$CwiseBinaryOp@U?$not_equal_to@M@std@@$$CBV?$Matrix@M$01$00$0A@$01$00@Eigen@@$$CBV?$Block@V?$Matrix@M$02$00$0A@$02$00@Eigen@@$0?0$00$0A@@4@@Eigen@@UIndexBased@internal@2@U342@MM@internal@Eigen@@QEAA@XZ
	??1Data@?$binary_evaluator@V?$CwiseBinaryOp@U?$not_equal_to@M@std@@$$CBV?$Matrix@M$03$03$0A@$03$03@Eigen@@$$CBV?$CwiseNullaryOp@U?$scalar_identity_op@M@internal@Eigen@@V?$Matrix@M$03$03$0A@$03$03@3@@4@@Eigen@@UIndexBased@internal@2@U342@MM@internal@Eigen@@QEAA@XZ
	??1Data@?$binary_evaluator@V?$CwiseBinaryOp@U?$scalar_conj_product_op@MM@internal@Eigen@@$$CBV?$Matrix@M$02$00$0A@$02$00@3@$$CBV43@@Eigen@@UIndexBased@internal@2@U342@MM@internal@Eigen@@QEAA@XZ
	??1Data@?$binary_evaluator@V?$CwiseBinaryOp@U?$scalar_difference_op@MM@internal@Eigen@@$$CBV?$Matrix@M$01$00$0A@$01$00@3@$$CBV43@@Eigen@@UIndexBased@internal@2@U342@MM@internal@Eigen@@QEAA@XZ
	??1Data@?$binary_evaluator@V?$CwiseBinaryOp@U?$scalar_difference_op@MM@internal@Eigen@@$$CBV?$Matrix@M$02$00$0A@$02$00@3@$$CBV43@@Eigen@@UIndexBased@internal@2@U342@MM@internal@Eigen@@QEAA@XZ
	??1Data@?$binary_evaluator@V?$CwiseBinaryOp@U?$scalar_product_op@MM@internal@Eigen@@$$CBV?$CwiseNullaryOp@U?$scalar_constant_op@M@internal@Eigen@@$$CBV?$Matrix@M$02$00$0A@$02$00@3@@3@$$CBV?$Matrix@M$02$00$0A@$02$00@3@@Eigen@@UIndexBased@internal@2@U342@MM@internal@Eigen@@QEAA@XZ
	??1Data@?$binary_evaluator@V?$CwiseBinaryOp@U?$scalar_product_op@MM@internal@Eigen@@$$CBV?$Matrix@M$02$00$0A@$02$00@3@$$CBV43@@Eigen@@UIndexBased@internal@2@U342@MM@internal@Eigen@@QEAA@XZ
	??1Data@?$binary_evaluator@V?$CwiseBinaryOp@U?$scalar_product_op@MM@internal@Eigen@@$$CBV?$Matrix@M$02$00$0A@$02$00@3@$$CBV?$CwiseNullaryOp@U?$scalar_constant_op@M@internal@Eigen@@$$CBV?$Matrix@M$02$00$0A@$02$00@3@@3@@Eigen@@UIndexBased@internal@2@U342@MM@internal@Eigen@@QEAA@XZ
	??1Data@?$binary_evaluator@V?$CwiseBinaryOp@U?$scalar_product_op@MM@internal@Eigen@@$$CBV?$Transpose@$$CBV?$Block@$$CBV?$Block@$$CBV?$Matrix@M$03$03$0A@$03$03@Eigen@@$02$02$0A@@Eigen@@$00$02$0A@@Eigen@@@3@$$CBV?$Block@$$CBV?$Block@$$CBV?$Matrix@M$03$03$0A@$03$03@Eigen@@$02$00$00@Eigen@@$02$00$00@3@@Eigen@@UIndexBased@internal@2@U342@MM@internal@Eigen@@QEAA@XZ
	??1Data@?$binary_evaluator@V?$CwiseBinaryOp@U?$scalar_product_op@MM@internal@Eigen@@$$CBV?$Transpose@$$CBV?$Block@$$CBV?$Block@$$CBV?$Matrix@M$03$03$0A@$03$03@Eigen@@$02$02$0A@@Eigen@@$00$02$0A@@Eigen@@@3@$$CBV?$Block@$$CBV?$Block@$$CBV?$Matrix@M$03$03$0A@$03$03@Eigen@@$02$02$0A@@Eigen@@$02$00$00@3@@Eigen@@UIndexBased@internal@2@U342@MM@internal@Eigen@@QEAA@XZ
	??1Data@?$binary_evaluator@V?$CwiseBinaryOp@U?$scalar_product_op@MM@internal@Eigen@@$$CBV?$Transpose@$$CBV?$Block@$$CBV?$Block@V?$Matrix@M$03$03$0A@$03$03@Eigen@@$02$02$0A@@Eigen@@$00$02$0A@@Eigen@@@3@$$CBV?$Block@$$CBV?$CwiseUnaryOp@U?$scalar_opposite_op@M@internal@Eigen@@$$CBV?$Matrix@M$02$00$0A@$02$00@3@@Eigen@@$02$00$00@3@@Eigen@@UIndexBased@internal@2@U342@MM@internal@Eigen@@QEAA@XZ
	??1Data@?$binary_evaluator@V?$CwiseBinaryOp@U?$scalar_product_op@MM@internal@Eigen@@$$CBV?$Transpose@$$CBV?$Block@$$CBV?$Block@V?$Matrix@M$03$03$0A@$03$03@Eigen@@$02$02$0A@@Eigen@@$00$02$0A@@Eigen@@@3@$$CBV?$Block@$$CBV?$Matrix@M$02$00$0A@$02$00@Eigen@@$02$00$00@3@@Eigen@@UIndexBased@internal@2@U342@MM@internal@Eigen@@QEAA@XZ
	??1Data@?$binary_evaluator@V?$CwiseBinaryOp@U?$scalar_product_op@MM@internal@Eigen@@$$CBV?$Transpose@$$CBV?$Block@$$CBV?$Block@V?$Matrix@M$03$03$0A@$03$03@Eigen@@$02$02$0A@@Eigen@@$00$02$0A@@Eigen@@@3@$$CBV?$Block@$$CBV?$Matrix@M$02$02$0A@$02$02@Eigen@@$02$00$00@3@@Eigen@@UIndexBased@internal@2@U342@MM@internal@Eigen@@QEAA@XZ
	??1Data@?$binary_evaluator@V?$CwiseBinaryOp@U?$scalar_quotient_op@MM@internal@Eigen@@$$CBV?$Matrix@M$02$00$0A@$02$00@3@$$CBV?$CwiseNullaryOp@U?$scalar_constant_op@M@internal@Eigen@@$$CBV?$Matrix@M$02$00$0A@$02$00@3@@3@@Eigen@@UIndexBased@internal@2@U342@MM@internal@Eigen@@QEAA@XZ
	??1Data@?$binary_evaluator@V?$CwiseBinaryOp@U?$scalar_quotient_op@MM@internal@Eigen@@$$CBV?$Matrix@M$03$00$0A@$03$00@3@$$CBV?$CwiseNullaryOp@U?$scalar_constant_op@M@internal@Eigen@@$$CBV?$Matrix@M$03$00$0A@$03$00@3@@3@@Eigen@@UIndexBased@internal@2@U342@MM@internal@Eigen@@QEAA@XZ
	??1Data@?$binary_evaluator@V?$CwiseBinaryOp@U?$scalar_sum_op@MM@internal@Eigen@@$$CBV?$ArrayWrapper@$$CBV?$CwiseBinaryOp@U?$scalar_product_op@MM@internal@Eigen@@$$CBV?$Matrix@M$02$00$0A@$02$00@3@$$CBV43@@Eigen@@@3@$$CBV?$CwiseNullaryOp@U?$scalar_constant_op@M@internal@Eigen@@$$CBV?$Array@M$02$00$0A@$02$00@3@@3@@Eigen@@UIndexBased@internal@2@U342@MM@internal@Eigen@@QEAA@XZ
	??1Data@?$binary_evaluator@V?$CwiseBinaryOp@U?$scalar_sum_op@MM@internal@Eigen@@$$CBV?$CwiseBinaryOp@U?$scalar_sum_op@MM@internal@Eigen@@$$CBV?$Matrix@M$02$00$0A@$02$00@3@$$CBV?$CwiseBinaryOp@U?$scalar_product_op@MM@internal@Eigen@@$$CBV?$CwiseNullaryOp@U?$scalar_constant_op@M@internal@Eigen@@$$CBV?$Matrix@M$02$00$0A@$02$00@3@@3@$$CBV?$Matrix@M$02$00$0A@$02$00@3@@3@@3@$$CBV?$Matrix@M$02$00$0A@$02$00@3@@Eigen@@UIndexBased@internal@2@U342@MM@internal@Eigen@@QEAA@XZ
	??1Data@?$binary_evaluator@V?$CwiseBinaryOp@U?$scalar_sum_op@MM@internal@Eigen@@$$CBV?$Matrix@M$02$00$0A@$02$00@3@$$CBV43@@Eigen@@UIndexBased@internal@2@U342@MM@internal@Eigen@@QEAA@XZ
	??1Data@?$binary_evaluator@V?$CwiseBinaryOp@U?$scalar_sum_op@MM@internal@Eigen@@$$CBV?$Matrix@M$02$00$0A@$02$00@3@$$CBV?$CwiseBinaryOp@U?$scalar_product_op@MM@internal@Eigen@@$$CBV?$CwiseNullaryOp@U?$scalar_constant_op@M@internal@Eigen@@$$CBV?$Matrix@M$02$00$0A@$02$00@3@@3@$$CBV?$Matrix@M$02$00$0A@$02$00@3@@3@@Eigen@@UIndexBased@internal@2@U342@MM@internal@Eigen@@QEAA@XZ
	??1Data@?$binary_evaluator@V?$CwiseBinaryOp@U?$scalar_sum_op@MM@internal@Eigen@@$$CBV?$Product@V?$Block@$$CBV?$Matrix@M$03$03$0A@$03$03@Eigen@@$02$02$0A@@Eigen@@V?$Block@$$CBV?$Matrix@M$03$03$0A@$03$03@Eigen@@$02$00$00@2@$0A@@3@$$CBV?$Block@$$CBV?$Matrix@M$03$03$0A@$03$03@Eigen@@$02$00$00@3@@Eigen@@UIndexBased@internal@2@U342@MM@internal@Eigen@@QEAA@XZ
	??1Data@?$unary_evaluator@V?$CwiseUnaryOp@U?$scalar_abs2_op@M@internal@Eigen@@$$CBV?$CwiseBinaryOp@U?$scalar_difference_op@MM@internal@Eigen@@$$CBV?$Matrix@M$02$00$0A@$02$00@3@$$CBV43@@3@@Eigen@@UIndexBased@internal@2@M@internal@Eigen@@QEAA@XZ
	??1Data@?$unary_evaluator@V?$CwiseUnaryOp@U?$scalar_abs2_op@M@internal@Eigen@@$$CBV?$Matrix@M$02$00$0A@$02$00@3@@Eigen@@UIndexBased@internal@2@M@internal@Eigen@@QEAA@XZ
	??1Data@?$unary_evaluator@V?$CwiseUnaryOp@U?$scalar_abs2_op@M@internal@Eigen@@$$CBV?$Matrix@M$03$00$0A@$03$00@3@@Eigen@@UIndexBased@internal@2@M@internal@Eigen@@QEAA@XZ
	??1Data@?$unary_evaluator@V?$CwiseUnaryOp@U?$scalar_opposite_op@M@internal@Eigen@@$$CBV?$Matrix@M$02$00$0A@$02$00@3@@Eigen@@UIndexBased@internal@2@M@internal@Eigen@@QEAA@XZ
	??1DirectionalTrackball@Tucano@@QEAA@XZ
	??1Effect@Tucano@@QEAA@XZ
	??1Element@GUI@Tucano@@QEAA@XZ
	??1GroupBox@GUI@Tucano@@QEAA@XZ
	??1Gui@tucanow@@UEAA@XZ
	??1GuiImpl@tucanow@@QEAA@XZ
	??1Label@GUI@Tucano@@QEAA@XZ
	??1Mesh@Tucano@@UEAA@XZ
	??1Phong@Effects@Tucano@@QEAA@XZ
	??1Quad@Shapes@Tucano@@UEAA@XZ
	??1Scene@tucanow@@UEAA@XZ
	??1SceneImpl@tucanow@@QEAA@XZ
	??1SelectButton@GUI@Tucano@@QEAA@XZ
	??1Shader@Tucano@@QEAA@XZ
	??1Slider@GUI@Tucano@@QEAA@XZ
	??1Texture@Tucano@@QEAA@XZ
	??1TextureManager@Tucano@@QEAA@XZ
	??1Trackball@Tucano@@QEAA@XZ
	??1VertexAttribute@Tucano@@QEAA@XZ
	??1Wireframe@Effects@Tucano@@QEAA@XZ
	??1_Bxty@?$_String_val@U?$_Simple_types@D@std@@@std@@QEAA@XZ
	??1_Iterator_base12@std@@QEAA@XZ
	??1_Ref_count_base@std@@UEAA@XZ
	??1_Sentry_base@?$basic_istream@DU?$char_traits@D@std@@@std@@QEAA@XZ
	??1_Sentry_base@?$basic_ostream@DU?$char_traits@D@std@@@std@@QEAA@XZ
	??1bad_cast@std@@UEAA@XZ
	??1exception@std@@UEAA@XZ
	??1locale@std@@QEAA@XZ
	??1logic_error@std@@UEAA@XZ
	??1sentry@?$basic_istream@DU?$char_traits@D@std@@@std@@QEAA@XZ
	??1sentry@?$basic_ostream@DU?$char_traits@D@std@@@std@@QEAA@XZ
	??2@YAPEAX_KPEAX@Z
	??4?$Matrix@H$01$00$0A@$01$00@Eigen@@QEAAAEAV01@AEBV01@@Z
	??4?$Matrix@M$01$00$0A@$01$00@Eigen@@QEAAAEAV01@AEBV01@@Z
	??4?$Matrix@M$02$00$0A@$02$00@Eigen@@QEAAAEAV01@$$QEAV01@@Z
	??4?$Matrix@M$02$00$0A@$02$00@Eigen@@QEAAAEAV01@AEBV01@@Z
	??4?$Matrix@M$03$00$0A@$03$00@Eigen@@QEAAAEAV01@$$QEAV01@@Z
	??4?$Matrix@M$03$00$0A@$03$00@Eigen@@QEAAAEAV01@AEBV01@@Z
	??4?$Matrix@M$03$03$0A@$03$03@Eigen@@QEAAAEAV01@AEBV01@@Z
	??4?$Quaternion@M$0A@@Eigen@@QEAAAEAV01@$$QEAV01@@Z
	??4?$QuaternionBase@V?$Quaternion@M$0A@@Eigen@@@Eigen@@QEAAAEAV?$Quaternion@M$0A@@1@AEBV?$AngleAxis@M@1@@Z
	??4?$Transform@M$02$01$0A@@Eigen@@QEAAAEAV01@AEBV01@@Z
	??4?$basic_string@DU?$char_traits@D@std@@V?$allocator@D@2@@std@@QEAAAEAV01@$$QEAV01@@Z
	??4?$basic_string@DU?$char_traits@D@std@@V?$allocator@D@2@@std@@QEAAAEAV01@AEBV01@@Z
	??4?$function@$$A6AXH@Z@std@@QEAAAEAV01@$$T@Z
	??4?$function@$$A6AXH@Z@std@@QEAAAEAV01@AEBV01@@Z
	??4?$function@$$A6AXM@Z@std@@QEAAAEAV01@$$T@Z
	??4?$function@$$A6AXM@Z@std@@QEAAAEAV01@AEBV01@@Z
	??4?$function@$$A6AXXZ@std@@QEAAAEAV01@$$T@Z
	??4?$function@$$A6AXXZ@std@@QEAAAEAV01@AEBV01@@Z
	??4?$shared_ptr@I@std@@QEAAAEAV01@$$QEAV01@@Z
	??4?$shared_ptr@I@std@@QEAAAEAV01@AEBV01@@Z
	??4?$unique_ptr@USceneImpl@tucanow@@U?$default_delete@USceneImpl@tucanow@@@std@@@std@@QEAAAEAV01@$$QEAV01@@Z
	??4?$vector@VVertexAttribute@Tucano@@V?$allocator@VVertexAttribute@Tucano@@@std@@@std@@QEAAAEAV01@AEBV01@@Z
	??4Arrow@Shapes@Tucano@@QEAAAEAV012@$$QEAV012@@Z
	??4Mesh@Tucano@@QEAAAEAV01@AEBV01@@Z
	??4Model@Tucano@@QEAAAEAV01@AEBV01@@Z
	??4Scene@tucanow@@QEAAAEAV01@$$QEAV01@@Z
	??4Shader@Tucano@@QEAAAEAV01@AEBV01@@Z
	??4Texture@Tucano@@QEAAAEAV01@AEBV01@@Z
	??4VertexAttribute@Tucano@@QEAAAEAV01@AEBV01@@Z
	??6?$DenseBase@V?$Matrix@H$01$00$0A@$01$00@Eigen@@@Eigen@@QEAA?AU?$CommaInitializer@V?$Matrix@H$01$00$0A@$01$00@Eigen@@@1@AEBH@Z
	??6?$DenseBase@V?$Matrix@M$01$00$0A@$01$00@Eigen@@@Eigen@@QEAA?AU?$CommaInitializer@V?$Matrix@M$01$00$0A@$01$00@Eigen@@@1@AEBM@Z
	??6?$DenseBase@V?$Matrix@M$02$00$0A@$02$00@Eigen@@@Eigen@@QEAA?AU?$CommaInitializer@V?$Matrix@M$02$00$0A@$02$00@Eigen@@@1@AEBM@Z
	??6?$DenseBase@V?$Matrix@M$03$00$0A@$03$00@Eigen@@@Eigen@@QEAA?AU?$CommaInitializer@V?$Matrix@M$03$00$0A@$03$00@Eigen@@@1@AEBM@Z
	??8type_info@@QEBA_NAEBV0@@Z
	??A?$DenseCoeffsBase@V?$Matrix@H$01$00$0A@$01$00@Eigen@@$00@Eigen@@QEAAAEAH_J@Z
	??A?$DenseCoeffsBase@V?$Matrix@H$01$00$0A@$01$00@Eigen@@$0A@@Eigen@@QEBAAEBH_J@Z
	??A?$DenseCoeffsBase@V?$Matrix@M$01$00$0A@$01$00@Eigen@@$00@Eigen@@QEAAAEAM_J@Z
	??A?$DenseCoeffsBase@V?$Matrix@M$01$00$0A@$01$00@Eigen@@$0A@@Eigen@@QEBAAEBM_J@Z
	??A?$DenseCoeffsBase@V?$Matrix@M$02$00$0A@$02$00@Eigen@@$00@Eigen@@QEAAAEAM_J@Z
	??A?$DenseCoeffsBase@V?$Matrix@M$02$00$0A@$02$00@Eigen@@$0A@@Eigen@@QEBAAEBM_J@Z
	??A?$DenseCoeffsBase@V?$Matrix@M$03$00$0A@$03$00@Eigen@@$00@Eigen@@QEAAAEAM_J@Z
	??A?$DenseCoeffsBase@V?$Matrix@M$03$00$0A@$03$00@Eigen@@$0A@@Eigen@@QEBAAEBM_J@Z
	??A?$vector@HV?$allocator@H@std@@@std@@QEAAAEAH_K@Z
	??A?$vector@IV?$allocator@I@std@@@std@@QEAAAEAI_K@Z
	??A?$vector@MV?$allocator@M@std@@@std@@QEAAAEAM_K@Z
	??A?$vector@MV?$allocator@M@std@@@std@@QEBAAEBM_K@Z
	??A?$vector@PEAVElement@GUI@Tucano@@V?$allocator@PEAVElement@GUI@Tucano@@@std@@@std@@QEAAAEAPEAVElement@GUI@Tucano@@_K@Z
	??A?$vector@PEAVSelectButton@GUI@Tucano@@V?$allocator@PEAVSelectButton@GUI@Tucano@@@std@@@std@@QEAAAEAPEAVSelectButton@GUI@Tucano@@_K@Z
	??A?$vector@PEAVShader@Tucano@@V?$allocator@PEAVShader@Tucano@@@std@@@std@@QEAAAEAPEAVShader@Tucano@@_K@Z
	??A?$vector@V?$Matrix@M$01$00$0A@$01$00@Eigen@@V?$allocator@V?$Matrix@M$01$00$0A@$01$00@Eigen@@@std@@@std@@QEAAAEAV?$Matrix@M$01$00$0A@$01$00@Eigen@@_K@Z
	??A?$vector@V?$Matrix@M$02$00$0A@$02$00@Eigen@@V?$allocator@V?$Matrix@M$02$00$0A@$02$00@Eigen@@@std@@@std@@QEAAAEAV?$Matrix@M$02$00$0A@$02$00@Eigen@@_K@Z
	??A?$vector@V?$Matrix@M$03$00$0A@$03$00@Eigen@@V?$allocator@V?$Matrix@M$03$00$0A@$03$00@Eigen@@@std@@@std@@QEAAAEAV?$Matrix@M$03$00$0A@$03$00@Eigen@@_K@Z
	??A?$vector@VVertexAttribute@Tucano@@V?$allocator@VVertexAttribute@Tucano@@@std@@@std@@QEAAAEAVVertexAttribute@Tucano@@_K@Z
	??A?$vector@VVertexAttribute@Tucano@@V?$allocator@VVertexAttribute@Tucano@@@std@@@std@@QEBAAEBVVertexAttribute@Tucano@@_K@Z
	??B?$fpos@U_Mbstatet@@@std@@QEBA_JXZ
	??B?$shared_ptr@I@std@@QEBA_NXZ
	??Bsentry@?$basic_istream@DU?$char_traits@D@std@@@std@@QEBA_NXZ
	??Bsentry@?$basic_ostream@DU?$char_traits@D@std@@@std@@QEBA_NXZ
	??C?$unique_ptr@UGuiImpl@tucanow@@U?$default_delete@UGuiImpl@tucanow@@@std@@@std@@QEBAPEAUGuiImpl@tucanow@@XZ
	??C?$unique_ptr@USceneImpl@tucanow@@U?$default_delete@USceneImpl@tucanow@@@std@@@std@@QEBAPEAUSceneImpl@tucanow@@XZ
	??D?$Transform@M$02$01$0A@@Eigen@@QEBA?BV01@AEBV01@@Z
	??D?$_String_const_iterator@V?$_String_val@U?$_Simple_types@D@std@@@std@@@std@@QEBAAEBDXZ
	??D?$_String_iterator@V?$_String_val@U?$_Simple_types@D@std@@@std@@@std@@QEBAAEADXZ
	??G?$DenseBase@V?$Matrix@M$02$00$0A@$02$00@Eigen@@@Eigen@@QEBA?BV?$CwiseUnaryOp@U?$scalar_opposite_op@M@internal@Eigen@@$$CBV?$Matrix@M$02$00$0A@$02$00@3@@1@XZ
	??Q?$CommaInitializer@V?$Matrix@H$01$00$0A@$01$00@Eigen@@@Eigen@@QEAAAEAU01@AEBH@Z
	??Q?$CommaInitializer@V?$Matrix@M$01$00$0A@$01$00@Eigen@@@Eigen@@QEAAAEAU01@AEBM@Z
	??Q?$CommaInitializer@V?$Matrix@M$02$00$0A@$02$00@Eigen@@@Eigen@@QEAAAEAU01@AEBM@Z
	??Q?$CommaInitializer@V?$Matrix@M$03$00$0A@$03$00@Eigen@@@Eigen@@QEAAAEAU01@AEBM@Z
	??R<lambda_0eb331034ec64f284d3276d5eb9bc498>@@QEBAXPEAI@Z
	??R<lambda_1d192c76f25f01443164c3008efd2f7a>@@QEBAXPEAI@Z
	??R<lambda_20810bc6c307e6c094ca4ad02a7e2c1b>@@QEBAXPEAI@Z
	??R<lambda_297a8ab7031fb168e0f42b0ceacfb411>@@QEBAXPEAI@Z
	??R<lambda_319d5e083f45f90dcdce5dce53cbb275>@@QEBAXQEADQEBD_KD@Z
	??R<lambda_3a3d10b6c3efd1a8679460d8f1128bfe>@@QEBAXPEAI@Z
	??R<lambda_42565b2b1ff40c7ec619f6b0eefb855d>@@QEBAXPEAI@Z
	??R<lambda_59114e1161731b809247c9c49615e8bc>@@QEBAXPEAI@Z
	??R<lambda_65e615be2a453ca0576c979606f46740>@@QEBAXQEADQEBD_K12@Z
	??R<lambda_66f57f934f28d61049862f64df852ff0>@@QEBAXQEAD_KQEBD@Z
	??R<lambda_7817004a68f0dccb72be0e8c40851883>@@QEBAXPEAI@Z
	??R<lambda_9013ee9e23efe4882b67eff5b0ecf103>@@QEBAXQEADQEBD_K@Z
	??R<lambda_b660b692aa17cad6c64c8293c384ce89>@@QEBAXPEAI@Z
	??R<lambda_ce9ec88a1648543eec0dbc746d8a6173>@@QEBAXPEAI@Z
	??R<lambda_ef956bcedf99c3666c1c91f23b99b48b>@@QEBAXPEAI@Z
	??R?$DenseCoeffsBase@V?$Matrix@M$03$03$0A@$03$03@Eigen@@$00@Eigen@@QEAAAEAM_J0@Z
	??R?$FixedInt@$00@internal@Eigen@@QEBA?AV012@XZ
	??R?$_Func_class@X$$V@std@@QEBAXXZ
	??R?$_Func_class@XH@std@@QEBAXH@Z
	??R?$_Func_class@XM@std@@QEBAXM@Z
	??R?$default_delete@UGuiImpl@tucanow@@@std@@QEBAXPEAUGuiImpl@tucanow@@@Z
	??R?$default_delete@USceneImpl@tucanow@@@std@@QEBAXPEAUSceneImpl@tucanow@@@Z
	??R?$default_delete@V_Facet_base@std@@@std@@QEBAXPEAV_Facet_base@1@@Z
	??R?$not_equal_to@M@std@@QEBA_NAEBM0@Z
	??R?$scalar_abs2_op@M@internal@Eigen@@QEBA?BMAEBM@Z
	??R?$scalar_conj_product_op@MM@internal@Eigen@@QEBA?BMAEBM0@Z
	??R?$scalar_constant_op@H@internal@Eigen@@QEBA?BHXZ
	??R?$scalar_constant_op@M@internal@Eigen@@QEBA?BMXZ
	??R?$scalar_difference_op@MM@internal@Eigen@@QEBA?BMAEBM0@Z
	??R?$scalar_opposite_op@M@internal@Eigen@@QEBA?BMAEBM@Z
	??R?$scalar_product_op@MM@internal@Eigen@@QEBA?BMAEBM0@Z
	??R?$scalar_quotient_op@MM@internal@Eigen@@QEBA?BMAEBM0@Z
	??R?$scalar_sum_op@MM@internal@Eigen@@QEBA?BMAEBM0@Z
	??X?$DenseBase@V?$Block@V?$Matrix@M$03$03$0A@$03$03@Eigen@@$02$02$0A@@Eigen@@@Eigen@@QEAAAEAV?$Block@V?$Matrix@M$03$03$0A@$03$03@Eigen@@$02$02$0A@@1@AEBM@Z
	??Y?$basic_string@DU?$char_traits@D@std@@V?$allocator@D@2@@std@@QEAAAEAV01@AEBV01@@Z
	??Y?$basic_string@DU?$char_traits@D@std@@V?$allocator@D@2@@std@@QEAAAEAV01@D@Z
	??Y?$basic_string@DU?$char_traits@D@std@@V?$allocator@D@2@@std@@QEAAAEAV01@QEBD@Z
	??_0?$DenseBase@V?$Matrix@M$02$00$0A@$02$00@Eigen@@@Eigen@@QEAAAEAV?$Matrix@M$02$00$0A@$02$00@1@AEBM@Z
	??_0?$DenseBase@V?$Matrix@M$03$00$0A@$03$00@Eigen@@@Eigen@@QEAAAEAV?$Matrix@M$03$00$0A@$03$00@1@AEBM@Z
	??_D?$basic_ifstream@DU?$char_traits@D@std@@@std@@QEAAXXZ
	??__F_instance@?1??Instance@TextureManager@Tucano@@SAAEAV12@XZ@YAXXZ
	?Constant@?$DenseBase@V?$Block@V?$Matrix@M$03$03$0A@$03$03@Eigen@@$00$02$0A@@Eigen@@@Eigen@@SA?BV?$CwiseNullaryOp@U?$scalar_constant_op@M@internal@Eigen@@V?$Matrix@M$00$02$00$00$02@3@@2@_J0AEBM@Z
	?Constant@?$DenseBase@V?$Matrix@H$01$00$0A@$01$00@Eigen@@@Eigen@@SA?BV?$CwiseNullaryOp@U?$scalar_constant_op@H@internal@Eigen@@V?$Matrix@H$01$00$0A@$01$00@3@@2@AEBH@Z
	?Constant@?$DenseBase@V?$Matrix@M$02$00$0A@$02$00@Eigen@@@Eigen@@SA?BV?$CwiseNullaryOp@U?$scalar_constant_op@M@internal@Eigen@@V?$Matrix@M$02$00$0A@$02$00@3@@2@AEBM@Z
	?Constant@?$DenseBase@V?$Matrix@M$02$00$0A@$02$00@Eigen@@@Eigen@@SA?BV?$CwiseNullaryOp@U?$scalar_constant_op@M@internal@Eigen@@V?$Matrix@M$02$00$0A@$02$00@3@@2@_J0AEBM@Z
	?Constant@?$DenseBase@V?$Matrix@M$02$02$0A@$02$02@Eigen@@@Eigen@@SA?BV?$CwiseNullaryOp@U?$scalar_constant_op@M@internal@Eigen@@V?$Matrix@M$02$02$0A@$02$02@3@@2@_J0AEBM@Z
	?Constant@?$DenseBase@V?$Matrix@M$03$00$0A@$03$00@Eigen@@@Eigen@@SA?BV?$CwiseNullaryOp@U?$scalar_constant_op@M@internal@Eigen@@V?$Matrix@M$03$00$0A@$03$00@3@@2@AEBM@Z
	?Constant@?$DenseBase@V?$Matrix@M$03$00$0A@$03$00@Eigen@@@Eigen@@SA?BV?$CwiseNullaryOp@U?$scalar_constant_op@M@internal@Eigen@@V?$Matrix@M$03$00$0A@$03$00@3@@2@_J0AEBM@Z
	?Constant@?$DenseBase@V?$Matrix@M$03$03$0A@$03$03@Eigen@@@Eigen@@SA?BV?$CwiseNullaryOp@U?$scalar_constant_op@M@internal@Eigen@@V?$Matrix@M$03$03$0A@$03$03@3@@2@AEBM@Z
	?Identity@?$MatrixBase@V?$Matrix@M$02$02$0A@$02$02@Eigen@@@Eigen@@SA?BV?$CwiseNullaryOp@U?$scalar_identity_op@M@internal@Eigen@@V?$Matrix@M$02$02$0A@$02$02@3@@2@XZ
	?Identity@?$MatrixBase@V?$Matrix@M$03$03$0A@$03$03@Eigen@@@Eigen@@SA?BV?$CwiseNullaryOp@U?$scalar_identity_op@M@internal@Eigen@@V?$Matrix@M$03$03$0A@$03$03@3@@2@XZ
	?Identity@?$QuaternionBase@V?$Quaternion@M$0A@@Eigen@@@Eigen@@SA?AV?$Quaternion@M$0A@@2@XZ
	?Identity@?$Transform@M$02$01$0A@@Eigen@@SA?BV12@XZ
	?Instance@TextureManager@Tucano@@SAAEAV12@XZ
	?Unit@?$MatrixBase@V?$Matrix@M$02$00$0A@$02$00@Eigen@@@Eigen@@SA?BV?$Block@$$CBV?$CwiseNullaryOp@U?$scalar_identity_op@M@internal@Eigen@@V?$Matrix@M$02$02$0A@$02$02@3@@Eigen@@$02$00$0A@@2@_J@Z
	?UnitX@?$MatrixBase@V?$Matrix@M$02$00$0A@$02$00@Eigen@@@Eigen@@SA?BV?$Block@$$CBV?$CwiseNullaryOp@U?$scalar_identity_op@M@internal@Eigen@@V?$Matrix@M$02$02$0A@$02$02@3@@Eigen@@$02$00$0A@@2@XZ
	?UnitY@?$MatrixBase@V?$Matrix@M$02$00$0A@$02$00@Eigen@@@Eigen@@SA?BV?$Block@$$CBV?$CwiseNullaryOp@U?$scalar_identity_op@M@internal@Eigen@@V?$Matrix@M$02$02$0A@$02$02@3@@Eigen@@$02$00$0A@@2@XZ
	?Zero@?$DenseBase@V?$Matrix@H$01$00$0A@$01$00@Eigen@@@Eigen@@SA?BV?$CwiseNullaryOp@U?$scalar_constant_op@H@internal@Eigen@@V?$Matrix@H$01$00$0A@$01$00@3@@2@XZ
	?Zero@?$DenseBase@V?$Matrix@M$02$00$0A@$02$00@Eigen@@@Eigen@@SA?BV?$CwiseNullaryOp@U?$scalar_constant_op@M@internal@Eigen@@V?$Matrix@M$02$00$0A@$02$00@3@@2@XZ
	?Zero@?$DenseBase@V?$Matrix@M$03$00$0A@$03$00@Eigen@@@Eigen@@SA?BV?$CwiseNullaryOp@U?$scalar_constant_op@M@internal@Eigen@@V?$Matrix@M$03$00$0A@$03$00@3@@2@XZ
	?Zero@?$DenseBase@V?$Matrix@M$03$03$0A@$03$03@Eigen@@@Eigen@@SA?BV?$CwiseNullaryOp@U?$scalar_constant_op@M@internal@Eigen@@V?$Matrix@M$03$03$0A@$03$03@3@@2@XZ
	?_Adjust_manually_vector_aligned@std@@YAXAEAPEAXAEA_K@Z
	?_Adopt@_Iterator_base12@std@@QEAAXPEBU_Container_base12@2@@Z
	?_Alloc_proxy@?$_String_alloc@U?$_String_base_types@DV?$allocator@D@std@@@std@@@std@@QEAAXXZ
	?_Alloc_proxy@?$_Vector_alloc@U?$_Vec_base_types@HV?$allocator@H@std@@@std@@@std@@QEAAXXZ
	?_Alloc_proxy@?$_Vector_alloc@U?$_Vec_base_types@IV?$allocator@I@std@@@std@@@std@@QEAAXXZ
	?_Alloc_proxy@?$_Vector_alloc@U?$_Vec_base_types@MV?$allocator@M@std@@@std@@@std@@QEAAXXZ
	?_Alloc_proxy@?$_Vector_alloc@U?$_Vec_base_types@PEAVElement@GUI@Tucano@@V?$allocator@PEAVElement@GUI@Tucano@@@std@@@std@@@std@@QEAAXXZ
	?_Alloc_proxy@?$_Vector_alloc@U?$_Vec_base_types@PEAVShader@Tucano@@V?$allocator@PEAVShader@Tucano@@@std@@@std@@@std@@QEAAXXZ
	?_Alloc_proxy@?$_Vector_alloc@U?$_Vec_base_types@V?$Matrix@M$01$00$0A@$01$00@Eigen@@V?$allocator@V?$Matrix@M$01$00$0A@$01$00@Eigen@@@std@@@std@@@std@@QEAAXXZ
	?_Alloc_proxy@?$_Vector_alloc@U?$_Vec_base_types@V?$Matrix@M$02$00$0A@$02$00@Eigen@@V?$allocator@V?$Matrix@M$02$00$0A@$02$00@Eigen@@@std@@@std@@@std@@QEAAXXZ
	?_Alloc_proxy@?$_Vector_alloc@U?$_Vec_base_types@V?$Matrix@M$03$00$0A@$03$00@Eigen@@V?$allocator@V?$Matrix@M$03$00$0A@$03$00@Eigen@@@std@@@std@@@std@@QEAAXXZ
	?_Alloc_proxy@?$_Vector_alloc@U?$_Vec_base_types@VVertexAttribute@Tucano@@V?$allocator@VVertexAttribute@Tucano@@@std@@@std@@@std@@QEAAXXZ
	?_Allocate@_Default_allocate_traits@std@@SAPEAX_K@Z
	?_Assign_rv_contents@?$basic_string@DU?$char_traits@D@std@@V?$allocator@D@2@@std@@QEAAX$$QEAV12@U?$integral_constant@_N$00@2@@Z
	?_Assign_rv_contents_with_alloc_always_equal@?$basic_string@DU?$char_traits@D@std@@V?$allocator@D@2@@std@@QEAAX$$QEAV12@U?$integral_constant@_N$00@2@@Z
	?_Become_small@?$basic_string@DU?$char_traits@D@std@@V?$allocator@D@2@@std@@QEAAXXZ
	?_Buy@?$vector@IV?$allocator@I@std@@@std@@AEAA_N_K@Z
	?_Buy@?$vector@MV?$allocator@M@std@@@std@@AEAA_N_K@Z
	?_Buy@?$vector@V?$Matrix@M$02$00$0A@$02$00@Eigen@@V?$allocator@V?$Matrix@M$02$00$0A@$02$00@Eigen@@@std@@@std@@AEAA_N_K@Z
	?_Buy@?$vector@V?$Matrix@M$03$00$0A@$03$00@Eigen@@V?$allocator@V?$Matrix@M$03$00$0A@$03$00@Eigen@@@std@@@std@@AEAA_N_K@Z
	?_Buy@?$vector@VVertexAttribute@Tucano@@V?$allocator@VVertexAttribute@Tucano@@@std@@@std@@AEAA_N_K@Z
	?_Calculate_growth@?$basic_string@DU?$char_traits@D@std@@V?$allocator@D@2@@std@@QEBA_K_K@Z
	?_Calculate_growth@?$vector@HV?$allocator@H@std@@@std@@AEBA_K_K@Z
	?_Calculate_growth@?$vector@IV?$allocator@I@std@@@std@@AEBA_K_K@Z
	?_Calculate_growth@?$vector@MV?$allocator@M@std@@@std@@AEBA_K_K@Z
	?_Calculate_growth@?$vector@PEAVElement@GUI@Tucano@@V?$allocator@PEAVElement@GUI@Tucano@@@std@@@std@@AEBA_K_K@Z
	?_Calculate_growth@?$vector@PEAVShader@Tucano@@V?$allocator@PEAVShader@Tucano@@@std@@@std@@AEBA_K_K@Z
	?_Calculate_growth@?$vector@V?$Matrix@M$01$00$0A@$01$00@Eigen@@V?$allocator@V?$Matrix@M$01$00$0A@$01$00@Eigen@@@std@@@std@@AEBA_K_K@Z
	?_Calculate_growth@?$vector@V?$Matrix@M$02$00$0A@$02$00@Eigen@@V?$allocator@V?$Matrix@M$02$00$0A@$02$00@Eigen@@@std@@@std@@AEBA_K_K@Z
	?_Calculate_growth@?$vector@V?$Matrix@M$03$00$0A@$03$00@Eigen@@V?$allocator@V?$Matrix@M$03$00$0A@$03$00@Eigen@@@std@@@std@@AEBA_K_K@Z
	?_Calculate_growth@?$vector@VVertexAttribute@Tucano@@V?$allocator@VVertexAttribute@Tucano@@@std@@@std@@AEBA_K_K@Z
	?_Change_array@?$vector@HV?$allocator@H@std@@@std@@AEAAXQEAH_K1@Z
	?_Change_array@?$vector@IV?$allocator@I@std@@@std@@AEAAXQEAI_K1@Z
	?_Change_array@?$vector@MV?$allocator@M@std@@@std@@AEAAXQEAM_K1@Z
	?_Change_array@?$vector@PEAVElement@GUI@Tucano@@V?$allocator@PEAVElement@GUI@Tucano@@@std@@@std@@AEAAXQEAPEAVElement@GUI@Tucano@@_K1@Z
	?_Change_array@?$vector@PEAVShader@Tucano@@V?$allocator@PEAVShader@Tucano@@@std@@@std@@AEAAXQEAPEAVShader@Tucano@@_K1@Z
	?_Change_array@?$vector@V?$Matrix@M$01$00$0A@$01$00@Eigen@@V?$allocator@V?$Matrix@M$01$00$0A@$01$00@Eigen@@@std@@@std@@AEAAXQEAV?$Matrix@M$01$00$0A@$01$00@Eigen@@_K1@Z
	?_Change_array@?$vector@V?$Matrix@M$02$00$0A@$02$00@Eigen@@V?$allocator@V?$Matrix@M$02$00$0A@$02$00@Eigen@@@std@@@std@@AEAAXQEAV?$Matrix@M$02$00$0A@$02$00@Eigen@@_K1@Z
	?_Change_array@?$vector@V?$Matrix@M$03$00$0A@$03$00@Eigen@@V?$allocator@V?$Matrix@M$03$00$0A@$03$00@Eigen@@@std@@@std@@AEAAXQEAV?$Matrix@M$03$00$0A@$03$00@Eigen@@_K1@Z
	?_Change_array@?$vector@VVertexAttribute@Tucano@@V?$allocator@VVertexAttribute@Tucano@@@std@@@std@@AEAAXQEAVVertexAttribute@Tucano@@_K1@Z
	?_Check_offset@?$_String_val@U?$_Simple_types@D@std@@@std@@QEBAX_K@Z
	?_Clamp_suffix_size@?$_String_val@U?$_Simple_types@D@std@@@std@@QEBA_K_K0@Z
	?_Clrcont@_Iterator_base12@std@@QEAAXXZ
	?_Construct_lv_contents@?$basic_string@DU?$char_traits@D@std@@V?$allocator@D@2@@std@@QEAAXAEBV12@@Z
	?_Copy_alloc@?$_String_alloc@U?$_String_base_types@DV?$allocator@D@std@@@std@@@std@@QEAAXAEBV?$allocator@D@2@@Z
	?_Copy_alloc@?$_Vector_alloc@U?$_Vec_base_types@VVertexAttribute@Tucano@@V?$allocator@VVertexAttribute@Tucano@@@std@@@std@@@std@@QEAAXAEBV?$allocator@VVertexAttribute@Tucano@@@2@@Z
	?_Decref@?$_Ptr_base@I@std@@IEAAXXZ
	?_Decref@_Ref_count_base@std@@QEAAXXZ
	?_Decwref@_Ref_count_base@std@@QEAAXXZ
	?_Delete_this@?$_Ref_count_resource@PEAIV<lambda_0eb331034ec64f284d3276d5eb9bc498>@@@std@@EEAAXXZ
	?_Delete_this@?$_Ref_count_resource@PEAIV<lambda_1d192c76f25f01443164c3008efd2f7a>@@@std@@EEAAXXZ
	?_Delete_this@?$_Ref_count_resource@PEAIV<lambda_20810bc6c307e6c094ca4ad02a7e2c1b>@@@std@@EEAAXXZ
	?_Delete_this@?$_Ref_count_resource@PEAIV<lambda_297a8ab7031fb168e0f42b0ceacfb411>@@@std@@EEAAXXZ
	?_Delete_this@?$_Ref_count_resource@PEAIV<lambda_3a3d10b6c3efd1a8679460d8f1128bfe>@@@std@@EEAAXXZ
	?_Delete_this@?$_Ref_count_resource@PEAIV<lambda_42565b2b1ff40c7ec619f6b0eefb855d>@@@std@@EEAAXXZ
	?_Delete_this@?$_Ref_count_resource@PEAIV<lambda_59114e1161731b809247c9c49615e8bc>@@@std@@EEAAXXZ
	?_Delete_this@?$_Ref_count_resource@PEAIV<lambda_7817004a68f0dccb72be0e8c40851883>@@@std@@EEAAXXZ
	?_Delete_this@?$_Ref_count_resource@PEAIV<lambda_b660b692aa17cad6c64c8293c384ce89>@@@std@@EEAAXXZ
	?_Delete_this@?$_Ref_count_resource@PEAIV<lambda_ce9ec88a1648543eec0dbc746d8a6173>@@@std@@EEAAXXZ
	?_Delete_this@?$_Ref_count_resource@PEAIV<lambda_ef956bcedf99c3666c1c91f23b99b48b>@@@std@@EEAAXXZ
	?_Destroy@?$_Ref_count_resource@PEAIV<lambda_0eb331034ec64f284d3276d5eb9bc498>@@@std@@EEAAXXZ
	?_Destroy@?$_Ref_count_resource@PEAIV<lambda_1d192c76f25f01443164c3008efd2f7a>@@@std@@EEAAXXZ
	?_Destroy@?$_Ref_count_resource@PEAIV<lambda_20810bc6c307e6c094ca4ad02a7e2c1b>@@@std@@EEAAXXZ
	?_Destroy@?$_Ref_count_resource@PEAIV<lambda_297a8ab7031fb168e0f42b0ceacfb411>@@@std@@EEAAXXZ
	?_Destroy@?$_Ref_count_resource@PEAIV<lambda_3a3d10b6c3efd1a8679460d8f1128bfe>@@@std@@EEAAXXZ
	?_Destroy@?$_Ref_count_resource@PEAIV<lambda_42565b2b1ff40c7ec619f6b0eefb855d>@@@std@@EEAAXXZ
	?_Destroy@?$_Ref_count_resource@PEAIV<lambda_59114e1161731b809247c9c49615e8bc>@@@std@@EEAAXXZ
	?_Destroy@?$_Ref_count_resource@PEAIV<lambda_7817004a68f0dccb72be0e8c40851883>@@@std@@EEAAXXZ
	?_Destroy@?$_Ref_count_resource@PEAIV<lambda_b660b692aa17cad6c64c8293c384ce89>@@@std@@EEAAXXZ
	?_Destroy@?$_Ref_count_resource@PEAIV<lambda_ce9ec88a1648543eec0dbc746d8a6173>@@@std@@EEAAXXZ
	?_Destroy@?$_Ref_count_resource@PEAIV<lambda_ef956bcedf99c3666c1c91f23b99b48b>@@@std@@EEAAXXZ
	?_Destroy@?$vector@HV?$allocator@H@std@@@std@@AEAAXPEAH0@Z
	?_Destroy@?$vector@IV?$allocator@I@std@@@std@@AEAAXPEAI0@Z
	?_Destroy@?$vector@MV?$allocator@M@std@@@std@@AEAAXPEAM0@Z
	?_Destroy@?$vector@PEAVElement@GUI@Tucano@@V?$allocator@PEAVElement@GUI@Tucano@@@std@@@std@@AEAAXPEAPEAVElement@GUI@Tucano@@0@Z
	?_Destroy@?$vector@PEAVShader@Tucano@@V?$allocator@PEAVShader@Tucano@@@std@@@std@@AEAAXPEAPEAVShader@Tucano@@0@Z
	?_Destroy@?$vector@V?$Matrix@M$01$00$0A@$01$00@Eigen@@V?$allocator@V?$Matrix@M$01$00$0A@$01$00@Eigen@@@std@@@std@@AEAAXPEAV?$Matrix@M$01$00$0A@$01$00@Eigen@@0@Z
	?_Destroy@?$vector@V?$Matrix@M$02$00$0A@$02$00@Eigen@@V?$allocator@V?$Matrix@M$02$00$0A@$02$00@Eigen@@@std@@@std@@AEAAXPEAV?$Matrix@M$02$00$0A@$02$00@Eigen@@0@Z
	?_Destroy@?$vector@V?$Matrix@M$03$00$0A@$03$00@Eigen@@V?$allocator@V?$Matrix@M$03$00$0A@$03$00@Eigen@@@std@@@std@@AEAAXPEAV?$Matrix@M$03$00$0A@$03$00@Eigen@@0@Z
	?_Destroy@?$vector@VVertexAttribute@Tucano@@V?$allocator@VVertexAttribute@Tucano@@@std@@@std@@AEAAXPEAVVertexAttribute@Tucano@@0@Z
	?_Empty@?$_Func_class@X$$V@std@@IEBA_NXZ
	?_Empty@?$_Func_class@XH@std@@IEBA_NXZ
	?_Empty@?$_Func_class@XM@std@@IEBA_NXZ
	?_Endwrite@?$basic_filebuf@DU?$char_traits@D@std@@@std@@IEAA_NXZ
	?_Eos@?$basic_string@DU?$char_traits@D@std@@V?$allocator@D@2@@std@@QEAAX_K@Z
	?_Free_proxy@?$_String_alloc@U?$_String_base_types@DV?$allocator@D@std@@@std@@@std@@QEAAXXZ
	?_Free_proxy@?$_Vector_alloc@U?$_Vec_base_types@HV?$allocator@H@std@@@std@@@std@@QEAAXXZ
	?_Free_proxy@?$_Vector_alloc@U?$_Vec_base_types@IV?$allocator@I@std@@@std@@@std@@QEAAXXZ
	?_Free_proxy@?$_Vector_alloc@U?$_Vec_base_types@MV?$allocator@M@std@@@std@@@std@@QEAAXXZ
	?_Free_proxy@?$_Vector_alloc@U?$_Vec_base_types@PEAVElement@GUI@Tucano@@V?$allocator@PEAVElement@GUI@Tucano@@@std@@@std@@@std@@QEAAXXZ
	?_Free_proxy@?$_Vector_alloc@U?$_Vec_base_types@PEAVShader@Tucano@@V?$allocator@PEAVShader@Tucano@@@std@@@std@@@std@@QEAAXXZ
	?_Free_proxy@?$_Vector_alloc@U?$_Vec_base_types@V?$Matrix@M$01$00$0A@$01$00@Eigen@@V?$allocator@V?$Matrix@M$01$00$0A@$01$00@Eigen@@@std@@@std@@@std@@QEAAXXZ
	?_Free_proxy@?$_Vector_alloc@U?$_Vec_base_types@V?$Matrix@M$02$00$0A@$02$00@Eigen@@V?$allocator@V?$Matrix@M$02$00$0A@$02$00@Eigen@@@std@@@std@@@std@@QEAAXXZ
	?_Free_proxy@?$_Vector_alloc@U?$_Vec_base_types@V?$Matrix@M$03$00$0A@$03$00@Eigen@@V?$allocator@V?$Matrix@M$03$00$0A@$03$00@Eigen@@@std@@@std@@@std@@QEAAXXZ
	?_Free_proxy@?$_Vector_alloc@U?$_Vec_base_types@VVertexAttribute@Tucano@@V?$allocator@VVertexAttribute@Tucano@@@std@@@std@@@std@@QEAAXXZ
	?_Get_data@?$_String_alloc@U?$_String_base_types@DV?$allocator@D@std@@@std@@@std@@QEAAAEAV?$_String_val@U?$_Simple_types@D@std@@@2@XZ
	?_Get_data@?$_String_alloc@U?$_String_base_types@DV?$allocator@D@std@@@std@@@std@@QEBAAEBV?$_String_val@U?$_Simple_types@D@std@@@2@XZ
	?_Get_data@?$_Vector_alloc@U?$_Vec_base_types@HV?$allocator@H@std@@@std@@@std@@QEAAAEAV?$_Vector_val@U?$_Simple_types@H@std@@@2@XZ
	?_Get_data@?$_Vector_alloc@U?$_Vec_base_types@HV?$allocator@H@std@@@std@@@std@@QEBAAEBV?$_Vector_val@U?$_Simple_types@H@std@@@2@XZ
	?_Get_data@?$_Vector_alloc@U?$_Vec_base_types@IV?$allocator@I@std@@@std@@@std@@QEAAAEAV?$_Vector_val@U?$_Simple_types@I@std@@@2@XZ
	?_Get_data@?$_Vector_alloc@U?$_Vec_base_types@IV?$allocator@I@std@@@std@@@std@@QEBAAEBV?$_Vector_val@U?$_Simple_types@I@std@@@2@XZ
	?_Get_data@?$_Vector_alloc@U?$_Vec_base_types@MV?$allocator@M@std@@@std@@@std@@QEAAAEAV?$_Vector_val@U?$_Simple_types@M@std@@@2@XZ
	?_Get_data@?$_Vector_alloc@U?$_Vec_base_types@MV?$allocator@M@std@@@std@@@std@@QEBAAEBV?$_Vector_val@U?$_Simple_types@M@std@@@2@XZ
	?_Get_data@?$_Vector_alloc@U?$_Vec_base_types@PEAVElement@GUI@Tucano@@V?$allocator@PEAVElement@GUI@Tucano@@@std@@@std@@@std@@QEAAAEAV?$_Vector_val@U?$_Simple_types@PEAVElement@GUI@Tucano@@@std@@@2@XZ
	?_Get_data@?$_Vector_alloc@U?$_Vec_base_types@PEAVElement@GUI@Tucano@@V?$allocator@PEAVElement@GUI@Tucano@@@std@@@std@@@std@@QEBAAEBV?$_Vector_val@U?$_Simple_types@PEAVElement@GUI@Tucano@@@std@@@2@XZ
	?_Get_data@?$_Vector_alloc@U?$_Vec_base_types@PEAVSelectButton@GUI@Tucano@@V?$allocator@PEAVSelectButton@GUI@Tucano@@@std@@@std@@@std@@QEAAAEAV?$_Vector_val@U?$_Simple_types@PEAVSelectButton@GUI@Tucano@@@std@@@2@XZ
	?_Get_data@?$_Vector_alloc@U?$_Vec_base_types@PEAVSelectButton@GUI@Tucano@@V?$allocator@PEAVSelectButton@GUI@Tucano@@@std@@@std@@@std@@QEBAAEBV?$_Vector_val@U?$_Simple_types@PEAVSelectButton@GUI@Tucano@@@std@@@2@XZ
	?_Get_data@?$_Vector_alloc@U?$_Vec_base_types@PEAVShader@Tucano@@V?$allocator@PEAVShader@Tucano@@@std@@@std@@@std@@QEAAAEAV?$_Vector_val@U?$_Simple_types@PEAVShader@Tucano@@@std@@@2@XZ
	?_Get_data@?$_Vector_alloc@U?$_Vec_base_types@PEAVShader@Tucano@@V?$allocator@PEAVShader@Tucano@@@std@@@std@@@std@@QEBAAEBV?$_Vector_val@U?$_Simple_types@PEAVShader@Tucano@@@std@@@2@XZ
	?_Get_data@?$_Vector_alloc@U?$_Vec_base_types@V?$Matrix@M$01$00$0A@$01$00@Eigen@@V?$allocator@V?$Matrix@M$01$00$0A@$01$00@Eigen@@@std@@@std@@@std@@QEAAAEAV?$_Vector_val@U?$_Simple_types@V?$Matrix@M$01$00$0A@$01$00@Eigen@@@std@@@2@XZ
	?_Get_data@?$_Vector_alloc@U?$_Vec_base_types@V?$Matrix@M$01$00$0A@$01$00@Eigen@@V?$allocator@V?$Matrix@M$01$00$0A@$01$00@Eigen@@@std@@@std@@@std@@QEBAAEBV?$_Vector_val@U?$_Simple_types@V?$Matrix@M$01$00$0A@$01$00@Eigen@@@std@@@2@XZ
	?_Get_data@?$_Vector_alloc@U?$_Vec_base_types@V?$Matrix@M$02$00$0A@$02$00@Eigen@@V?$allocator@V?$Matrix@M$02$00$0A@$02$00@Eigen@@@std@@@std@@@std@@QEAAAEAV?$_Vector_val@U?$_Simple_types@V?$Matrix@M$02$00$0A@$02$00@Eigen@@@std@@@2@XZ
	?_Get_data@?$_Vector_alloc@U?$_Vec_base_types@V?$Matrix@M$02$00$0A@$02$00@Eigen@@V?$allocator@V?$Matrix@M$02$00$0A@$02$00@Eigen@@@std@@@std@@@std@@QEBAAEBV?$_Vector_val@U?$_Simple_types@V?$Matrix@M$02$00$0A@$02$00@Eigen@@@std@@@2@XZ
	?_Get_data@?$_Vector_alloc@U?$_Vec_base_types@V?$Matrix@M$03$00$0A@$03$00@Eigen@@V?$allocator@V?$Matrix@M$03$00$0A@$03$00@Eigen@@@std@@@std@@@std@@QEAAAEAV?$_Vector_val@U?$_Simple_types@V?$Matrix@M$03$00$0A@$03$00@Eigen@@@std@@@2@XZ
	?_Get_data@?$_Vector_alloc@U?$_Vec_base_types@V?$Matrix@M$03$00$0A@$03$00@Eigen@@V?$allocator@V?$Matrix@M$03$00$0A@$03$00@Eigen@@@std@@@std@@@std@@QEBAAEBV?$_Vector_val@U?$_Simple_types@V?$Matrix@M$03$00$0A@$03$00@Eigen@@@std@@@2@XZ
	?_Get_data@?$_Vector_alloc@U?$_Vec_base_types@VVertexAttribute@Tucano@@V?$allocator@VVertexAttribute@Tucano@@@std@@@std@@@std@@QEAAAEAV?$_Vector_val@U?$_Simple_types@VVertexAttribute@Tucano@@@std@@@2@XZ
	?_Get_data@?$_Vector_alloc@U?$_Vec_base_types@VVertexAttribute@Tucano@@V?$allocator@VVertexAttribute@Tucano@@@std@@@std@@@std@@QEBAAEBV?$_Vector_val@U?$_Simple_types@VVertexAttribute@Tucano@@@std@@@2@XZ
	?_Get_deleter@?$_Ref_count_resource@PEAIV<lambda_0eb331034ec64f284d3276d5eb9bc498>@@@std@@UEBAPEAXAEBVtype_info@@@Z
	?_Get_deleter@?$_Ref_count_resource@PEAIV<lambda_1d192c76f25f01443164c3008efd2f7a>@@@std@@UEBAPEAXAEBVtype_info@@@Z
	?_Get_deleter@?$_Ref_count_resource@PEAIV<lambda_20810bc6c307e6c094ca4ad02a7e2c1b>@@@std@@UEBAPEAXAEBVtype_info@@@Z
	?_Get_deleter@?$_Ref_count_resource@PEAIV<lambda_297a8ab7031fb168e0f42b0ceacfb411>@@@std@@UEBAPEAXAEBVtype_info@@@Z
	?_Get_deleter@?$_Ref_count_resource@PEAIV<lambda_3a3d10b6c3efd1a8679460d8f1128bfe>@@@std@@UEBAPEAXAEBVtype_info@@@Z
	?_Get_deleter@?$_Ref_count_resource@PEAIV<lambda_42565b2b1ff40c7ec619f6b0eefb855d>@@@std@@UEBAPEAXAEBVtype_info@@@Z
	?_Get_deleter@?$_Ref_count_resource@PEAIV<lambda_59114e1161731b809247c9c49615e8bc>@@@std@@UEBAPEAXAEBVtype_info@@@Z
	?_Get_deleter@?$_Ref_count_resource@PEAIV<lambda_7817004a68f0dccb72be0e8c40851883>@@@std@@UEBAPEAXAEBVtype_info@@@Z
	?_Get_deleter@?$_Ref_count_resource@PEAIV<lambda_b660b692aa17cad6c64c8293c384ce89>@@@std@@UEBAPEAXAEBVtype_info@@@Z
	?_Get_deleter@?$_Ref_count_resource@PEAIV<lambda_ce9ec88a1648543eec0dbc746d8a6173>@@@std@@UEBAPEAXAEBVtype_info@@@Z
	?_Get_deleter@?$_Ref_count_resource@PEAIV<lambda_ef956bcedf99c3666c1c91f23b99b48b>@@@std@@UEBAPEAXAEBVtype_info@@@Z
	?_Get_first@?$_Compressed_pair@U?$default_delete@UGuiImpl@tucanow@@@std@@PEAUGuiImpl@tucanow@@$00@std@@QEAAAEAU?$default_delete@UGuiImpl@tucanow@@@2@XZ
	?_Get_first@?$_Compressed_pair@U?$default_delete@USceneImpl@tucanow@@@std@@PEAUSceneImpl@tucanow@@$00@std@@QEAAAEAU?$default_delete@USceneImpl@tucanow@@@2@XZ
	?_Get_first@?$_Compressed_pair@U?$default_delete@V_Facet_base@std@@@std@@PEAV_Facet_base@2@$00@std@@QEAAAEAU?$default_delete@V_Facet_base@std@@@2@XZ
	?_Get_first@?$_Compressed_pair@V<lambda_0eb331034ec64f284d3276d5eb9bc498>@@PEAI$00@std@@QEAAAEAV<lambda_0eb331034ec64f284d3276d5eb9bc498>@@XZ
	?_Get_first@?$_Compressed_pair@V<lambda_0eb331034ec64f284d3276d5eb9bc498>@@PEAI$00@std@@QEBAAEBV<lambda_0eb331034ec64f284d3276d5eb9bc498>@@XZ
	?_Get_first@?$_Compressed_pair@V<lambda_1d192c76f25f01443164c3008efd2f7a>@@PEAI$00@std@@QEAAAEAV<lambda_1d192c76f25f01443164c3008efd2f7a>@@XZ
	?_Get_first@?$_Compressed_pair@V<lambda_1d192c76f25f01443164c3008efd2f7a>@@PEAI$00@std@@QEBAAEBV<lambda_1d192c76f25f01443164c3008efd2f7a>@@XZ
	?_Get_first@?$_Compressed_pair@V<lambda_20810bc6c307e6c094ca4ad02a7e2c1b>@@PEAI$00@std@@QEAAAEAV<lambda_20810bc6c307e6c094ca4ad02a7e2c1b>@@XZ
	?_Get_first@?$_Compressed_pair@V<lambda_20810bc6c307e6c094ca4ad02a7e2c1b>@@PEAI$00@std@@QEBAAEBV<lambda_20810bc6c307e6c094ca4ad02a7e2c1b>@@XZ
	?_Get_first@?$_Compressed_pair@V<lambda_297a8ab7031fb168e0f42b0ceacfb411>@@PEAI$00@std@@QEAAAEAV<lambda_297a8ab7031fb168e0f42b0ceacfb411>@@XZ
	?_Get_first@?$_Compressed_pair@V<lambda_297a8ab7031fb168e0f42b0ceacfb411>@@PEAI$00@std@@QEBAAEBV<lambda_297a8ab7031fb168e0f42b0ceacfb411>@@XZ
	?_Get_first@?$_Compressed_pair@V<lambda_3a3d10b6c3efd1a8679460d8f1128bfe>@@PEAI$00@std@@QEAAAEAV<lambda_3a3d10b6c3efd1a8679460d8f1128bfe>@@XZ
	?_Get_first@?$_Compressed_pair@V<lambda_3a3d10b6c3efd1a8679460d8f1128bfe>@@PEAI$00@std@@QEBAAEBV<lambda_3a3d10b6c3efd1a8679460d8f1128bfe>@@XZ
	?_Get_first@?$_Compressed_pair@V<lambda_42565b2b1ff40c7ec619f6b0eefb855d>@@PEAI$00@std@@QEAAAEAV<lambda_42565b2b1ff40c7ec619f6b0eefb855d>@@XZ
	?_Get_first@?$_Compressed_pair@V<lambda_42565b2b1ff40c7ec619f6b0eefb855d>@@PEAI$00@std@@QEBAAEBV<lambda_42565b2b1ff40c7ec619f6b0eefb855d>@@XZ
	?_Get_first@?$_Compressed_pair@V<lambda_59114e1161731b809247c9c49615e8bc>@@PEAI$00@std@@QEAAAEAV<lambda_59114e1161731b809247c9c49615e8bc>@@XZ
	?_Get_first@?$_Compressed_pair@V<lambda_59114e1161731b809247c9c49615e8bc>@@PEAI$00@std@@QEBAAEBV<lambda_59114e1161731b809247c9c49615e8bc>@@XZ
	?_Get_first@?$_Compressed_pair@V<lambda_7817004a68f0dccb72be0e8c40851883>@@PEAI$00@std@@QEAAAEAV<lambda_7817004a68f0dccb72be0e8c40851883>@@XZ
	?_Get_first@?$_Compressed_pair@V<lambda_7817004a68f0dccb72be0e8c40851883>@@PEAI$00@std@@QEBAAEBV<lambda_7817004a68f0dccb72be0e8c40851883>@@XZ
	?_Get_first@?$_Compressed_pair@V<lambda_b660b692aa17cad6c64c8293c384ce89>@@PEAI$00@std@@QEAAAEAV<lambda_b660b692aa17cad6c64c8293c384ce89>@@XZ
	?_Get_first@?$_Compressed_pair@V<lambda_b660b692aa17cad6c64c8293c384ce89>@@PEAI$00@std@@QEBAAEBV<lambda_b660b692aa17cad6c64c8293c384ce89>@@XZ
	?_Get_first@?$_Compressed_pair@V<lambda_ce9ec88a1648543eec0dbc746d8a6173>@@PEAI$00@std@@QEAAAEAV<lambda_ce9ec88a1648543eec0dbc746d8a6173>@@XZ
	?_Get_first@?$_Compressed_pair@V<lambda_ce9ec88a1648543eec0dbc746d8a6173>@@PEAI$00@std@@QEBAAEBV<lambda_ce9ec88a1648543eec0dbc746d8a6173>@@XZ
	?_Get_first@?$_Compressed_pair@V<lambda_ef956bcedf99c3666c1c91f23b99b48b>@@PEAI$00@std@@QEAAAEAV<lambda_ef956bcedf99c3666c1c91f23b99b48b>@@XZ
	?_Get_first@?$_Compressed_pair@V<lambda_ef956bcedf99c3666c1c91f23b99b48b>@@PEAI$00@std@@QEBAAEBV<lambda_ef956bcedf99c3666c1c91f23b99b48b>@@XZ
	?_Get_first@?$_Compressed_pair@V?$allocator@D@std@@V?$_String_val@U?$_Simple_types@D@std@@@2@$00@std@@QEAAAEAV?$allocator@D@2@XZ
	?_Get_first@?$_Compressed_pair@V?$allocator@D@std@@V?$_String_val@U?$_Simple_types@D@std@@@2@$00@std@@QEBAAEBV?$allocator@D@2@XZ
	?_Get_first@?$_Compressed_pair@V?$allocator@H@std@@V?$_Vector_val@U?$_Simple_types@H@std@@@2@$00@std@@QEAAAEAV?$allocator@H@2@XZ
	?_Get_first@?$_Compressed_pair@V?$allocator@H@std@@V?$_Vector_val@U?$_Simple_types@H@std@@@2@$00@std@@QEBAAEBV?$allocator@H@2@XZ
	?_Get_first@?$_Compressed_pair@V?$allocator@I@std@@V?$_Vector_val@U?$_Simple_types@I@std@@@2@$00@std@@QEAAAEAV?$allocator@I@2@XZ
	?_Get_first@?$_Compressed_pair@V?$allocator@I@std@@V?$_Vector_val@U?$_Simple_types@I@std@@@2@$00@std@@QEBAAEBV?$allocator@I@2@XZ
	?_Get_first@?$_Compressed_pair@V?$allocator@M@std@@V?$_Vector_val@U?$_Simple_types@M@std@@@2@$00@std@@QEAAAEAV?$allocator@M@2@XZ
	?_Get_first@?$_Compressed_pair@V?$allocator@M@std@@V?$_Vector_val@U?$_Simple_types@M@std@@@2@$00@std@@QEBAAEBV?$allocator@M@2@XZ
	?_Get_first@?$_Compressed_pair@V?$allocator@PEAVElement@GUI@Tucano@@@std@@V?$_Vector_val@U?$_Simple_types@PEAVElement@GUI@Tucano@@@std@@@2@$00@std@@QEAAAEAV?$allocator@PEAVElement@GUI@Tucano@@@2@XZ
	?_Get_first@?$_Compressed_pair@V?$allocator@PEAVElement@GUI@Tucano@@@std@@V?$_Vector_val@U?$_Simple_types@PEAVElement@GUI@Tucano@@@std@@@2@$00@std@@QEBAAEBV?$allocator@PEAVElement@GUI@Tucano@@@2@XZ
	?_Get_first@?$_Compressed_pair@V?$allocator@PEAVShader@Tucano@@@std@@V?$_Vector_val@U?$_Simple_types@PEAVShader@Tucano@@@std@@@2@$00@std@@QEAAAEAV?$allocator@PEAVShader@Tucano@@@2@XZ
	?_Get_first@?$_Compressed_pair@V?$allocator@PEAVShader@Tucano@@@std@@V?$_Vector_val@U?$_Simple_types@PEAVShader@Tucano@@@std@@@2@$00@std@@QEBAAEBV?$allocator@PEAVShader@Tucano@@@2@XZ
	?_Get_first@?$_Compressed_pair@V?$allocator@V?$Matrix@M$01$00$0A@$01$00@Eigen@@@std@@V?$_Vector_val@U?$_Simple_types@V?$Matrix@M$01$00$0A@$01$00@Eigen@@@std@@@2@$00@std@@QEAAAEAV?$allocator@V?$Matrix@M$01$00$0A@$01$00@Eigen@@@2@XZ
	?_Get_first@?$_Compressed_pair@V?$allocator@V?$Matrix@M$01$00$0A@$01$00@Eigen@@@std@@V?$_Vector_val@U?$_Simple_types@V?$Matrix@M$01$00$0A@$01$00@Eigen@@@std@@@2@$00@std@@QEBAAEBV?$allocator@V?$Matrix@M$01$00$0A@$01$00@Eigen@@@2@XZ
	?_Get_first@?$_Compressed_pair@V?$allocator@V?$Matrix@M$02$00$0A@$02$00@Eigen@@@std@@V?$_Vector_val@U?$_Simple_types@V?$Matrix@M$02$00$0A@$02$00@Eigen@@@std@@@2@$00@std@@QEAAAEAV?$allocator@V?$Matrix@M$02$00$0A@$02$00@Eigen@@@2@XZ
	?_Get_first@?$_Compressed_pair@V?$allocator@V?$Matrix@M$02$00$0A@$02$00@Eigen@@@std@@V?$_Vector_val@U?$_Simple_types@V?$Matrix@M$02$00$0A@$02$00@Eigen@@@std@@@2@$00@std@@QEBAAEBV?$allocator@V?$Matrix@M$02$00$0A@$02$00@Eigen@@@2@XZ
	?_Get_first@?$_Compressed_pair@V?$allocator@V?$Matrix@M$03$00$0A@$03$00@Eigen@@@std@@V?$_Vector_val@U?$_Simple_types@V?$Matrix@M$03$00$0A@$03$00@Eigen@@@std@@@2@$00@std@@QEAAAEAV?$allocator@V?$Matrix@M$03$00$0A@$03$00@Eigen@@@2@XZ
	?_Get_first@?$_Compressed_pair@V?$allocator@V?$Matrix@M$03$00$0A@$03$00@Eigen@@@std@@V?$_Vector_val@U?$_Simple_types@V?$Matrix@M$03$00$0A@$03$00@Eigen@@@std@@@2@$00@std@@QEBAAEBV?$allocator@V?$Matrix@M$03$00$0A@$03$00@Eigen@@@2@XZ
	?_Get_first@?$_Compressed_pair@V?$allocator@VVertexAttribute@Tucano@@@std@@V?$_Vector_val@U?$_Simple_types@VVertexAttribute@Tucano@@@std@@@2@$00@std@@QEAAAEAV?$allocator@VVertexAttribute@Tucano@@@2@XZ
	?_Get_first@?$_Compressed_pair@V?$allocator@VVertexAttribute@Tucano@@@std@@V?$_Vector_val@U?$_Simple_types@VVertexAttribute@Tucano@@@std@@@2@$00@std@@QEBAAEBV?$allocator@VVertexAttribute@Tucano@@@2@XZ
	?_Get_second@?$_Compressed_pair@U?$default_delete@UGuiImpl@tucanow@@@std@@PEAUGuiImpl@tucanow@@$00@std@@QEBAAEBQEAUGuiImpl@tucanow@@XZ
	?_Get_second@?$_Compressed_pair@U?$default_delete@USceneImpl@tucanow@@@std@@PEAUSceneImpl@tucanow@@$00@std@@QEAAAEAPEAUSceneImpl@tucanow@@XZ
	?_Get_second@?$_Compressed_pair@U?$default_delete@USceneImpl@tucanow@@@std@@PEAUSceneImpl@tucanow@@$00@std@@QEBAAEBQEAUSceneImpl@tucanow@@XZ
	?_Get_second@?$_Compressed_pair@U?$default_delete@V_Facet_base@std@@@std@@PEAV_Facet_base@2@$00@std@@QEAAAEAPEAV_Facet_base@2@XZ
	?_Get_second@?$_Compressed_pair@U?$default_delete@V_Facet_base@std@@@std@@PEAV_Facet_base@2@$00@std@@QEBAAEBQEAV_Facet_base@2@XZ
	?_Get_second@?$_Compressed_pair@V<lambda_0eb331034ec64f284d3276d5eb9bc498>@@PEAI$00@std@@QEAAAEAPEAIXZ
	?_Get_second@?$_Compressed_pair@V<lambda_1d192c76f25f01443164c3008efd2f7a>@@PEAI$00@std@@QEAAAEAPEAIXZ
	?_Get_second@?$_Compressed_pair@V<lambda_20810bc6c307e6c094ca4ad02a7e2c1b>@@PEAI$00@std@@QEAAAEAPEAIXZ
	?_Get_second@?$_Compressed_pair@V<lambda_297a8ab7031fb168e0f42b0ceacfb411>@@PEAI$00@std@@QEAAAEAPEAIXZ
	?_Get_second@?$_Compressed_pair@V<lambda_3a3d10b6c3efd1a8679460d8f1128bfe>@@PEAI$00@std@@QEAAAEAPEAIXZ
	?_Get_second@?$_Compressed_pair@V<lambda_42565b2b1ff40c7ec619f6b0eefb855d>@@PEAI$00@std@@QEAAAEAPEAIXZ
	?_Get_second@?$_Compressed_pair@V<lambda_59114e1161731b809247c9c49615e8bc>@@PEAI$00@std@@QEAAAEAPEAIXZ
	?_Get_second@?$_Compressed_pair@V<lambda_7817004a68f0dccb72be0e8c40851883>@@PEAI$00@std@@QEAAAEAPEAIXZ
	?_Get_second@?$_Compressed_pair@V<lambda_b660b692aa17cad6c64c8293c384ce89>@@PEAI$00@std@@QEAAAEAPEAIXZ
	?_Get_second@?$_Compressed_pair@V<lambda_ce9ec88a1648543eec0dbc746d8a6173>@@PEAI$00@std@@QEAAAEAPEAIXZ
	?_Get_second@?$_Compressed_pair@V<lambda_ef956bcedf99c3666c1c91f23b99b48b>@@PEAI$00@std@@QEAAAEAPEAIXZ
	?_Get_second@?$_Compressed_pair@V?$allocator@D@std@@V?$_String_val@U?$_Simple_types@D@std@@@2@$00@std@@QEAAAEAV?$_String_val@U?$_Simple_types@D@std@@@2@XZ
	?_Get_second@?$_Compressed_pair@V?$allocator@D@std@@V?$_String_val@U?$_Simple_types@D@std@@@2@$00@std@@QEBAAEBV?$_String_val@U?$_Simple_types@D@std@@@2@XZ
	?_Get_second@?$_Compressed_pair@V?$allocator@H@std@@V?$_Vector_val@U?$_Simple_types@H@std@@@2@$00@std@@QEAAAEAV?$_Vector_val@U?$_Simple_types@H@std@@@2@XZ
	?_Get_second@?$_Compressed_pair@V?$allocator@H@std@@V?$_Vector_val@U?$_Simple_types@H@std@@@2@$00@std@@QEBAAEBV?$_Vector_val@U?$_Simple_types@H@std@@@2@XZ
	?_Get_second@?$_Compressed_pair@V?$allocator@I@std@@V?$_Vector_val@U?$_Simple_types@I@std@@@2@$00@std@@QEAAAEAV?$_Vector_val@U?$_Simple_types@I@std@@@2@XZ
	?_Get_second@?$_Compressed_pair@V?$allocator@I@std@@V?$_Vector_val@U?$_Simple_types@I@std@@@2@$00@std@@QEBAAEBV?$_Vector_val@U?$_Simple_types@I@std@@@2@XZ
	?_Get_second@?$_Compressed_pair@V?$allocator@M@std@@V?$_Vector_val@U?$_Simple_types@M@std@@@2@$00@std@@QEAAAEAV?$_Vector_val@U?$_Simple_types@M@std@@@2@XZ
	?_Get_second@?$_Compressed_pair@V?$allocator@M@std@@V?$_Vector_val@U?$_Simple_types@M@std@@@2@$00@std@@QEBAAEBV?$_Vector_val@U?$_Simple_types@M@std@@@2@XZ
	?_Get_second@?$_Compressed_pair@V?$allocator@PEAVElement@GUI@Tucano@@@std@@V?$_Vector_val@U?$_Simple_types@PEAVElement@GUI@Tucano@@@std@@@2@$00@std@@QEAAAEAV?$_Vector_val@U?$_Simple_types@PEAVElement@GUI@Tucano@@@std@@@2@XZ
	?_Get_second@?$_Compressed_pair@V?$allocator@PEAVElement@GUI@Tucano@@@std@@V?$_Vector_val@U?$_Simple_types@PEAVElement@GUI@Tucano@@@std@@@2@$00@std@@QEBAAEBV?$_Vector_val@U?$_Simple_types@PEAVElement@GUI@Tucano@@@std@@@2@XZ
	?_Get_second@?$_Compressed_pair@V?$allocator@PEAVSelectButton@GUI@Tucano@@@std@@V?$_Vector_val@U?$_Simple_types@PEAVSelectButton@GUI@Tucano@@@std@@@2@$00@std@@QEAAAEAV?$_Vector_val@U?$_Simple_types@PEAVSelectButton@GUI@Tucano@@@std@@@2@XZ
	?_Get_second@?$_Compressed_pair@V?$allocator@PEAVSelectButton@GUI@Tucano@@@std@@V?$_Vector_val@U?$_Simple_types@PEAVSelectButton@GUI@Tucano@@@std@@@2@$00@std@@QEBAAEBV?$_Vector_val@U?$_Simple_types@PEAVSelectButton@GUI@Tucano@@@std@@@2@XZ
	?_Get_second@?$_Compressed_pair@V?$allocator@PEAVShader@Tucano@@@std@@V?$_Vector_val@U?$_Simple_types@PEAVShader@Tucano@@@std@@@2@$00@std@@QEAAAEAV?$_Vector_val@U?$_Simple_types@PEAVShader@Tucano@@@std@@@2@XZ
	?_Get_second@?$_Compressed_pair@V?$allocator@PEAVShader@Tucano@@@std@@V?$_Vector_val@U?$_Simple_types@PEAVShader@Tucano@@@std@@@2@$00@std@@QEBAAEBV?$_Vector_val@U?$_Simple_types@PEAVShader@Tucano@@@std@@@2@XZ
	?_Get_second@?$_Compressed_pair@V?$allocator@V?$Matrix@M$01$00$0A@$01$00@Eigen@@@std@@V?$_Vector_val@U?$_Simple_types@V?$Matrix@M$01$00$0A@$01$00@Eigen@@@std@@@2@$00@std@@QEAAAEAV?$_Vector_val@U?$_Simple_types@V?$Matrix@M$01$00$0A@$01$00@Eigen@@@std@@@2@XZ
	?_Get_second@?$_Compressed_pair@V?$allocator@V?$Matrix@M$01$00$0A@$01$00@Eigen@@@std@@V?$_Vector_val@U?$_Simple_types@V?$Matrix@M$01$00$0A@$01$00@Eigen@@@std@@@2@$00@std@@QEBAAEBV?$_Vector_val@U?$_Simple_types@V?$Matrix@M$01$00$0A@$01$00@Eigen@@@std@@@2@XZ
	?_Get_second@?$_Compressed_pair@V?$allocator@V?$Matrix@M$02$00$0A@$02$00@Eigen@@@std@@V?$_Vector_val@U?$_Simple_types@V?$Matrix@M$02$00$0A@$02$00@Eigen@@@std@@@2@$00@std@@QEAAAEAV?$_Vector_val@U?$_Simple_types@V?$Matrix@M$02$00$0A@$02$00@Eigen@@@std@@@2@XZ
	?_Get_second@?$_Compressed_pair@V?$allocator@V?$Matrix@M$02$00$0A@$02$00@Eigen@@@std@@V?$_Vector_val@U?$_Simple_types@V?$Matrix@M$02$00$0A@$02$00@Eigen@@@std@@@2@$00@std@@QEBAAEBV?$_Vector_val@U?$_Simple_types@V?$Matrix@M$02$00$0A@$02$00@Eigen@@@std@@@2@XZ
	?_Get_second@?$_Compressed_pair@V?$allocator@V?$Matrix@M$03$00$0A@$03$00@Eigen@@@std@@V?$_Vector_val@U?$_Simple_types@V?$Matrix@M$03$00$0A@$03$00@Eigen@@@std@@@2@$00@std@@QEAAAEAV?$_Vector_val@U?$_Simple_types@V?$Matrix@M$03$00$0A@$03$00@Eigen@@@std@@@2@XZ
	?_Get_second@?$_Compressed_pair@V?$allocator@V?$Matrix@M$03$00$0A@$03$00@Eigen@@@std@@V?$_Vector_val@U?$_Simple_types@V?$Matrix@M$03$00$0A@$03$00@Eigen@@@std@@@2@$00@std@@QEBAAEBV?$_Vector_val@U?$_Simple_types@V?$Matrix@M$03$00$0A@$03$00@Eigen@@@std@@@2@XZ
	?_Get_second@?$_Compressed_pair@V?$allocator@VVertexAttribute@Tucano@@@std@@V?$_Vector_val@U?$_Simple_types@VVertexAttribute@Tucano@@@std@@@2@$00@std@@QEAAAEAV?$_Vector_val@U?$_Simple_types@VVertexAttribute@Tucano@@@std@@@2@XZ
	?_Get_second@?$_Compressed_pair@V?$allocator@VVertexAttribute@Tucano@@@std@@V?$_Vector_val@U?$_Simple_types@VVertexAttribute@Tucano@@@std@@@2@$00@std@@QEBAAEBV?$_Vector_val@U?$_Simple_types@VVertexAttribute@Tucano@@@std@@@2@XZ
	?_Getal@?$_String_alloc@U?$_String_base_types@DV?$allocator@D@std@@@std@@@std@@QEAAAEAV?$allocator@D@2@XZ
	?_Getal@?$_String_alloc@U?$_String_base_types@DV?$allocator@D@std@@@std@@@std@@QEBAAEBV?$allocator@D@2@XZ
	?_Getal@?$_Vector_alloc@U?$_Vec_base_types@HV?$allocator@H@std@@@std@@@std@@QEAAAEAV?$allocator@H@2@XZ
	?_Getal@?$_Vector_alloc@U?$_Vec_base_types@HV?$allocator@H@std@@@std@@@std@@QEBAAEBV?$allocator@H@2@XZ
	?_Getal@?$_Vector_alloc@U?$_Vec_base_types@IV?$allocator@I@std@@@std@@@std@@QEAAAEAV?$allocator@I@2@XZ
	?_Getal@?$_Vector_alloc@U?$_Vec_base_types@IV?$allocator@I@std@@@std@@@std@@QEBAAEBV?$allocator@I@2@XZ
	?_Getal@?$_Vector_alloc@U?$_Vec_base_types@MV?$allocator@M@std@@@std@@@std@@QEAAAEAV?$allocator@M@2@XZ
	?_Getal@?$_Vector_alloc@U?$_Vec_base_types@MV?$allocator@M@std@@@std@@@std@@QEBAAEBV?$allocator@M@2@XZ
	?_Getal@?$_Vector_alloc@U?$_Vec_base_types@PEAVElement@GUI@Tucano@@V?$allocator@PEAVElement@GUI@Tucano@@@std@@@std@@@std@@QEAAAEAV?$allocator@PEAVElement@GUI@Tucano@@@2@XZ
	?_Getal@?$_Vector_alloc@U?$_Vec_base_types@PEAVElement@GUI@Tucano@@V?$allocator@PEAVElement@GUI@Tucano@@@std@@@std@@@std@@QEBAAEBV?$allocator@PEAVElement@GUI@Tucano@@@2@XZ
	?_Getal@?$_Vector_alloc@U?$_Vec_base_types@PEAVShader@Tucano@@V?$allocator@PEAVShader@Tucano@@@std@@@std@@@std@@QEAAAEAV?$allocator@PEAVShader@Tucano@@@2@XZ
	?_Getal@?$_Vector_alloc@U?$_Vec_base_types@PEAVShader@Tucano@@V?$allocator@PEAVShader@Tucano@@@std@@@std@@@std@@QEBAAEBV?$allocator@PEAVShader@Tucano@@@2@XZ
	?_Getal@?$_Vector_alloc@U?$_Vec_base_types@V?$Matrix@M$01$00$0A@$01$00@Eigen@@V?$allocator@V?$Matrix@M$01$00$0A@$01$00@Eigen@@@std@@@std@@@std@@QEAAAEAV?$allocator@V?$Matrix@M$01$00$0A@$01$00@Eigen@@@2@XZ
	?_Getal@?$_Vector_alloc@U?$_Vec_base_types@V?$Matrix@M$01$00$0A@$01$00@Eigen@@V?$allocator@V?$Matrix@M$01$00$0A@$01$00@Eigen@@@std@@@std@@@std@@QEBAAEBV?$allocator@V?$Matrix@M$01$00$0A@$01$00@Eigen@@@2@XZ
	?_Getal@?$_Vector_alloc@U?$_Vec_base_types@V?$Matrix@M$02$00$0A@$02$00@Eigen@@V?$allocator@V?$Matrix@M$02$00$0A@$02$00@Eigen@@@std@@@std@@@std@@QEAAAEAV?$allocator@V?$Matrix@M$02$00$0A@$02$00@Eigen@@@2@XZ
	?_Getal@?$_Vector_alloc@U?$_Vec_base_types@V?$Matrix@M$02$00$0A@$02$00@Eigen@@V?$allocator@V?$Matrix@M$02$00$0A@$02$00@Eigen@@@std@@@std@@@std@@QEBAAEBV?$allocator@V?$Matrix@M$02$00$0A@$02$00@Eigen@@@2@XZ
	?_Getal@?$_Vector_alloc@U?$_Vec_base_types@V?$Matrix@M$03$00$0A@$03$00@Eigen@@V?$allocator@V?$Matrix@M$03$00$0A@$03$00@Eigen@@@std@@@std@@@std@@QEAAAEAV?$allocator@V?$Matrix@M$03$00$0A@$03$00@Eigen@@@2@XZ
	?_Getal@?$_Vector_alloc@U?$_Vec_base_types@V?$Matrix@M$03$00$0A@$03$00@Eigen@@V?$allocator@V?$Matrix@M$03$00$0A@$03$00@Eigen@@@std@@@std@@@std@@QEBAAEBV?$allocator@V?$Matrix@M$03$00$0A@$03$00@Eigen@@@2@XZ
	?_Getal@?$_Vector_alloc@U?$_Vec_base_types@VVertexAttribute@Tucano@@V?$allocator@VVertexAttribute@Tucano@@@std@@@std@@@std@@QEAAAEAV?$allocator@VVertexAttribute@Tucano@@@2@XZ
	?_Getal@?$_Vector_alloc@U?$_Vec_base_types@VVertexAttribute@Tucano@@V?$allocator@VVertexAttribute@Tucano@@@std@@@std@@@std@@QEBAAEBV?$allocator@VVertexAttribute@Tucano@@@2@XZ
	?_Getcont@_Iterator_base12@std@@QEBAPEBU_Container_base12@2@XZ
	?_Getfacet@locale@std@@QEBAPEBVfacet@12@_K@Z
	?_Getimpl@?$_Func_class@X$$V@std@@AEBAPEAV?$_Func_base@X$$V@2@XZ
	?_Getimpl@?$_Func_class@XH@std@@AEBAPEAV?$_Func_base@XH@2@XZ
	?_Getimpl@?$_Func_class@XM@std@@AEBAPEAV?$_Func_base@XM@2@XZ
	?_Getpfirst@?$_Vector_alloc@U?$_Vec_base_types@HV?$allocator@H@std@@@std@@@std@@QEBAPEAPEAU_Iterator_base12@2@XZ
	?_Getpfirst@?$_Vector_alloc@U?$_Vec_base_types@IV?$allocator@I@std@@@std@@@std@@QEBAPEAPEAU_Iterator_base12@2@XZ
	?_Getpfirst@?$_Vector_alloc@U?$_Vec_base_types@MV?$allocator@M@std@@@std@@@std@@QEBAPEAPEAU_Iterator_base12@2@XZ
	?_Getpfirst@?$_Vector_alloc@U?$_Vec_base_types@PEAVElement@GUI@Tucano@@V?$allocator@PEAVElement@GUI@Tucano@@@std@@@std@@@std@@QEBAPEAPEAU_Iterator_base12@2@XZ
	?_Getpfirst@?$_Vector_alloc@U?$_Vec_base_types@PEAVShader@Tucano@@V?$allocator@PEAVShader@Tucano@@@std@@@std@@@std@@QEBAPEAPEAU_Iterator_base12@2@XZ
	?_Getpfirst@?$_Vector_alloc@U?$_Vec_base_types@V?$Matrix@M$01$00$0A@$01$00@Eigen@@V?$allocator@V?$Matrix@M$01$00$0A@$01$00@Eigen@@@std@@@std@@@std@@QEBAPEAPEAU_Iterator_base12@2@XZ
	?_Getpfirst@?$_Vector_alloc@U?$_Vec_base_types@V?$Matrix@M$02$00$0A@$02$00@Eigen@@V?$allocator@V?$Matrix@M$02$00$0A@$02$00@Eigen@@@std@@@std@@@std@@QEBAPEAPEAU_Iterator_base12@2@XZ
	?_Getpfirst@?$_Vector_alloc@U?$_Vec_base_types@V?$Matrix@M$03$00$0A@$03$00@Eigen@@V?$allocator@V?$Matrix@M$03$00$0A@$03$00@Eigen@@@std@@@std@@@std@@QEBAPEAPEAU_Iterator_base12@2@XZ
	?_Getpfirst@?$_Vector_alloc@U?$_Vec_base_types@VVertexAttribute@Tucano@@V?$allocator@VVertexAttribute@Tucano@@@std@@@std@@@std@@QEBAPEAPEAU_Iterator_base12@2@XZ
	?_Getpfirst@_Container_base12@std@@QEBAPEAPEAU_Iterator_base12@2@XZ
	?_Getpnext@_Iterator_base12@std@@QEAAPEAPEAU12@XZ
	?_Getspace@?$_Func_class@X$$V@std@@AEAAPEAXXZ
	?_Getspace@?$_Func_class@X$$V@std@@AEBAPEBXXZ
	?_Getspace@?$_Func_class@XH@std@@AEAAPEAXXZ
	?_Getspace@?$_Func_class@XH@std@@AEBAPEBXXZ
	?_Getspace@?$_Func_class@XM@std@@AEAAPEAXXZ
	?_Getspace@?$_Func_class@XM@std@@AEBAPEBXXZ
	?_Has_unused_capacity@?$vector@HV?$allocator@H@std@@@std@@AEBA_NXZ
	?_Has_unused_capacity@?$vector@IV?$allocator@I@std@@@std@@AEBA_NXZ
	?_Has_unused_capacity@?$vector@MV?$allocator@M@std@@@std@@AEBA_NXZ
	?_Has_unused_capacity@?$vector@PEAVElement@GUI@Tucano@@V?$allocator@PEAVElement@GUI@Tucano@@@std@@@std@@AEBA_NXZ
	?_Has_unused_capacity@?$vector@PEAVShader@Tucano@@V?$allocator@PEAVShader@Tucano@@@std@@@std@@AEBA_NXZ
	?_Has_unused_capacity@?$vector@V?$Matrix@M$01$00$0A@$01$00@Eigen@@V?$allocator@V?$Matrix@M$01$00$0A@$01$00@Eigen@@@std@@@std@@AEBA_NXZ
	?_Has_unused_capacity@?$vector@V?$Matrix@M$02$00$0A@$02$00@Eigen@@V?$allocator@V?$Matrix@M$02$00$0A@$02$00@Eigen@@@std@@@std@@AEBA_NXZ
	?_Has_unused_capacity@?$vector@V?$Matrix@M$03$00$0A@$03$00@Eigen@@V?$allocator@V?$Matrix@M$03$00$0A@$03$00@Eigen@@@std@@@std@@AEBA_NXZ
	?_Has_unused_capacity@?$vector@VVertexAttribute@Tucano@@V?$allocator@VVertexAttribute@Tucano@@@std@@@std@@AEBA_NXZ
	?_Incref@_Ref_count_base@std@@QEAAXXZ
	?_Init@?$basic_filebuf@DU?$char_traits@D@std@@@std@@IEAAXPEAU_iobuf@@W4_Initfl@12@@Z
	?_Initcvt@?$basic_filebuf@DU?$char_traits@D@std@@@std@@IEAAXAEBV?$codecvt@DDU_Mbstatet@@@2@@Z
	?_Large_string_engaged@?$_String_val@U?$_Simple_types@D@std@@@std@@QEBA_NXZ
	?_Local@?$_Func_class@X$$V@std@@AEBA_NXZ
	?_Local@?$_Func_class@XH@std@@AEBA_NXZ
	?_Local@?$_Func_class@XM@std@@AEBA_NXZ
	?_Lock@?$basic_filebuf@DU?$char_traits@D@std@@@std@@UEAAXXZ
	?_Mark@?$_String_bitmap@D$00@std@@QEAA_NPEBDQEBD@Z
	?_Match@?$_String_bitmap@D$00@std@@QEBA_ND@Z
	?_Move_alloc@?$_String_alloc@U?$_String_base_types@DV?$allocator@D@std@@@std@@@std@@QEAAXAEAV?$allocator@D@2@@Z
	?_Myend@?$_Vector_alloc@U?$_Vec_base_types@HV?$allocator@H@std@@@std@@@std@@QEAAAEAPEAHXZ
	?_Myend@?$_Vector_alloc@U?$_Vec_base_types@HV?$allocator@H@std@@@std@@@std@@QEBAAEBQEAHXZ
	?_Myend@?$_Vector_alloc@U?$_Vec_base_types@IV?$allocator@I@std@@@std@@@std@@QEAAAEAPEAIXZ
	?_Myend@?$_Vector_alloc@U?$_Vec_base_types@IV?$allocator@I@std@@@std@@@std@@QEBAAEBQEAIXZ
	?_Myend@?$_Vector_alloc@U?$_Vec_base_types@MV?$allocator@M@std@@@std@@@std@@QEAAAEAPEAMXZ
	?_Myend@?$_Vector_alloc@U?$_Vec_base_types@MV?$allocator@M@std@@@std@@@std@@QEBAAEBQEAMXZ
	?_Myend@?$_Vector_alloc@U?$_Vec_base_types@PEAVElement@GUI@Tucano@@V?$allocator@PEAVElement@GUI@Tucano@@@std@@@std@@@std@@QEAAAEAPEAPEAVElement@GUI@Tucano@@XZ
	?_Myend@?$_Vector_alloc@U?$_Vec_base_types@PEAVElement@GUI@Tucano@@V?$allocator@PEAVElement@GUI@Tucano@@@std@@@std@@@std@@QEBAAEBQEAPEAVElement@GUI@Tucano@@XZ
	?_Myend@?$_Vector_alloc@U?$_Vec_base_types@PEAVShader@Tucano@@V?$allocator@PEAVShader@Tucano@@@std@@@std@@@std@@QEAAAEAPEAPEAVShader@Tucano@@XZ
	?_Myend@?$_Vector_alloc@U?$_Vec_base_types@PEAVShader@Tucano@@V?$allocator@PEAVShader@Tucano@@@std@@@std@@@std@@QEBAAEBQEAPEAVShader@Tucano@@XZ
	?_Myend@?$_Vector_alloc@U?$_Vec_base_types@V?$Matrix@M$01$00$0A@$01$00@Eigen@@V?$allocator@V?$Matrix@M$01$00$0A@$01$00@Eigen@@@std@@@std@@@std@@QEAAAEAPEAV?$Matrix@M$01$00$0A@$01$00@Eigen@@XZ
	?_Myend@?$_Vector_alloc@U?$_Vec_base_types@V?$Matrix@M$01$00$0A@$01$00@Eigen@@V?$allocator@V?$Matrix@M$01$00$0A@$01$00@Eigen@@@std@@@std@@@std@@QEBAAEBQEAV?$Matrix@M$01$00$0A@$01$00@Eigen@@XZ
	?_Myend@?$_Vector_alloc@U?$_Vec_base_types@V?$Matrix@M$02$00$0A@$02$00@Eigen@@V?$allocator@V?$Matrix@M$02$00$0A@$02$00@Eigen@@@std@@@std@@@std@@QEAAAEAPEAV?$Matrix@M$02$00$0A@$02$00@Eigen@@XZ
	?_Myend@?$_Vector_alloc@U?$_Vec_base_types@V?$Matrix@M$02$00$0A@$02$00@Eigen@@V?$allocator@V?$Matrix@M$02$00$0A@$02$00@Eigen@@@std@@@std@@@std@@QEBAAEBQEAV?$Matrix@M$02$00$0A@$02$00@Eigen@@XZ
	?_Myend@?$_Vector_alloc@U?$_Vec_base_types@V?$Matrix@M$03$00$0A@$03$00@Eigen@@V?$allocator@V?$Matrix@M$03$00$0A@$03$00@Eigen@@@std@@@std@@@std@@QEAAAEAPEAV?$Matrix@M$03$00$0A@$03$00@Eigen@@XZ
	?_Myend@?$_Vector_alloc@U?$_Vec_base_types@V?$Matrix@M$03$00$0A@$03$00@Eigen@@V?$allocator@V?$Matrix@M$03$00$0A@$03$00@Eigen@@@std@@@std@@@std@@QEBAAEBQEAV?$Matrix@M$03$00$0A@$03$00@Eigen@@XZ
	?_Myend@?$_Vector_alloc@U?$_Vec_base_types@VVertexAttribute@Tucano@@V?$allocator@VVertexAttribute@Tucano@@@std@@@std@@@std@@QEAAAEAPEAVVertexAttribute@Tucano@@XZ
	?_Myend@?$_Vector_alloc@U?$_Vec_base_types@VVertexAttribute@Tucano@@V?$allocator@VVertexAttribute@Tucano@@@std@@@std@@@std@@QEBAAEBQEAVVertexAttribute@Tucano@@XZ
	?_Myfirst@?$_Vector_alloc@U?$_Vec_base_types@HV?$allocator@H@std@@@std@@@std@@QEAAAEAPEAHXZ
	?_Myfirst@?$_Vector_alloc@U?$_Vec_base_types@HV?$allocator@H@std@@@std@@@std@@QEBAAEBQEAHXZ
	?_Myfirst@?$_Vector_alloc@U?$_Vec_base_types@IV?$allocator@I@std@@@std@@@std@@QEAAAEAPEAIXZ
	?_Myfirst@?$_Vector_alloc@U?$_Vec_base_types@IV?$allocator@I@std@@@std@@@std@@QEBAAEBQEAIXZ
	?_Myfirst@?$_Vector_alloc@U?$_Vec_base_types@MV?$allocator@M@std@@@std@@@std@@QEAAAEAPEAMXZ
	?_Myfirst@?$_Vector_alloc@U?$_Vec_base_types@MV?$allocator@M@std@@@std@@@std@@QEBAAEBQEAMXZ
	?_Myfirst@?$_Vector_alloc@U?$_Vec_base_types@PEAVElement@GUI@Tucano@@V?$allocator@PEAVElement@GUI@Tucano@@@std@@@std@@@std@@QEAAAEAPEAPEAVElement@GUI@Tucano@@XZ
	?_Myfirst@?$_Vector_alloc@U?$_Vec_base_types@PEAVElement@GUI@Tucano@@V?$allocator@PEAVElement@GUI@Tucano@@@std@@@std@@@std@@QEBAAEBQEAPEAVElement@GUI@Tucano@@XZ
	?_Myfirst@?$_Vector_alloc@U?$_Vec_base_types@PEAVSelectButton@GUI@Tucano@@V?$allocator@PEAVSelectButton@GUI@Tucano@@@std@@@std@@@std@@QEAAAEAPEAPEAVSelectButton@GUI@Tucano@@XZ
	?_Myfirst@?$_Vector_alloc@U?$_Vec_base_types@PEAVSelectButton@GUI@Tucano@@V?$allocator@PEAVSelectButton@GUI@Tucano@@@std@@@std@@@std@@QEBAAEBQEAPEAVSelectButton@GUI@Tucano@@XZ
	?_Myfirst@?$_Vector_alloc@U?$_Vec_base_types@PEAVShader@Tucano@@V?$allocator@PEAVShader@Tucano@@@std@@@std@@@std@@QEAAAEAPEAPEAVShader@Tucano@@XZ
	?_Myfirst@?$_Vector_alloc@U?$_Vec_base_types@PEAVShader@Tucano@@V?$allocator@PEAVShader@Tucano@@@std@@@std@@@std@@QEBAAEBQEAPEAVShader@Tucano@@XZ
	?_Myfirst@?$_Vector_alloc@U?$_Vec_base_types@V?$Matrix@M$01$00$0A@$01$00@Eigen@@V?$allocator@V?$Matrix@M$01$00$0A@$01$00@Eigen@@@std@@@std@@@std@@QEAAAEAPEAV?$Matrix@M$01$00$0A@$01$00@Eigen@@XZ
	?_Myfirst@?$_Vector_alloc@U?$_Vec_base_types@V?$Matrix@M$01$00$0A@$01$00@Eigen@@V?$allocator@V?$Matrix@M$01$00$0A@$01$00@Eigen@@@std@@@std@@@std@@QEBAAEBQEAV?$Matrix@M$01$00$0A@$01$00@Eigen@@XZ
	?_Myfirst@?$_Vector_alloc@U?$_Vec_base_types@V?$Matrix@M$02$00$0A@$02$00@Eigen@@V?$allocator@V?$Matrix@M$02$00$0A@$02$00@Eigen@@@std@@@std@@@std@@QEAAAEAPEAV?$Matrix@M$02$00$0A@$02$00@Eigen@@XZ
	?_Myfirst@?$_Vector_alloc@U?$_Vec_base_types@V?$Matrix@M$02$00$0A@$02$00@Eigen@@V?$allocator@V?$Matrix@M$02$00$0A@$02$00@Eigen@@@std@@@std@@@std@@QEBAAEBQEAV?$Matrix@M$02$00$0A@$02$00@Eigen@@XZ
	?_Myfirst@?$_Vector_alloc@U?$_Vec_base_types@V?$Matrix@M$03$00$0A@$03$00@Eigen@@V?$allocator@V?$Matrix@M$03$00$0A@$03$00@Eigen@@@std@@@std@@@std@@QEAAAEAPEAV?$Matrix@M$03$00$0A@$03$00@Eigen@@XZ
	?_Myfirst@?$_Vector_alloc@U?$_Vec_base_types@V?$Matrix@M$03$00$0A@$03$00@Eigen@@V?$allocator@V?$Matrix@M$03$00$0A@$03$00@Eigen@@@std@@@std@@@std@@QEBAAEBQEAV?$Matrix@M$03$00$0A@$03$00@Eigen@@XZ
	?_Myfirst@?$_Vector_alloc@U?$_Vec_base_types@VVertexAttribute@Tucano@@V?$allocator@VVertexAttribute@Tucano@@@std@@@std@@@std@@QEAAAEAPEAVVertexAttribute@Tucano@@XZ
	?_Myfirst@?$_Vector_alloc@U?$_Vec_base_types@VVertexAttribute@Tucano@@V?$allocator@VVertexAttribute@Tucano@@@std@@@std@@@std@@QEBAAEBQEAVVertexAttribute@Tucano@@XZ
	?_Mylast@?$_Vector_alloc@U?$_Vec_base_types@HV?$allocator@H@std@@@std@@@std@@QEAAAEAPEAHXZ
	?_Mylast@?$_Vector_alloc@U?$_Vec_base_types@HV?$allocator@H@std@@@std@@@std@@QEBAAEBQEAHXZ
	?_Mylast@?$_Vector_alloc@U?$_Vec_base_types@IV?$allocator@I@std@@@std@@@std@@QEAAAEAPEAIXZ
	?_Mylast@?$_Vector_alloc@U?$_Vec_base_types@IV?$allocator@I@std@@@std@@@std@@QEBAAEBQEAIXZ
	?_Mylast@?$_Vector_alloc@U?$_Vec_base_types@MV?$allocator@M@std@@@std@@@std@@QEAAAEAPEAMXZ
	?_Mylast@?$_Vector_alloc@U?$_Vec_base_types@MV?$allocator@M@std@@@std@@@std@@QEBAAEBQEAMXZ
	?_Mylast@?$_Vector_alloc@U?$_Vec_base_types@PEAVElement@GUI@Tucano@@V?$allocator@PEAVElement@GUI@Tucano@@@std@@@std@@@std@@QEAAAEAPEAPEAVElement@GUI@Tucano@@XZ
	?_Mylast@?$_Vector_alloc@U?$_Vec_base_types@PEAVElement@GUI@Tucano@@V?$allocator@PEAVElement@GUI@Tucano@@@std@@@std@@@std@@QEBAAEBQEAPEAVElement@GUI@Tucano@@XZ
	?_Mylast@?$_Vector_alloc@U?$_Vec_base_types@PEAVSelectButton@GUI@Tucano@@V?$allocator@PEAVSelectButton@GUI@Tucano@@@std@@@std@@@std@@QEBAAEBQEAPEAVSelectButton@GUI@Tucano@@XZ
	?_Mylast@?$_Vector_alloc@U?$_Vec_base_types@PEAVShader@Tucano@@V?$allocator@PEAVShader@Tucano@@@std@@@std@@@std@@QEAAAEAPEAPEAVShader@Tucano@@XZ
	?_Mylast@?$_Vector_alloc@U?$_Vec_base_types@PEAVShader@Tucano@@V?$allocator@PEAVShader@Tucano@@@std@@@std@@@std@@QEBAAEBQEAPEAVShader@Tucano@@XZ
	?_Mylast@?$_Vector_alloc@U?$_Vec_base_types@V?$Matrix@M$01$00$0A@$01$00@Eigen@@V?$allocator@V?$Matrix@M$01$00$0A@$01$00@Eigen@@@std@@@std@@@std@@QEAAAEAPEAV?$Matrix@M$01$00$0A@$01$00@Eigen@@XZ
	?_Mylast@?$_Vector_alloc@U?$_Vec_base_types@V?$Matrix@M$01$00$0A@$01$00@Eigen@@V?$allocator@V?$Matrix@M$01$00$0A@$01$00@Eigen@@@std@@@std@@@std@@QEBAAEBQEAV?$Matrix@M$01$00$0A@$01$00@Eigen@@XZ
	?_Mylast@?$_Vector_alloc@U?$_Vec_base_types@V?$Matrix@M$02$00$0A@$02$00@Eigen@@V?$allocator@V?$Matrix@M$02$00$0A@$02$00@Eigen@@@std@@@std@@@std@@QEAAAEAPEAV?$Matrix@M$02$00$0A@$02$00@Eigen@@XZ
	?_Mylast@?$_Vector_alloc@U?$_Vec_base_types@V?$Matrix@M$02$00$0A@$02$00@Eigen@@V?$allocator@V?$Matrix@M$02$00$0A@$02$00@Eigen@@@std@@@std@@@std@@QEBAAEBQEAV?$Matrix@M$02$00$0A@$02$00@Eigen@@XZ
	?_Mylast@?$_Vector_alloc@U?$_Vec_base_types@V?$Matrix@M$03$00$0A@$03$00@Eigen@@V?$allocator@V?$Matrix@M$03$00$0A@$03$00@Eigen@@@std@@@std@@@std@@QEAAAEAPEAV?$Matrix@M$03$00$0A@$03$00@Eigen@@XZ
	?_Mylast@?$_Vector_alloc@U?$_Vec_base_types@V?$Matrix@M$03$00$0A@$03$00@Eigen@@V?$allocator@V?$Matrix@M$03$00$0A@$03$00@Eigen@@@std@@@std@@@std@@QEBAAEBQEAV?$Matrix@M$03$00$0A@$03$00@Eigen@@XZ
	?_Mylast@?$_Vector_alloc@U?$_Vec_base_types@VVertexAttribute@Tucano@@V?$allocator@VVertexAttribute@Tucano@@@std@@@std@@@std@@QEAAAEAPEAVVertexAttribute@Tucano@@XZ
	?_Mylast@?$_Vector_alloc@U?$_Vec_base_types@VVertexAttribute@Tucano@@V?$allocator@VVertexAttribute@Tucano@@@std@@@std@@@std@@QEBAAEBQEAVVertexAttribute@Tucano@@XZ
	?_Myproxy@?$_String_alloc@U?$_String_base_types@DV?$allocator@D@std@@@std@@@std@@QEAAAEAPEAU_Container_proxy@2@XZ
	?_Myproxy@?$_Vector_alloc@U?$_Vec_base_types@HV?$allocator@H@std@@@std@@@std@@QEAAAEAPEAU_Container_proxy@2@XZ
	?_Myproxy@?$_Vector_alloc@U?$_Vec_base_types@IV?$allocator@I@std@@@std@@@std@@QEAAAEAPEAU_Container_proxy@2@XZ
	?_Myproxy@?$_Vector_alloc@U?$_Vec_base_types@MV?$allocator@M@std@@@std@@@std@@QEAAAEAPEAU_Container_proxy@2@XZ
	?_Myproxy@?$_Vector_alloc@U?$_Vec_base_types@PEAVElement@GUI@Tucano@@V?$allocator@PEAVElement@GUI@Tucano@@@std@@@std@@@std@@QEAAAEAPEAU_Container_proxy@2@XZ
	?_Myproxy@?$_Vector_alloc@U?$_Vec_base_types@PEAVShader@Tucano@@V?$allocator@PEAVShader@Tucano@@@std@@@std@@@std@@QEAAAEAPEAU_Container_proxy@2@XZ
	?_Myproxy@?$_Vector_alloc@U?$_Vec_base_types@V?$Matrix@M$01$00$0A@$01$00@Eigen@@V?$allocator@V?$Matrix@M$01$00$0A@$01$00@Eigen@@@std@@@std@@@std@@QEAAAEAPEAU_Container_proxy@2@XZ
	?_Myproxy@?$_Vector_alloc@U?$_Vec_base_types@V?$Matrix@M$02$00$0A@$02$00@Eigen@@V?$allocator@V?$Matrix@M$02$00$0A@$02$00@Eigen@@@std@@@std@@@std@@QEAAAEAPEAU_Container_proxy@2@XZ
	?_Myproxy@?$_Vector_alloc@U?$_Vec_base_types@V?$Matrix@M$03$00$0A@$03$00@Eigen@@V?$allocator@V?$Matrix@M$03$00$0A@$03$00@Eigen@@@std@@@std@@@std@@QEAAAEAPEAU_Container_proxy@2@XZ
	?_Myproxy@?$_Vector_alloc@U?$_Vec_base_types@VVertexAttribute@Tucano@@V?$allocator@VVertexAttribute@Tucano@@@std@@@std@@@std@@QEAAAEAPEAU_Container_proxy@2@XZ
	?_Myptr@?$_String_val@U?$_Simple_types@D@std@@@std@@QEAAPEADXZ
	?_Myptr@?$_String_val@U?$_Simple_types@D@std@@@std@@QEBAPEBDXZ
	?_Myptr@?$_Unique_ptr_base@UGuiImpl@tucanow@@U?$default_delete@UGuiImpl@tucanow@@@std@@@std@@QEBAAEBQEAUGuiImpl@tucanow@@XZ
	?_Myptr@?$_Unique_ptr_base@USceneImpl@tucanow@@U?$default_delete@USceneImpl@tucanow@@@std@@@std@@QEAAAEAPEAUSceneImpl@tucanow@@XZ
	?_Myptr@?$_Unique_ptr_base@USceneImpl@tucanow@@U?$default_delete@USceneImpl@tucanow@@@std@@@std@@QEBAAEBQEAUSceneImpl@tucanow@@XZ
	?_Myptr@?$_Unique_ptr_base@V_Facet_base@std@@U?$default_delete@V_Facet_base@std@@@2@@std@@QEAAAEAPEAV_Facet_base@2@XZ
	?_Myptr@?$_Unique_ptr_base@V_Facet_base@std@@U?$default_delete@V_Facet_base@std@@@2@@std@@QEBAAEBQEAV_Facet_base@2@XZ
	?_Orphan_all@?$_String_alloc@U?$_String_base_types@DV?$allocator@D@std@@@std@@@std@@QEAAXXZ
	?_Orphan_all@?$_Vector_alloc@U?$_Vec_base_types@HV?$allocator@H@std@@@std@@@std@@QEAAXXZ
	?_Orphan_all@?$_Vector_alloc@U?$_Vec_base_types@IV?$allocator@I@std@@@std@@@std@@QEAAXXZ
	?_Orphan_all@?$_Vector_alloc@U?$_Vec_base_types@MV?$allocator@M@std@@@std@@@std@@QEAAXXZ
	?_Orphan_all@?$_Vector_alloc@U?$_Vec_base_types@PEAVElement@GUI@Tucano@@V?$allocator@PEAVElement@GUI@Tucano@@@std@@@std@@@std@@QEAAXXZ
	?_Orphan_all@?$_Vector_alloc@U?$_Vec_base_types@PEAVShader@Tucano@@V?$allocator@PEAVShader@Tucano@@@std@@@std@@@std@@QEAAXXZ
	?_Orphan_all@?$_Vector_alloc@U?$_Vec_base_types@V?$Matrix@M$01$00$0A@$01$00@Eigen@@V?$allocator@V?$Matrix@M$01$00$0A@$01$00@Eigen@@@std@@@std@@@std@@QEAAXXZ
	?_Orphan_all@?$_Vector_alloc@U?$_Vec_base_types@V?$Matrix@M$02$00$0A@$02$00@Eigen@@V?$allocator@V?$Matrix@M$02$00$0A@$02$00@Eigen@@@std@@@std@@@std@@QEAAXXZ
	?_Orphan_all@?$_Vector_alloc@U?$_Vec_base_types@V?$Matrix@M$03$00$0A@$03$00@Eigen@@V?$allocator@V?$Matrix@M$03$00$0A@$03$00@Eigen@@@std@@@std@@@std@@QEAAXXZ
	?_Orphan_all@?$_Vector_alloc@U?$_Vec_base_types@VVertexAttribute@Tucano@@V?$allocator@VVertexAttribute@Tucano@@@std@@@std@@@std@@QEAAXXZ
	?_Orphan_all@_Container_base12@std@@QEAAXXZ
	?_Orphan_me@_Iterator_base12@std@@QEAAXXZ
	?_Orphan_range@?$vector@HV?$allocator@H@std@@@std@@AEBAXPEAH0@Z
	?_Orphan_range@?$vector@IV?$allocator@I@std@@@std@@AEBAXPEAI0@Z
	?_Orphan_range@?$vector@MV?$allocator@M@std@@@std@@AEBAXPEAM0@Z
	?_Orphan_range@?$vector@PEAVElement@GUI@Tucano@@V?$allocator@PEAVElement@GUI@Tucano@@@std@@@std@@AEBAXPEAPEAVElement@GUI@Tucano@@0@Z
	?_Orphan_range@?$vector@PEAVShader@Tucano@@V?$allocator@PEAVShader@Tucano@@@std@@@std@@AEBAXPEAPEAVShader@Tucano@@0@Z
	?_Orphan_range@?$vector@V?$Matrix@M$01$00$0A@$01$00@Eigen@@V?$allocator@V?$Matrix@M$01$00$0A@$01$00@Eigen@@@std@@@std@@AEBAXPEAV?$Matrix@M$01$00$0A@$01$00@Eigen@@0@Z
	?_Orphan_range@?$vector@V?$Matrix@M$02$00$0A@$02$00@Eigen@@V?$allocator@V?$Matrix@M$02$00$0A@$02$00@Eigen@@@std@@@std@@AEBAXPEAV?$Matrix@M$02$00$0A@$02$00@Eigen@@0@Z
